
coremark.elf:     file format elf32-tradlittlemips


Disassembly of section .text:

9d000000 <_ebase-0xf8>:
	...

9d0000f8 <_ebase>:
9d0000f8:	9d000000 	0x9d000000

9d0000fc <_imgptr>:
9d0000fc:	ffffffff 	sdc3	$31,-1(ra)
	...

9d000200 <_isr>:
9d000200:	23bdff98 afa10010 afa20014 afa30018     ...#............
9d000210:	afa4001c afa50020 afa60024 afa70028     .... ...$...(...
9d000220:	afa8002c afa90030 afaa0034 afab0038     ,...0...4...8...
9d000230:	afac003c afad0040 afae0044 afaf0048     <...@...D...H...
9d000240:	afb8004c afb90050 afbf0054 401a7000     L...P...T....p.@
9d000250:	afba0058 0000d810 afbb005c 0000d812     X.......\.......
9d000260:	afbb0060 40046000 40056800 3c199d01     `....`.@.h.@...<
9d000270:	2739fdc4 0320f809 00000000 8fa10010     ..9'.. .........
9d000280:	8fa20014 8fa30018 8fa4001c 8fa50020     ............ ...
9d000290:	8fa60024 8fa70028 8fa8002c 8fa90030     $...(...,...0...
9d0002a0:	8faa0034 8fab0038 8fac003c 8fad0040     4...8...<...@...
9d0002b0:	8fae0044 8faf0048 8fb8004c 8fb90050     D...H...L...P...
9d0002c0:	8fbf0054 8fba0058 8fbb005c 03600011     T...X...\.....`.
9d0002d0:	8fbb0060 03600013 23bd0068              `.....`.h..#

9d0002dc <isr_return>:
9d0002dc:	409a7000 	mtc0	k0,c0_epc
9d0002e0:	42000018 	eret
	...

9d001000 <_entry>:
9d001000:	3c1c8000 	lui	gp,0x8000
9d001004:	279c0018 	addiu	gp,gp,24
9d001008:	3c1d8002 	lui	sp,0x8002
9d00100c:	27bd0000 	addiu	sp,sp,0
9d001010:	3c048000 	lui	a0,0x8000
9d001014:	2484004c 	addiu	a0,a0,76
9d001018:	3c058000 	lui	a1,0x8000
9d00101c:	24a50020 	addiu	a1,a1,32
9d001020:	aca00000 	sw	zero,0(a1)
9d001024:	00a4182a 	slt	v1,a1,a0
9d001028:	24a50004 	addiu	a1,a1,4
9d00102c:	1460fffc 	bnez	v1,9d001020 <_entry+0x20>
9d001030:	00000000 	nop
9d001034:	3c048000 	lui	a0,0x8000
9d001038:	24840020 	addiu	a0,a0,32
9d00103c:	3c058000 	lui	a1,0x8000
9d001040:	24a50000 	addiu	a1,a1,0
9d001044:	3c069d01 	lui	a2,0x9d01
9d001048:	24c60500 	addiu	a2,a2,1280
9d00104c:	8cc20000 	lw	v0,0(a2)
9d001050:	aca20000 	sw	v0,0(a1)
9d001054:	00a4182a 	slt	v1,a1,a0
9d001058:	24a50004 	addiu	a1,a1,4
9d00105c:	24c60004 	addiu	a2,a2,4
9d001060:	1460fffa 	bnez	v1,9d00104c <_entry+0x4c>
9d001064:	00000000 	nop
9d001068:	0f403f8d 	jal	9d00fe34 <start_app>
9d00106c:	00000000 	nop
9d001070:	1000ffff 	b	9d001070 <_entry+0x70>
9d001074:	00000000 	nop

9d001078 <calc_func>:
9d001078:	27bdffd0 	addiu	sp,sp,-48
9d00107c:	afb0001c 	sw	s0,28(sp)
9d001080:	84900000 	lh	s0,0(a0)
9d001084:	afbf002c 	sw	ra,44(sp)
9d001088:	afb30028 	sw	s3,40(sp)
9d00108c:	7e0201c0 	ext	v0,s0,0x7,0x1
9d001090:	afb20024 	sw	s2,36(sp)
9d001094:	14400035 	bnez	v0,9d00116c <calc_func+0xf4>
9d001098:	afb10020 	sw	s1,32(sp)
9d00109c:	00a09021 	move	s2,a1
9d0010a0:	7e0518c0 	ext	a1,s0,0x3,0x4
9d0010a4:	00809821 	move	s3,a0
9d0010a8:	32030007 	andi	v1,s0,0x7
9d0010ac:	00052100 	sll	a0,a1,0x4
9d0010b0:	1060001e 	beqz	v1,9d00112c <calc_func+0xb4>
9d0010b4:	00855025 	or	t2,a0,a1
9d0010b8:	24060001 	li	a2,1
9d0010bc:	54660008 	bnel	v1,a2,9d0010e0 <calc_func+0x68>
9d0010c0:	02008821 	move	s1,s0
9d0010c4:	96460038 	lhu	a2,56(s2)
9d0010c8:	26440028 	addiu	a0,s2,40
9d0010cc:	0f4012f2 	jal	9d004bc8 <core_bench_matrix>
9d0010d0:	01402821 	move	a1,t2
9d0010d4:	9647003c 	lhu	a3,60(s2)
9d0010d8:	10e0002d 	beqz	a3,9d001190 <calc_func+0x118>
9d0010dc:	7c028e20 	seh	s1,v0
9d0010e0:	96450038 	lhu	a1,56(s2)
9d0010e4:	3224ffff 	andi	a0,s1,0xffff
9d0010e8:	0f401a85 	jal	9d006a14 <crcu16>
9d0010ec:	3231007f 	andi	s1,s1,0x7f
9d0010f0:	240dff00 	li	t5,-256
9d0010f4:	020d7024 	and	t6,s0,t5
9d0010f8:	8fbf002c 	lw	ra,44(sp)
9d0010fc:	35cf0080 	ori	t7,t6,0x80
9d001100:	022fc025 	or	t8,s1,t7
9d001104:	0220c821 	move	t9,s1
9d001108:	a6420038 	sh	v0,56(s2)
9d00110c:	8fb10020 	lw	s1,32(sp)
9d001110:	a6780000 	sh	t8,0(s3)
9d001114:	8fb20024 	lw	s2,36(sp)
9d001118:	8fb30028 	lw	s3,40(sp)
9d00111c:	8fb0001c 	lw	s0,28(sp)
9d001120:	03201021 	move	v0,t9
9d001124:	03e00008 	jr	ra
9d001128:	27bd0030 	addiu	sp,sp,48
9d00112c:	96480038 	lhu	t0,56(s2)
9d001130:	8e440018 	lw	a0,24(s2)
9d001134:	8e450014 	lw	a1,20(s2)
9d001138:	86460000 	lh	a2,0(s2)
9d00113c:	86470002 	lh	a3,2(s2)
9d001140:	294b0022 	slti	t3,t2,34
9d001144:	24090022 	li	t1,34
9d001148:	012b500b 	movn	t2,t1,t3
9d00114c:	afaa0010 	sw	t2,16(sp)
9d001150:	0f4016ea 	jal	9d005ba8 <core_bench_state>
9d001154:	afa80014 	sw	t0,20(sp)
9d001158:	964c003e 	lhu	t4,62(s2)
9d00115c:	1580ffe0 	bnez	t4,9d0010e0 <calc_func+0x68>
9d001160:	7c028e20 	seh	s1,v0
9d001164:	1000ffde 	b	9d0010e0 <calc_func+0x68>
9d001168:	a642003e 	sh	v0,62(s2)
9d00116c:	8fbf002c 	lw	ra,44(sp)
9d001170:	3219007f 	andi	t9,s0,0x7f
9d001174:	8fb30028 	lw	s3,40(sp)
9d001178:	8fb20024 	lw	s2,36(sp)
9d00117c:	8fb10020 	lw	s1,32(sp)
9d001180:	8fb0001c 	lw	s0,28(sp)
9d001184:	03201021 	move	v0,t9
9d001188:	03e00008 	jr	ra
9d00118c:	27bd0030 	addiu	sp,sp,48
9d001190:	1000ffd3 	b	9d0010e0 <calc_func+0x68>
9d001194:	a642003c 	sh	v0,60(s2)

9d001198 <cmp_complex>:
9d001198:	27bdffd0 	addiu	sp,sp,-48
9d00119c:	afb00018 	sw	s0,24(sp)
9d0011a0:	84900000 	lh	s0,0(a0)
9d0011a4:	afb40028 	sw	s4,40(sp)
9d0011a8:	afb30024 	sw	s3,36(sp)
9d0011ac:	7e0201c0 	ext	v0,s0,0x7,0x1
9d0011b0:	afb20020 	sw	s2,32(sp)
9d0011b4:	afbf002c 	sw	ra,44(sp)
9d0011b8:	afb1001c 	sw	s1,28(sp)
9d0011bc:	0080a021 	move	s4,a0
9d0011c0:	00a09021 	move	s2,a1
9d0011c4:	1440005b 	bnez	v0,9d001334 <cmp_complex+0x19c>
9d0011c8:	00c09821 	move	s3,a2
9d0011cc:	7e0518c0 	ext	a1,s0,0x3,0x4
9d0011d0:	00052100 	sll	a0,a1,0x4
9d0011d4:	32030007 	andi	v1,s0,0x7
9d0011d8:	1060003c 	beqz	v1,9d0012cc <cmp_complex+0x134>
9d0011dc:	00855025 	or	t2,a0,a1
9d0011e0:	24060001 	li	a2,1
9d0011e4:	54660008 	bnel	v1,a2,9d001208 <cmp_complex+0x70>
9d0011e8:	02008821 	move	s1,s0
9d0011ec:	96660038 	lhu	a2,56(s3)
9d0011f0:	26640028 	addiu	a0,s3,40
9d0011f4:	0f4012f2 	jal	9d004bc8 <core_bench_matrix>
9d0011f8:	01402821 	move	a1,t2
9d0011fc:	9667003c 	lhu	a3,60(s3)
9d001200:	10e00062 	beqz	a3,9d00138c <cmp_complex+0x1f4>
9d001204:	7c028e20 	seh	s1,v0
9d001208:	96650038 	lhu	a1,56(s3)
9d00120c:	3224ffff 	andi	a0,s1,0xffff
9d001210:	0f401a85 	jal	9d006a14 <crcu16>
9d001214:	3231007f 	andi	s1,s1,0x7f
9d001218:	240dff00 	li	t5,-256
9d00121c:	020d7024 	and	t6,s0,t5
9d001220:	35cf0080 	ori	t7,t6,0x80
9d001224:	022fc025 	or	t8,s1,t7
9d001228:	a6620038 	sh	v0,56(s3)
9d00122c:	02208021 	move	s0,s1
9d001230:	a6980000 	sh	t8,0(s4)
9d001234:	86510000 	lh	s1,0(s2)
9d001238:	7e3901c0 	ext	t9,s1,0x7,0x1
9d00123c:	17200033 	bnez	t9,9d00130c <cmp_complex+0x174>
9d001240:	7e3f18c0 	ext	ra,s1,0x3,0x4
9d001244:	001fa100 	sll	s4,ra,0x4
9d001248:	32250007 	andi	a1,s1,0x7
9d00124c:	10a0003d 	beqz	a1,9d001344 <cmp_complex+0x1ac>
9d001250:	029f1025 	or	v0,s4,ra
9d001254:	24040001 	li	a0,1
9d001258:	14a40008 	bne	a1,a0,9d00127c <cmp_complex+0xe4>
9d00125c:	02205021 	move	t2,s1
9d001260:	96660038 	lhu	a2,56(s3)
9d001264:	26640028 	addiu	a0,s3,40
9d001268:	0f4012f2 	jal	9d004bc8 <core_bench_matrix>
9d00126c:	00402821 	move	a1,v0
9d001270:	9663003c 	lhu	v1,60(s3)
9d001274:	10600043 	beqz	v1,9d001384 <cmp_complex+0x1ec>
9d001278:	7c025620 	seh	t2,v0
9d00127c:	96650038 	lhu	a1,56(s3)
9d001280:	3144ffff 	andi	a0,t2,0xffff
9d001284:	0f401a85 	jal	9d006a14 <crcu16>
9d001288:	3154007f 	andi	s4,t2,0x7f
9d00128c:	2407ff00 	li	a3,-256
9d001290:	02276024 	and	t4,s1,a3
9d001294:	8fbf002c 	lw	ra,44(sp)
9d001298:	358d0080 	ori	t5,t4,0x80
9d00129c:	028d7025 	or	t6,s4,t5
9d0012a0:	02807821 	move	t7,s4
9d0012a4:	a6620038 	sh	v0,56(s3)
9d0012a8:	8fb40028 	lw	s4,40(sp)
9d0012ac:	a64e0000 	sh	t6,0(s2)
9d0012b0:	020f1023 	subu	v0,s0,t7
9d0012b4:	8fb30024 	lw	s3,36(sp)
9d0012b8:	8fb20020 	lw	s2,32(sp)
9d0012bc:	8fb1001c 	lw	s1,28(sp)
9d0012c0:	8fb00018 	lw	s0,24(sp)
9d0012c4:	03e00008 	jr	ra
9d0012c8:	27bd0030 	addiu	sp,sp,48
9d0012cc:	96680038 	lhu	t0,56(s3)
9d0012d0:	8cc40018 	lw	a0,24(a2)
9d0012d4:	8cc50014 	lw	a1,20(a2)
9d0012d8:	86670002 	lh	a3,2(s3)
9d0012dc:	84c60000 	lh	a2,0(a2)
9d0012e0:	294b0022 	slti	t3,t2,34
9d0012e4:	24090022 	li	t1,34
9d0012e8:	012b500b 	movn	t2,t1,t3
9d0012ec:	afaa0010 	sw	t2,16(sp)
9d0012f0:	0f4016ea 	jal	9d005ba8 <core_bench_state>
9d0012f4:	afa80014 	sw	t0,20(sp)
9d0012f8:	966c003e 	lhu	t4,62(s3)
9d0012fc:	1580ffc2 	bnez	t4,9d001208 <cmp_complex+0x70>
9d001300:	7c028e20 	seh	s1,v0
9d001304:	1000ffc0 	b	9d001208 <cmp_complex+0x70>
9d001308:	a662003e 	sh	v0,62(s3)
9d00130c:	8fbf002c 	lw	ra,44(sp)
9d001310:	322f007f 	andi	t7,s1,0x7f
9d001314:	020f1023 	subu	v0,s0,t7
9d001318:	8fb40028 	lw	s4,40(sp)
9d00131c:	8fb30024 	lw	s3,36(sp)
9d001320:	8fb20020 	lw	s2,32(sp)
9d001324:	8fb1001c 	lw	s1,28(sp)
9d001328:	8fb00018 	lw	s0,24(sp)
9d00132c:	03e00008 	jr	ra
9d001330:	27bd0030 	addiu	sp,sp,48
9d001334:	1000ffbf 	b	9d001234 <cmp_complex+0x9c>
9d001338:	3210007f 	andi	s0,s0,0x7f
9d00133c:	1000ffcf 	b	9d00127c <cmp_complex+0xe4>
9d001340:	02205021 	move	t2,s1
9d001344:	96680038 	lhu	t0,56(s3)
9d001348:	86660000 	lh	a2,0(s3)
9d00134c:	8e640018 	lw	a0,24(s3)
9d001350:	8e650014 	lw	a1,20(s3)
9d001354:	86670002 	lh	a3,2(s3)
9d001358:	284b0022 	slti	t3,v0,34
9d00135c:	24090022 	li	t1,34
9d001360:	012b100b 	movn	v0,t1,t3
9d001364:	afa20010 	sw	v0,16(sp)
9d001368:	0f4016ea 	jal	9d005ba8 <core_bench_state>
9d00136c:	afa80014 	sw	t0,20(sp)
9d001370:	9666003e 	lhu	a2,62(s3)
9d001374:	14c0ffc1 	bnez	a2,9d00127c <cmp_complex+0xe4>
9d001378:	7c025620 	seh	t2,v0
9d00137c:	1000ffbf 	b	9d00127c <cmp_complex+0xe4>
9d001380:	a662003e 	sh	v0,62(s3)
9d001384:	1000ffbd 	b	9d00127c <cmp_complex+0xe4>
9d001388:	a662003c 	sh	v0,60(s3)
9d00138c:	1000ff9e 	b	9d001208 <cmp_complex+0x70>
9d001390:	a662003c 	sh	v0,60(s3)

9d001394 <cmp_idx>:
9d001394:	50c00005 	beqzl	a2,9d0013ac <cmp_idx+0x18>
9d001398:	84830000 	lh	v1,0(a0)
9d00139c:	84840002 	lh	a0,2(a0)
9d0013a0:	84a50002 	lh	a1,2(a1)
9d0013a4:	03e00008 	jr	ra
9d0013a8:	00851023 	subu	v0,a0,a1
9d0013ac:	2407ff00 	li	a3,-256
9d0013b0:	00671024 	and	v0,v1,a3
9d0013b4:	7c663a00 	ext	a2,v1,0x8,0x8
9d0013b8:	00c24025 	or	t0,a2,v0
9d0013bc:	a4880000 	sh	t0,0(a0)
9d0013c0:	84a90000 	lh	t1,0(a1)
9d0013c4:	84840002 	lh	a0,2(a0)
9d0013c8:	7d2a3a00 	ext	t2,t1,0x8,0x8
9d0013cc:	01275824 	and	t3,t1,a3
9d0013d0:	014b6025 	or	t4,t2,t3
9d0013d4:	a4ac0000 	sh	t4,0(a1)
9d0013d8:	84a50002 	lh	a1,2(a1)
9d0013dc:	03e00008 	jr	ra
9d0013e0:	00851023 	subu	v0,a0,a1

9d0013e4 <copy_info>:
9d0013e4:	84a30000 	lh	v1,0(a1)
9d0013e8:	84a20002 	lh	v0,2(a1)
9d0013ec:	a4830000 	sh	v1,0(a0)
9d0013f0:	03e00008 	jr	ra
9d0013f4:	a4820002 	sh	v0,2(a0)

9d0013f8 <core_bench_list>:
9d0013f8:	848b0004 	lh	t3,4(a0)
9d0013fc:	27bdffa0 	addiu	sp,sp,-96
9d001400:	7c052e20 	seh	a1,a1
9d001404:	afb70054 	sw	s7,84(sp)
9d001408:	afb5004c 	sw	s5,76(sp)
9d00140c:	afbf005c 	sw	ra,92(sp)
9d001410:	afbe0058 	sw	s8,88(sp)
9d001414:	afb60050 	sw	s6,80(sp)
9d001418:	afb40048 	sw	s4,72(sp)
9d00141c:	afb30044 	sw	s3,68(sp)
9d001420:	afb20040 	sw	s2,64(sp)
9d001424:	afb1003c 	sw	s1,60(sp)
9d001428:	afb00038 	sw	s0,56(sp)
9d00142c:	0080b821 	move	s7,a0
9d001430:	8c950024 	lw	s5,36(a0)
9d001434:	19600298 	blez	t3,9d001e98 <core_bench_list+0xaa0>
9d001438:	afa50020 	sw	a1,32(sp)
9d00143c:	00003821 	move	a3,zero
9d001440:	00006021 	move	t4,zero
9d001444:	00004021 	move	t0,zero
9d001448:	00004821 	move	t1,zero
9d00144c:	8fa30020 	lw	v1,32(sp)
9d001450:	30e200ff 	andi	v0,a3,0xff
9d001454:	0460021a 	bltz	v1,9d001cc0 <core_bench_list+0x8c8>
9d001458:	afa20030 	sw	v0,48(sp)
9d00145c:	12a0022a 	beqz	s5,9d001d08 <core_bench_list+0x910>
9d001460:	8fb20020 	lw	s2,32(sp)
9d001464:	8eb00004 	lw	s0,4(s5)
9d001468:	86110002 	lh	s1,2(s0)
9d00146c:	16320007 	bne	s1,s2,9d00148c <core_bench_list+0x94>
9d001470:	02a0f021 	move	s8,s5
9d001474:	10000008 	b	9d001498 <core_bench_list+0xa0>
9d001478:	00000000 	nop
9d00147c:	8fb60020 	lw	s6,32(sp)
9d001480:	86740002 	lh	s4,2(s3)
9d001484:	12960004 	beq	s4,s6,9d001498 <core_bench_list+0xa0>
9d001488:	00000000 	nop
9d00148c:	8fde0000 	lw	s8,0(s8)
9d001490:	57c0fffa 	bnezl	s8,9d00147c <core_bench_list+0x84>
9d001494:	8fd30004 	lw	s3,4(s8)
9d001498:	12a00028 	beqz	s5,9d00153c <core_bench_list+0x144>
9d00149c:	00000000 	nop
9d0014a0:	8eb80000 	lw	t8,0(s5)
9d0014a4:	00007021 	move	t6,zero
9d0014a8:	aeae0000 	sw	t6,0(s5)
9d0014ac:	13000023 	beqz	t8,9d00153c <core_bench_list+0x144>
9d0014b0:	02a0c821 	move	t9,s5
9d0014b4:	8f1f0000 	lw	ra,0(t8)
9d0014b8:	0300a821 	move	s5,t8
9d0014bc:	13e0001f 	beqz	ra,9d00153c <core_bench_list+0x144>
9d0014c0:	af190000 	sw	t9,0(t8)
9d0014c4:	8fe20000 	lw	v0,0(ra)
9d0014c8:	03e0a821 	move	s5,ra
9d0014cc:	1040001b 	beqz	v0,9d00153c <core_bench_list+0x144>
9d0014d0:	aff80000 	sw	t8,0(ra)
9d0014d4:	8c430000 	lw	v1,0(v0)
9d0014d8:	0040a821 	move	s5,v0
9d0014dc:	10600017 	beqz	v1,9d00153c <core_bench_list+0x144>
9d0014e0:	ac5f0000 	sw	ra,0(v0)
9d0014e4:	8c640000 	lw	a0,0(v1)
9d0014e8:	0060a821 	move	s5,v1
9d0014ec:	10800013 	beqz	a0,9d00153c <core_bench_list+0x144>
9d0014f0:	ac620000 	sw	v0,0(v1)
9d0014f4:	8c860000 	lw	a2,0(a0)
9d0014f8:	0080a821 	move	s5,a0
9d0014fc:	10c0000f 	beqz	a2,9d00153c <core_bench_list+0x144>
9d001500:	ac830000 	sw	v1,0(a0)
9d001504:	8cca0000 	lw	t2,0(a2)
9d001508:	00c0a821 	move	s5,a2
9d00150c:	1140000b 	beqz	t2,9d00153c <core_bench_list+0x144>
9d001510:	acc40000 	sw	a0,0(a2)
9d001514:	8d4d0000 	lw	t5,0(t2)
9d001518:	0140a821 	move	s5,t2
9d00151c:	ad460000 	sw	a2,0(t2)
9d001520:	11a00006 	beqz	t5,9d00153c <core_bench_list+0x144>
9d001524:	01407021 	move	t6,t2
9d001528:	01a0a821 	move	s5,t5
9d00152c:	8eb80000 	lw	t8,0(s5)
9d001530:	02a0c821 	move	t9,s5
9d001534:	1700ffdf 	bnez	t8,9d0014b4 <core_bench_list+0xbc>
9d001538:	aeae0000 	sw	t6,0(s5)
9d00153c:	53c001f3 	beqzl	s8,9d001d0c <core_bench_list+0x914>
9d001540:	8eb80000 	lw	t8,0(s5)
9d001544:	8fcf0004 	lw	t7,4(s8)
9d001548:	25080001 	addiu	t0,t0,1
9d00154c:	85f00000 	lh	s0,0(t7)
9d001550:	32110001 	andi	s1,s0,0x1
9d001554:	12200004 	beqz	s1,9d001568 <core_bench_list+0x170>
9d001558:	3108ffff 	andi	t0,t0,0xffff
9d00155c:	7e120240 	ext	s2,s0,0x9,0x1
9d001560:	01324821 	addu	t1,t1,s2
9d001564:	3129ffff 	andi	t1,t1,0xffff
9d001568:	8fd30000 	lw	s3,0(s8)
9d00156c:	12600007 	beqz	s3,9d00158c <core_bench_list+0x194>
9d001570:	8fa40020 	lw	a0,32(sp)
9d001574:	8e740000 	lw	s4,0(s3)
9d001578:	afd40000 	sw	s4,0(s8)
9d00157c:	8eb60000 	lw	s6,0(s5)
9d001580:	ae760000 	sw	s6,0(s3)
9d001584:	aeb30000 	sw	s3,0(s5)
9d001588:	8fa40020 	lw	a0,32(sp)
9d00158c:	04800003 	bltz	a0,9d00159c <core_bench_list+0x1a4>
9d001590:	24860001 	addiu	a2,a0,1
9d001594:	7c065620 	seh	t2,a2
9d001598:	afaa0020 	sw	t2,32(sp)
9d00159c:	24e70001 	addiu	a3,a3,1
9d0015a0:	7c073e20 	seh	a3,a3
9d0015a4:	5567ffaa 	bnel	t3,a3,9d001450 <core_bench_list+0x58>
9d0015a8:	8fa30020 	lw	v1,32(sp)
9d0015ac:	00085880 	sll	t3,t0,0x2
9d0015b0:	016c6023 	subu	t4,t3,t4
9d0015b4:	012c6821 	addu	t5,t1,t4
9d0015b8:	31aeffff 	andi	t6,t5,0xffff
9d0015bc:	afae0034 	sw	t6,52(sp)
9d0015c0:	18a000f4 	blez	a1,9d001994 <core_bench_list+0x59c>
9d0015c4:	24050001 	li	a1,1
9d0015c8:	26ef0028 	addiu	t7,s7,40
9d0015cc:	02a0f021 	move	s8,s5
9d0015d0:	afa50024 	sw	a1,36(sp)
9d0015d4:	12a000b4 	beqz	s5,9d0018a8 <core_bench_list+0x4b0>
9d0015d8:	afaf002c 	sw	t7,44(sp)
9d0015dc:	0000a821 	move	s5,zero
9d0015e0:	0000b021 	move	s6,zero
9d0015e4:	afa00028 	sw	zero,40(sp)
9d0015e8:	8fb10028 	lw	s1,40(sp)
9d0015ec:	8fa80024 	lw	t0,36(sp)
9d0015f0:	8fd30000 	lw	s3,0(s8)
9d0015f4:	26320001 	addiu	s2,s1,1
9d0015f8:	2510ffff 	addiu	s0,t0,-1
9d0015fc:	afb20028 	sw	s2,40(sp)
9d001600:	32090007 	andi	t1,s0,0x7
9d001604:	12600042 	beqz	s3,9d001710 <core_bench_list+0x318>
9d001608:	24140001 	li	s4,1
9d00160c:	8fb80024 	lw	t8,36(sp)
9d001610:	1298003f 	beq	s4,t8,9d001710 <core_bench_list+0x318>
9d001614:	00000000 	nop
9d001618:	51200025 	beqzl	t1,9d0016b0 <core_bench_list+0x2b8>
9d00161c:	8e730000 	lw	s3,0(s3)
9d001620:	1134001c 	beq	t1,s4,9d001694 <core_bench_list+0x29c>
9d001624:	24190002 	li	t9,2
9d001628:	11390017 	beq	t1,t9,9d001688 <core_bench_list+0x290>
9d00162c:	241f0003 	li	ra,3
9d001630:	113f0012 	beq	t1,ra,9d00167c <core_bench_list+0x284>
9d001634:	24020004 	li	v0,4
9d001638:	1122000d 	beq	t1,v0,9d001670 <core_bench_list+0x278>
9d00163c:	24030005 	li	v1,5
9d001640:	11230008 	beq	t1,v1,9d001664 <core_bench_list+0x26c>
9d001644:	24040006 	li	a0,6
9d001648:	11240004 	beq	t1,a0,9d00165c <core_bench_list+0x264>
9d00164c:	8e730000 	lw	s3,0(s3)
9d001650:	1260002f 	beqz	s3,9d001710 <core_bench_list+0x318>
9d001654:	24140002 	li	s4,2
9d001658:	8e730000 	lw	s3,0(s3)
9d00165c:	1260002c 	beqz	s3,9d001710 <core_bench_list+0x318>
9d001660:	26940001 	addiu	s4,s4,1
9d001664:	8e730000 	lw	s3,0(s3)
9d001668:	12600029 	beqz	s3,9d001710 <core_bench_list+0x318>
9d00166c:	26940001 	addiu	s4,s4,1
9d001670:	8e730000 	lw	s3,0(s3)
9d001674:	12600026 	beqz	s3,9d001710 <core_bench_list+0x318>
9d001678:	26940001 	addiu	s4,s4,1
9d00167c:	8e730000 	lw	s3,0(s3)
9d001680:	12600023 	beqz	s3,9d001710 <core_bench_list+0x318>
9d001684:	26940001 	addiu	s4,s4,1
9d001688:	8e730000 	lw	s3,0(s3)
9d00168c:	12600020 	beqz	s3,9d001710 <core_bench_list+0x318>
9d001690:	26940001 	addiu	s4,s4,1
9d001694:	8e730000 	lw	s3,0(s3)
9d001698:	1260001d 	beqz	s3,9d001710 <core_bench_list+0x318>
9d00169c:	26940001 	addiu	s4,s4,1
9d0016a0:	8fa60024 	lw	a2,36(sp)
9d0016a4:	1286001a 	beq	s4,a2,9d001710 <core_bench_list+0x318>
9d0016a8:	00000000 	nop
9d0016ac:	8e730000 	lw	s3,0(s3)
9d0016b0:	26940001 	addiu	s4,s4,1
9d0016b4:	12600016 	beqz	s3,9d001710 <core_bench_list+0x318>
9d0016b8:	02805021 	move	t2,s4
9d0016bc:	8e730000 	lw	s3,0(s3)
9d0016c0:	12600013 	beqz	s3,9d001710 <core_bench_list+0x318>
9d0016c4:	26940001 	addiu	s4,s4,1
9d0016c8:	8e730000 	lw	s3,0(s3)
9d0016cc:	12600010 	beqz	s3,9d001710 <core_bench_list+0x318>
9d0016d0:	25540002 	addiu	s4,t2,2
9d0016d4:	8e730000 	lw	s3,0(s3)
9d0016d8:	1260000d 	beqz	s3,9d001710 <core_bench_list+0x318>
9d0016dc:	25540003 	addiu	s4,t2,3
9d0016e0:	8e730000 	lw	s3,0(s3)
9d0016e4:	1260000a 	beqz	s3,9d001710 <core_bench_list+0x318>
9d0016e8:	25540004 	addiu	s4,t2,4
9d0016ec:	8e730000 	lw	s3,0(s3)
9d0016f0:	12600007 	beqz	s3,9d001710 <core_bench_list+0x318>
9d0016f4:	25540005 	addiu	s4,t2,5
9d0016f8:	8e730000 	lw	s3,0(s3)
9d0016fc:	12600004 	beqz	s3,9d001710 <core_bench_list+0x318>
9d001700:	25540006 	addiu	s4,t2,6
9d001704:	8e730000 	lw	s3,0(s3)
9d001708:	1660ffe5 	bnez	s3,9d0016a0 <core_bench_list+0x2a8>
9d00170c:	25540007 	addiu	s4,t2,7
9d001710:	12800057 	beqz	s4,9d001870 <core_bench_list+0x478>
9d001714:	8fb20024 	lw	s2,36(sp)
9d001718:	12400065 	beqz	s2,9d0018b0 <core_bench_list+0x4b8>
9d00171c:	03c08821 	move	s1,s8
9d001720:	52600064 	beqzl	s3,9d0018b4 <core_bench_list+0x4bc>
9d001724:	2694ffff 	addiu	s4,s4,-1
9d001728:	8fcf0004 	lw	t7,4(s8)
9d00172c:	85f10000 	lh	s1,0(t7)
9d001730:	32220080 	andi	v0,s1,0x80
9d001734:	14400064 	bnez	v0,9d0018c8 <core_bench_list+0x4d0>
9d001738:	8e700004 	lw	s0,4(s3)
9d00173c:	7e2c18c0 	ext	t4,s1,0x3,0x4
9d001740:	000c2900 	sll	a1,t4,0x4
9d001744:	322d0007 	andi	t5,s1,0x7
9d001748:	11a00065 	beqz	t5,9d0018e0 <core_bench_list+0x4e8>
9d00174c:	00ac2825 	or	a1,a1,t4
9d001750:	24180001 	li	t8,1
9d001754:	15b8000a 	bne	t5,t8,9d001780 <core_bench_list+0x388>
9d001758:	02204821 	move	t1,s1
9d00175c:	96e60038 	lhu	a2,56(s7)
9d001760:	8fa4002c 	lw	a0,44(sp)
9d001764:	0f4012f2 	jal	9d004bc8 <core_bench_matrix>
9d001768:	afaf0018 	sw	t7,24(sp)
9d00176c:	96e3003c 	lhu	v1,60(s7)
9d001770:	7c024e20 	seh	t1,v0
9d001774:	14600002 	bnez	v1,9d001780 <core_bench_list+0x388>
9d001778:	8faf0018 	lw	t7,24(sp)
9d00177c:	a6e2003c 	sh	v0,60(s7)
9d001780:	96e50038 	lhu	a1,56(s7)
9d001784:	3124ffff 	andi	a0,t1,0xffff
9d001788:	240bff00 	li	t3,-256
9d00178c:	022b8824 	and	s1,s1,t3
9d001790:	afaf001c 	sw	t7,28(sp)
9d001794:	0f401a85 	jal	9d006a14 <crcu16>
9d001798:	afa90018 	sw	t1,24(sp)
9d00179c:	8fa60018 	lw	a2,24(sp)
9d0017a0:	a6e20038 	sh	v0,56(s7)
9d0017a4:	8fa2001c 	lw	v0,28(sp)
9d0017a8:	30c4007f 	andi	a0,a2,0x7f
9d0017ac:	362f0080 	ori	t7,s1,0x80
9d0017b0:	008f6025 	or	t4,a0,t7
9d0017b4:	a44c0000 	sh	t4,0(v0)
9d0017b8:	860d0000 	lh	t5,0(s0)
9d0017bc:	31a50080 	andi	a1,t5,0x80
9d0017c0:	14a00045 	bnez	a1,9d0018d8 <core_bench_list+0x4e0>
9d0017c4:	00808821 	move	s1,a0
9d0017c8:	7db818c0 	ext	t8,t5,0x3,0x4
9d0017cc:	00184900 	sll	t1,t8,0x4
9d0017d0:	31a30007 	andi	v1,t5,0x7
9d0017d4:	10600055 	beqz	v1,9d00192c <core_bench_list+0x534>
9d0017d8:	01382825 	or	a1,t1,t8
9d0017dc:	241f0001 	li	ra,1
9d0017e0:	147f000a 	bne	v1,ra,9d00180c <core_bench_list+0x414>
9d0017e4:	01a04021 	move	t0,t5
9d0017e8:	96e60038 	lhu	a2,56(s7)
9d0017ec:	8fa4002c 	lw	a0,44(sp)
9d0017f0:	0f4012f2 	jal	9d004bc8 <core_bench_matrix>
9d0017f4:	afad0018 	sw	t5,24(sp)
9d0017f8:	96ee003c 	lhu	t6,60(s7)
9d0017fc:	7c024620 	seh	t0,v0
9d001800:	15c00002 	bnez	t6,9d00180c <core_bench_list+0x414>
9d001804:	8fad0018 	lw	t5,24(sp)
9d001808:	a6e2003c 	sh	v0,60(s7)
9d00180c:	96e50038 	lhu	a1,56(s7)
9d001810:	2406ff00 	li	a2,-256
9d001814:	01a61024 	and	v0,t5,a2
9d001818:	3104ffff 	andi	a0,t0,0xffff
9d00181c:	afa8001c 	sw	t0,28(sp)
9d001820:	0f401a85 	jal	9d006a14 <crcu16>
9d001824:	afa20018 	sw	v0,24(sp)
9d001828:	8fa4001c 	lw	a0,28(sp)
9d00182c:	8fa50018 	lw	a1,24(sp)
9d001830:	a6e20038 	sh	v0,56(s7)
9d001834:	308d007f 	andi	t5,a0,0x7f
9d001838:	34b80080 	ori	t8,a1,0x80
9d00183c:	01b84825 	or	t1,t5,t8
9d001840:	a6090000 	sh	t1,0(s0)
9d001844:	022d8023 	subu	s0,s1,t5
9d001848:	1a000019 	blez	s0,9d0018b0 <core_bench_list+0x4b8>
9d00184c:	03c08821 	move	s1,s8
9d001850:	02608821 	move	s1,s3
9d001854:	2652ffff 	addiu	s2,s2,-1
9d001858:	12c00018 	beqz	s6,9d0018bc <core_bench_list+0x4c4>
9d00185c:	8e730000 	lw	s3,0(s3)
9d001860:	aed10000 	sw	s1,0(s6)
9d001864:	0220b021 	move	s6,s1
9d001868:	1680ffab 	bnez	s4,9d001718 <core_bench_list+0x320>
9d00186c:	00000000 	nop
9d001870:	12400041 	beqz	s2,9d001978 <core_bench_list+0x580>
9d001874:	00000000 	nop
9d001878:	1660fff6 	bnez	s3,9d001854 <core_bench_list+0x45c>
9d00187c:	02608821 	move	s1,s3
9d001880:	aec00000 	sw	zero,0(s6)
9d001884:	8fb60028 	lw	s6,40(sp)
9d001888:	241e0001 	li	s8,1
9d00188c:	52de0042 	beql	s6,s8,9d001998 <core_bench_list+0x5a0>
9d001890:	8eb70000 	lw	s7,0(s5)
9d001894:	8fa70024 	lw	a3,36(sp)
9d001898:	02a0f021 	move	s8,s5
9d00189c:	00075840 	sll	t3,a3,0x1
9d0018a0:	16a0ff4e 	bnez	s5,9d0015dc <core_bench_list+0x1e4>
9d0018a4:	afab0024 	sw	t3,36(sp)
9d0018a8:	ac000000 	sw	zero,0(zero)
9d0018ac:	00000034 	teq	zero,zero
9d0018b0:	2694ffff 	addiu	s4,s4,-1
9d0018b4:	16c0ffea 	bnez	s6,9d001860 <core_bench_list+0x468>
9d0018b8:	8fde0000 	lw	s8,0(s8)
9d0018bc:	0220a821 	move	s5,s1
9d0018c0:	1000ffe9 	b	9d001868 <core_bench_list+0x470>
9d0018c4:	0220b021 	move	s6,s1
9d0018c8:	860d0000 	lh	t5,0(s0)
9d0018cc:	31a50080 	andi	a1,t5,0x80
9d0018d0:	10a0ffbd 	beqz	a1,9d0017c8 <core_bench_list+0x3d0>
9d0018d4:	3231007f 	andi	s1,s1,0x7f
9d0018d8:	1000ffda 	b	9d001844 <core_bench_list+0x44c>
9d0018dc:	31ad007f 	andi	t5,t5,0x7f
9d0018e0:	8eff0014 	lw	ra,20(s7)
9d0018e4:	96e80038 	lhu	t0,56(s7)
9d0018e8:	86e70002 	lh	a3,2(s7)
9d0018ec:	8ee40018 	lw	a0,24(s7)
9d0018f0:	86e60000 	lh	a2,0(s7)
9d0018f4:	28ae0022 	slti	t6,a1,34
9d0018f8:	24190022 	li	t9,34
9d0018fc:	00aec80a 	movz	t9,a1,t6
9d001900:	afb90010 	sw	t9,16(sp)
9d001904:	afa80014 	sw	t0,20(sp)
9d001908:	03e02821 	move	a1,ra
9d00190c:	0f4016ea 	jal	9d005ba8 <core_bench_state>
9d001910:	afaf0018 	sw	t7,24(sp)
9d001914:	96e7003e 	lhu	a3,62(s7)
9d001918:	7c024e20 	seh	t1,v0
9d00191c:	14e0ff98 	bnez	a3,9d001780 <core_bench_list+0x388>
9d001920:	8faf0018 	lw	t7,24(sp)
9d001924:	1000ff96 	b	9d001780 <core_bench_list+0x388>
9d001928:	a6e2003e 	sh	v0,62(s7)
9d00192c:	8eea0014 	lw	t2,20(s7)
9d001930:	96f90038 	lhu	t9,56(s7)
9d001934:	86e70002 	lh	a3,2(s7)
9d001938:	8ee40018 	lw	a0,24(s7)
9d00193c:	86e60000 	lh	a2,0(s7)
9d001940:	28ab0022 	slti	t3,a1,34
9d001944:	240f0022 	li	t7,34
9d001948:	00ab780a 	movz	t7,a1,t3
9d00194c:	afaf0010 	sw	t7,16(sp)
9d001950:	afb90014 	sw	t9,20(sp)
9d001954:	01402821 	move	a1,t2
9d001958:	0f4016ea 	jal	9d005ba8 <core_bench_state>
9d00195c:	afad0018 	sw	t5,24(sp)
9d001960:	96e7003e 	lhu	a3,62(s7)
9d001964:	7c024620 	seh	t0,v0
9d001968:	14e0ffa8 	bnez	a3,9d00180c <core_bench_list+0x414>
9d00196c:	8fad0018 	lw	t5,24(sp)
9d001970:	1000ffa6 	b	9d00180c <core_bench_list+0x414>
9d001974:	a6e2003e 	sh	v0,62(s7)
9d001978:	1660ff1b 	bnez	s3,9d0015e8 <core_bench_list+0x1f0>
9d00197c:	0260f021 	move	s8,s3
9d001980:	aec00000 	sw	zero,0(s6)
9d001984:	8fb60028 	lw	s6,40(sp)
9d001988:	241e0001 	li	s8,1
9d00198c:	16deffc2 	bne	s6,s8,9d001898 <core_bench_list+0x4a0>
9d001990:	8fa70024 	lw	a3,36(sp)
9d001994:	8eb70000 	lw	s7,0(s5)
9d001998:	8fae0020 	lw	t6,32(sp)
9d00199c:	02a09821 	move	s3,s5
9d0019a0:	8ef10000 	lw	s1,0(s7)
9d0019a4:	8ef90004 	lw	t9,4(s7)
9d0019a8:	8e2c0004 	lw	t4,4(s1)
9d0019ac:	8e2d0000 	lw	t5,0(s1)
9d0019b0:	aeec0004 	sw	t4,4(s7)
9d0019b4:	ae390004 	sw	t9,4(s1)
9d0019b8:	aeed0000 	sw	t5,0(s7)
9d0019bc:	05c10005 	bgez	t6,9d0019d4 <core_bench_list+0x5dc>
9d0019c0:	ae200000 	sw	zero,0(s1)
9d0019c4:	100000dc 	b	9d001d38 <core_bench_list+0x940>
9d0019c8:	8e650004 	lw	a1,4(s3)
9d0019cc:	52600134 	beqzl	s3,9d001ea0 <core_bench_list+0xaa8>
9d0019d0:	8eb30000 	lw	s3,0(s5)
9d0019d4:	8e720004 	lw	s2,4(s3)
9d0019d8:	8fb80020 	lw	t8,32(sp)
9d0019dc:	86490002 	lh	t1,2(s2)
9d0019e0:	5538fffa 	bnel	t1,t8,9d0019cc <core_bench_list+0x5d4>
9d0019e4:	8e730000 	lw	s3,0(s3)
9d0019e8:	5260012d 	beqzl	s3,9d001ea0 <core_bench_list+0xaa8>
9d0019ec:	8eb30000 	lw	s3,0(s5)
9d0019f0:	8ebf0004 	lw	ra,4(s5)
9d0019f4:	87e40000 	lh	a0,0(ra)
9d0019f8:	0f401c08 	jal	9d007020 <crc16>
9d0019fc:	8fa50034 	lw	a1,52(sp)
9d001a00:	8e730000 	lw	s3,0(s3)
9d001a04:	12600032 	beqz	s3,9d001ad0 <core_bench_list+0x6d8>
9d001a08:	afa20034 	sw	v0,52(sp)
9d001a0c:	00402821 	move	a1,v0
9d001a10:	8ea20004 	lw	v0,4(s5)
9d001a14:	0f401c08 	jal	9d007020 <crc16>
9d001a18:	84440000 	lh	a0,0(v0)
9d001a1c:	8e740000 	lw	s4,0(s3)
9d001a20:	00402821 	move	a1,v0
9d001a24:	1280002a 	beqz	s4,9d001ad0 <core_bench_list+0x6d8>
9d001a28:	afa20034 	sw	v0,52(sp)
9d001a2c:	8ea30004 	lw	v1,4(s5)
9d001a30:	0f401c08 	jal	9d007020 <crc16>
9d001a34:	84640000 	lh	a0,0(v1)
9d001a38:	8e960000 	lw	s6,0(s4)
9d001a3c:	00402821 	move	a1,v0
9d001a40:	12c00023 	beqz	s6,9d001ad0 <core_bench_list+0x6d8>
9d001a44:	afa20034 	sw	v0,52(sp)
9d001a48:	8ea40004 	lw	a0,4(s5)
9d001a4c:	0f401c08 	jal	9d007020 <crc16>
9d001a50:	84840000 	lh	a0,0(a0)
9d001a54:	8ede0000 	lw	s8,0(s6)
9d001a58:	00402821 	move	a1,v0
9d001a5c:	13c0001c 	beqz	s8,9d001ad0 <core_bench_list+0x6d8>
9d001a60:	afa20034 	sw	v0,52(sp)
9d001a64:	8ea60004 	lw	a2,4(s5)
9d001a68:	0f401c08 	jal	9d007020 <crc16>
9d001a6c:	84c40000 	lh	a0,0(a2)
9d001a70:	8fd70000 	lw	s7,0(s8)
9d001a74:	00402821 	move	a1,v0
9d001a78:	12e00015 	beqz	s7,9d001ad0 <core_bench_list+0x6d8>
9d001a7c:	afa20034 	sw	v0,52(sp)
9d001a80:	8eaa0004 	lw	t2,4(s5)
9d001a84:	0f401c08 	jal	9d007020 <crc16>
9d001a88:	85440000 	lh	a0,0(t2)
9d001a8c:	8ef20000 	lw	s2,0(s7)
9d001a90:	00402821 	move	a1,v0
9d001a94:	1240000e 	beqz	s2,9d001ad0 <core_bench_list+0x6d8>
9d001a98:	afa20034 	sw	v0,52(sp)
9d001a9c:	8ea70004 	lw	a3,4(s5)
9d001aa0:	0f401c08 	jal	9d007020 <crc16>
9d001aa4:	84e40000 	lh	a0,0(a3)
9d001aa8:	8e500000 	lw	s0,0(s2)
9d001aac:	00402821 	move	a1,v0
9d001ab0:	12000007 	beqz	s0,9d001ad0 <core_bench_list+0x6d8>
9d001ab4:	afa20034 	sw	v0,52(sp)
9d001ab8:	8eab0004 	lw	t3,4(s5)
9d001abc:	0f401c08 	jal	9d007020 <crc16>
9d001ac0:	85640000 	lh	a0,0(t3)
9d001ac4:	8e130000 	lw	s3,0(s0)
9d001ac8:	1660ffc9 	bnez	s3,9d0019f0 <core_bench_list+0x5f8>
9d001acc:	afa20034 	sw	v0,52(sp)
9d001ad0:	8e390004 	lw	t9,4(s1)
9d001ad4:	8eb00000 	lw	s0,0(s5)
9d001ad8:	8e0d0000 	lw	t5,0(s0)
9d001adc:	8e0c0004 	lw	t4,4(s0)
9d001ae0:	240f0001 	li	t7,1
9d001ae4:	24170001 	li	s7,1
9d001ae8:	ae2c0004 	sw	t4,4(s1)
9d001aec:	ae190004 	sw	t9,4(s0)
9d001af0:	ae2d0000 	sw	t5,0(s1)
9d001af4:	ae110000 	sw	s1,0(s0)
9d001af8:	240dff00 	li	t5,-256
9d001afc:	02a0f021 	move	s8,s5
9d001b00:	00002021 	move	a0,zero
9d001b04:	0000a821 	move	s5,zero
9d001b08:	0000c021 	move	t8,zero
9d001b0c:	8fc20000 	lw	v0,0(s8)
9d001b10:	25eeffff 	addiu	t6,t7,-1
9d001b14:	27180001 	addiu	t8,t8,1
9d001b18:	31c80007 	andi	t0,t6,0x7
9d001b1c:	10400040 	beqz	v0,9d001c20 <core_bench_list+0x828>
9d001b20:	24050001 	li	a1,1
9d001b24:	10af003e 	beq	a1,t7,9d001c20 <core_bench_list+0x828>
9d001b28:	00000000 	nop
9d001b2c:	51000024 	beqzl	t0,9d001bc0 <core_bench_list+0x7c8>
9d001b30:	8c420000 	lw	v0,0(v0)
9d001b34:	1105001c 	beq	t0,a1,9d001ba8 <core_bench_list+0x7b0>
9d001b38:	24090002 	li	t1,2
9d001b3c:	11090017 	beq	t0,t1,9d001b9c <core_bench_list+0x7a4>
9d001b40:	24110003 	li	s1,3
9d001b44:	11110012 	beq	t0,s1,9d001b90 <core_bench_list+0x798>
9d001b48:	241f0004 	li	ra,4
9d001b4c:	111f000d 	beq	t0,ra,9d001b84 <core_bench_list+0x78c>
9d001b50:	24140005 	li	s4,5
9d001b54:	11140008 	beq	t0,s4,9d001b78 <core_bench_list+0x780>
9d001b58:	24030006 	li	v1,6
9d001b5c:	11030004 	beq	t0,v1,9d001b70 <core_bench_list+0x778>
9d001b60:	8c420000 	lw	v0,0(v0)
9d001b64:	1040002e 	beqz	v0,9d001c20 <core_bench_list+0x828>
9d001b68:	24050002 	li	a1,2
9d001b6c:	8c420000 	lw	v0,0(v0)
9d001b70:	1040002b 	beqz	v0,9d001c20 <core_bench_list+0x828>
9d001b74:	24a50001 	addiu	a1,a1,1
9d001b78:	8c420000 	lw	v0,0(v0)
9d001b7c:	10400028 	beqz	v0,9d001c20 <core_bench_list+0x828>
9d001b80:	24a50001 	addiu	a1,a1,1
9d001b84:	8c420000 	lw	v0,0(v0)
9d001b88:	10400025 	beqz	v0,9d001c20 <core_bench_list+0x828>
9d001b8c:	24a50001 	addiu	a1,a1,1
9d001b90:	8c420000 	lw	v0,0(v0)
9d001b94:	10400022 	beqz	v0,9d001c20 <core_bench_list+0x828>
9d001b98:	24a50001 	addiu	a1,a1,1
9d001b9c:	8c420000 	lw	v0,0(v0)
9d001ba0:	1040001f 	beqz	v0,9d001c20 <core_bench_list+0x828>
9d001ba4:	24a50001 	addiu	a1,a1,1
9d001ba8:	8c420000 	lw	v0,0(v0)
9d001bac:	1040001c 	beqz	v0,9d001c20 <core_bench_list+0x828>
9d001bb0:	24a50001 	addiu	a1,a1,1
9d001bb4:	10af001a 	beq	a1,t7,9d001c20 <core_bench_list+0x828>
9d001bb8:	00000000 	nop
9d001bbc:	8c420000 	lw	v0,0(v0)
9d001bc0:	24a50001 	addiu	a1,a1,1
9d001bc4:	10400016 	beqz	v0,9d001c20 <core_bench_list+0x828>
9d001bc8:	00a0b021 	move	s6,a1
9d001bcc:	8c420000 	lw	v0,0(v0)
9d001bd0:	10400013 	beqz	v0,9d001c20 <core_bench_list+0x828>
9d001bd4:	24a50001 	addiu	a1,a1,1
9d001bd8:	8c420000 	lw	v0,0(v0)
9d001bdc:	10400010 	beqz	v0,9d001c20 <core_bench_list+0x828>
9d001be0:	26c50002 	addiu	a1,s6,2
9d001be4:	8c420000 	lw	v0,0(v0)
9d001be8:	1040000d 	beqz	v0,9d001c20 <core_bench_list+0x828>
9d001bec:	26c50003 	addiu	a1,s6,3
9d001bf0:	8c420000 	lw	v0,0(v0)
9d001bf4:	1040000a 	beqz	v0,9d001c20 <core_bench_list+0x828>
9d001bf8:	26c50004 	addiu	a1,s6,4
9d001bfc:	8c420000 	lw	v0,0(v0)
9d001c00:	10400007 	beqz	v0,9d001c20 <core_bench_list+0x828>
9d001c04:	26c50005 	addiu	a1,s6,5
9d001c08:	8c420000 	lw	v0,0(v0)
9d001c0c:	10400004 	beqz	v0,9d001c20 <core_bench_list+0x828>
9d001c10:	26c50006 	addiu	a1,s6,6
9d001c14:	8c420000 	lw	v0,0(v0)
9d001c18:	1440ffe6 	bnez	v0,9d001bb4 <core_bench_list+0x7bc>
9d001c1c:	26c50007 	addiu	a1,s6,7
9d001c20:	10a0001d 	beqz	a1,9d001c98 <core_bench_list+0x8a0>
9d001c24:	01e03021 	move	a2,t7
9d001c28:	10c00049 	beqz	a2,9d001d50 <core_bench_list+0x958>
9d001c2c:	03c05821 	move	t3,s8
9d001c30:	50400048 	beqzl	v0,9d001d54 <core_bench_list+0x95c>
9d001c34:	24a5ffff 	addiu	a1,a1,-1
9d001c38:	8fdf0004 	lw	ra,4(s8)
9d001c3c:	8c490004 	lw	t1,4(v0)
9d001c40:	87e30000 	lh	v1,0(ra)
9d001c44:	852e0002 	lh	t6,2(t1)
9d001c48:	87e80002 	lh	t0,2(ra)
9d001c4c:	7c793a00 	ext	t9,v1,0x8,0x8
9d001c50:	006d9024 	and	s2,v1,t5
9d001c54:	03328025 	or	s0,t9,s2
9d001c58:	a7f00000 	sh	s0,0(ra)
9d001c5c:	85330000 	lh	s3,0(t1)
9d001c60:	010e5023 	subu	t2,t0,t6
9d001c64:	7e713a00 	ext	s1,s3,0x8,0x8
9d001c68:	026d3824 	and	a3,s3,t5
9d001c6c:	0227a025 	or	s4,s1,a3
9d001c70:	19400037 	blez	t2,9d001d50 <core_bench_list+0x958>
9d001c74:	a5340000 	sh	s4,0(t1)
9d001c78:	00405821 	move	t3,v0
9d001c7c:	24c6ffff 	addiu	a2,a2,-1
9d001c80:	10800036 	beqz	a0,9d001d5c <core_bench_list+0x964>
9d001c84:	8c420000 	lw	v0,0(v0)
9d001c88:	ac8b0000 	sw	t3,0(a0)
9d001c8c:	01602021 	move	a0,t3
9d001c90:	14a0ffe5 	bnez	a1,9d001c28 <core_bench_list+0x830>
9d001c94:	00000000 	nop
9d001c98:	18c00033 	blez	a2,9d001d68 <core_bench_list+0x970>
9d001c9c:	00000000 	nop
9d001ca0:	1440fff6 	bnez	v0,9d001c7c <core_bench_list+0x884>
9d001ca4:	00405821 	move	t3,v0
9d001ca8:	13170033 	beq	t8,s7,9d001d78 <core_bench_list+0x980>
9d001cac:	ac800000 	sw	zero,0(a0)
9d001cb0:	16a0ff92 	bnez	s5,9d001afc <core_bench_list+0x704>
9d001cb4:	000f7840 	sll	t7,t7,0x1
9d001cb8:	ac000000 	sw	zero,0(zero)
9d001cbc:	00000034 	teq	zero,zero
9d001cc0:	52a00012 	beqzl	s5,9d001d0c <core_bench_list+0x914>
9d001cc4:	8eb80000 	lw	t8,0(s5)
9d001cc8:	8ea40004 	lw	a0,4(s5)
9d001ccc:	8faa0030 	lw	t2,48(sp)
9d001cd0:	90860000 	lbu	a2,0(a0)
9d001cd4:	14ca0007 	bne	a2,t2,9d001cf4 <core_bench_list+0x8fc>
9d001cd8:	02a0f021 	move	s8,s5
9d001cdc:	1000fdee 	b	9d001498 <core_bench_list+0xa0>
9d001ce0:	00000000 	nop
9d001ce4:	8faf0030 	lw	t7,48(sp)
9d001ce8:	91ae0000 	lbu	t6,0(t5)
9d001cec:	11cffdea 	beq	t6,t7,9d001498 <core_bench_list+0xa0>
9d001cf0:	00000000 	nop
9d001cf4:	8fde0000 	lw	s8,0(s8)
9d001cf8:	57c0fffa 	bnezl	s8,9d001ce4 <core_bench_list+0x8ec>
9d001cfc:	8fcd0004 	lw	t5,4(s8)
9d001d00:	1000fde5 	b	9d001498 <core_bench_list+0xa0>
9d001d04:	00000000 	nop
9d001d08:	8eb80000 	lw	t8,0(s5)
9d001d0c:	25990001 	addiu	t9,t4,1
9d001d10:	332cffff 	andi	t4,t9,0xffff
9d001d14:	8f1e0004 	lw	s8,4(t8)
9d001d18:	83df0001 	lb	ra,1(s8)
9d001d1c:	33e20001 	andi	v0,ra,0x1
9d001d20:	01221821 	addu	v1,t1,v0
9d001d24:	1000fe18 	b	9d001588 <core_bench_list+0x190>
9d001d28:	3069ffff 	andi	t1,v1,0xffff
9d001d2c:	5260005c 	beqzl	s3,9d001ea0 <core_bench_list+0xaa8>
9d001d30:	8eb30000 	lw	s3,0(s5)
9d001d34:	8e650004 	lw	a1,4(s3)
9d001d38:	8fa80030 	lw	t0,48(sp)
9d001d3c:	90af0000 	lbu	t7,0(a1)
9d001d40:	55e8fffa 	bnel	t7,t0,9d001d2c <core_bench_list+0x934>
9d001d44:	8e730000 	lw	s3,0(s3)
9d001d48:	1000ff27 	b	9d0019e8 <core_bench_list+0x5f0>
9d001d4c:	00000000 	nop
9d001d50:	24a5ffff 	addiu	a1,a1,-1
9d001d54:	1480ffcc 	bnez	a0,9d001c88 <core_bench_list+0x890>
9d001d58:	8fde0000 	lw	s8,0(s8)
9d001d5c:	0160a821 	move	s5,t3
9d001d60:	1000ffcb 	b	9d001c90 <core_bench_list+0x898>
9d001d64:	01602021 	move	a0,t3
9d001d68:	1440ff68 	bnez	v0,9d001b0c <core_bench_list+0x714>
9d001d6c:	0040f021 	move	s8,v0
9d001d70:	1717ffcf 	bne	t8,s7,9d001cb0 <core_bench_list+0x8b8>
9d001d74:	ac800000 	sw	zero,0(a0)
9d001d78:	8ebe0000 	lw	s8,0(s5)
9d001d7c:	13c0003a 	beqz	s8,9d001e68 <core_bench_list+0xa70>
9d001d80:	8fbf005c 	lw	ra,92(sp)
9d001d84:	8eb80004 	lw	t8,4(s5)
9d001d88:	8fa50034 	lw	a1,52(sp)
9d001d8c:	0f401c08 	jal	9d007020 <crc16>
9d001d90:	87040000 	lh	a0,0(t8)
9d001d94:	8fd70000 	lw	s7,0(s8)
9d001d98:	12e00032 	beqz	s7,9d001e64 <core_bench_list+0xa6c>
9d001d9c:	afa20034 	sw	v0,52(sp)
9d001da0:	8eb90004 	lw	t9,4(s5)
9d001da4:	00402821 	move	a1,v0
9d001da8:	0f401c08 	jal	9d007020 <crc16>
9d001dac:	87240000 	lh	a0,0(t9)
9d001db0:	8ef20000 	lw	s2,0(s7)
9d001db4:	00402821 	move	a1,v0
9d001db8:	1240002a 	beqz	s2,9d001e64 <core_bench_list+0xa6c>
9d001dbc:	afa20034 	sw	v0,52(sp)
9d001dc0:	8ea40004 	lw	a0,4(s5)
9d001dc4:	0f401c08 	jal	9d007020 <crc16>
9d001dc8:	84840000 	lh	a0,0(a0)
9d001dcc:	8e500000 	lw	s0,0(s2)
9d001dd0:	00402821 	move	a1,v0
9d001dd4:	12000023 	beqz	s0,9d001e64 <core_bench_list+0xa6c>
9d001dd8:	afa20034 	sw	v0,52(sp)
9d001ddc:	8ea60004 	lw	a2,4(s5)
9d001de0:	0f401c08 	jal	9d007020 <crc16>
9d001de4:	84c40000 	lh	a0,0(a2)
9d001de8:	8e130000 	lw	s3,0(s0)
9d001dec:	00402821 	move	a1,v0
9d001df0:	1260001c 	beqz	s3,9d001e64 <core_bench_list+0xa6c>
9d001df4:	afa20034 	sw	v0,52(sp)
9d001df8:	8eaa0004 	lw	t2,4(s5)
9d001dfc:	0f401c08 	jal	9d007020 <crc16>
9d001e00:	85440000 	lh	a0,0(t2)
9d001e04:	8e710000 	lw	s1,0(s3)
9d001e08:	00402821 	move	a1,v0
9d001e0c:	12200015 	beqz	s1,9d001e64 <core_bench_list+0xa6c>
9d001e10:	afa20034 	sw	v0,52(sp)
9d001e14:	8ea70004 	lw	a3,4(s5)
9d001e18:	0f401c08 	jal	9d007020 <crc16>
9d001e1c:	84e40000 	lh	a0,0(a3)
9d001e20:	8e340000 	lw	s4,0(s1)
9d001e24:	00402821 	move	a1,v0
9d001e28:	1280000e 	beqz	s4,9d001e64 <core_bench_list+0xa6c>
9d001e2c:	afa20034 	sw	v0,52(sp)
9d001e30:	8eab0004 	lw	t3,4(s5)
9d001e34:	0f401c08 	jal	9d007020 <crc16>
9d001e38:	85640000 	lh	a0,0(t3)
9d001e3c:	8e960000 	lw	s6,0(s4)
9d001e40:	00402821 	move	a1,v0
9d001e44:	12c00007 	beqz	s6,9d001e64 <core_bench_list+0xa6c>
9d001e48:	afa20034 	sw	v0,52(sp)
9d001e4c:	8eac0004 	lw	t4,4(s5)
9d001e50:	0f401c08 	jal	9d007020 <crc16>
9d001e54:	85840000 	lh	a0,0(t4)
9d001e58:	8ede0000 	lw	s8,0(s6)
9d001e5c:	17c0ffc9 	bnez	s8,9d001d84 <core_bench_list+0x98c>
9d001e60:	afa20034 	sw	v0,52(sp)
9d001e64:	8fbf005c 	lw	ra,92(sp)
9d001e68:	8fa20034 	lw	v0,52(sp)
9d001e6c:	8fbe0058 	lw	s8,88(sp)
9d001e70:	8fb70054 	lw	s7,84(sp)
9d001e74:	8fb60050 	lw	s6,80(sp)
9d001e78:	8fb5004c 	lw	s5,76(sp)
9d001e7c:	8fb40048 	lw	s4,72(sp)
9d001e80:	8fb30044 	lw	s3,68(sp)
9d001e84:	8fb20040 	lw	s2,64(sp)
9d001e88:	8fb1003c 	lw	s1,60(sp)
9d001e8c:	8fb00038 	lw	s0,56(sp)
9d001e90:	03e00008 	jr	ra
9d001e94:	27bd0060 	addiu	sp,sp,96
9d001e98:	1000fdc9 	b	9d0015c0 <core_bench_list+0x1c8>
9d001e9c:	afa00034 	sw	zero,52(sp)
9d001ea0:	5660fed4 	bnezl	s3,9d0019f4 <core_bench_list+0x5fc>
9d001ea4:	8ebf0004 	lw	ra,4(s5)
9d001ea8:	1000ff0b 	b	9d001ad8 <core_bench_list+0x6e0>
9d001eac:	00008021 	move	s0,zero

9d001eb0 <core_list_init>:
9d001eb0:	3c02cccc 	lui	v0,0xcccc
9d001eb4:	3443cccd 	ori	v1,v0,0xcccd
9d001eb8:	00830019 	multu	a0,v1
9d001ebc:	aca00000 	sw	zero,0(a1)
9d001ec0:	00a01021 	move	v0,a1
9d001ec4:	24ab0010 	addiu	t3,a1,16
9d001ec8:	24a30008 	addiu	v1,a1,8
9d001ecc:	240d8080 	li	t5,-32640
9d001ed0:	7c063620 	seh	a2,a2
9d001ed4:	00003821 	move	a3,zero
9d001ed8:	00002010 	mfhi	a0
9d001edc:	00042902 	srl	a1,a0,0x4
9d001ee0:	24a9fffe 	addiu	t1,a1,-2
9d001ee4:	000940c0 	sll	t0,t1,0x3
9d001ee8:	0048c821 	addu	t9,v0,t0
9d001eec:	00095080 	sll	t2,t1,0x2
9d001ef0:	0179602b 	sltu	t4,t3,t9
9d001ef4:	ac590004 	sw	t9,4(v0)
9d001ef8:	032a4021 	addu	t0,t9,t2
9d001efc:	a7200002 	sh	zero,2(t9)
9d001f00:	a72d0000 	sh	t5,0(t9)
9d001f04:	11800005 	beqz	t4,9d001f1c <core_list_init+0x6c>
9d001f08:	27240004 	addiu	a0,t9,4
9d001f0c:	272e0008 	addiu	t6,t9,8
9d001f10:	01c8782b 	sltu	t7,t6,t0
9d001f14:	55e0013e 	bnezl	t7,9d002410 <core_list_init+0x560>
9d001f18:	ac430000 	sw	v1,0(v0)
9d001f1c:	11200093 	beqz	t1,9d00216c <core_list_init+0x2bc>
9d001f20:	246a0008 	addiu	t2,v1,8
9d001f24:	252dffff 	addiu	t5,t1,-1
9d001f28:	0159282b 	sltu	a1,t2,t9
9d001f2c:	30cbffff 	andi	t3,a2,0xffff
9d001f30:	240c7fff 	li	t4,32767
9d001f34:	10a00005 	beqz	a1,9d001f4c <core_list_init+0x9c>
9d001f38:	31af0003 	andi	t7,t5,0x3
9d001f3c:	24980004 	addiu	t8,a0,4
9d001f40:	0308702b 	sltu	t6,t8,t0
9d001f44:	55c00126 	bnezl	t6,9d0023e0 <core_list_init+0x530>
9d001f48:	316d000f 	andi	t5,t3,0xf
9d001f4c:	24050001 	li	a1,1
9d001f50:	51250087 	beql	t1,a1,9d002170 <core_list_init+0x2c0>
9d001f54:	3c19cccc 	lui	t9,0xcccc
9d001f58:	51e00022 	beqzl	t7,9d001fe4 <core_list_init+0x134>
9d001f5c:	246a0008 	addiu	t2,v1,8
9d001f60:	11e50014 	beq	t7,a1,9d001fb4 <core_list_init+0x104>
9d001f64:	240a0002 	li	t2,2
9d001f68:	11ea000a 	beq	t7,t2,9d001f94 <core_list_init+0xe4>
9d001f6c:	246f0008 	addiu	t7,v1,8
9d001f70:	01f9c02b 	sltu	t8,t7,t9
9d001f74:	53000007 	beqzl	t8,9d001f94 <core_list_init+0xe4>
9d001f78:	24a50001 	addiu	a1,a1,1
9d001f7c:	248a0004 	addiu	t2,a0,4
9d001f80:	0148702b 	sltu	t6,t2,t0
9d001f84:	55c0014f 	bnezl	t6,9d0024c4 <core_list_init+0x614>
9d001f88:	396d0001 	xori	t5,t3,0x1
9d001f8c:	24a50001 	addiu	a1,a1,1
9d001f90:	246f0008 	addiu	t7,v1,8
9d001f94:	01f9502b 	sltu	t2,t7,t9
9d001f98:	51400006 	beqzl	t2,9d001fb4 <core_list_init+0x104>
9d001f9c:	24a50001 	addiu	a1,a1,1
9d001fa0:	24980004 	addiu	t8,a0,4
9d001fa4:	0308682b 	sltu	t5,t8,t0
9d001fa8:	15a00136 	bnez	t5,9d002484 <core_list_init+0x5d4>
9d001fac:	30aeffff 	andi	t6,a1,0xffff
9d001fb0:	24a50001 	addiu	a1,a1,1
9d001fb4:	246f0008 	addiu	t7,v1,8
9d001fb8:	01f9c02b 	sltu	t8,t7,t9
9d001fbc:	53000006 	beqzl	t8,9d001fd8 <core_list_init+0x128>
9d001fc0:	24a50001 	addiu	a1,a1,1
9d001fc4:	248a0004 	addiu	t2,a0,4
9d001fc8:	0148682b 	sltu	t5,t2,t0
9d001fcc:	15a0011a 	bnez	t5,9d002438 <core_list_init+0x588>
9d001fd0:	30aeffff 	andi	t6,a1,0xffff
9d001fd4:	24a50001 	addiu	a1,a1,1
9d001fd8:	51250065 	beql	t1,a1,9d002170 <core_list_init+0x2c0>
9d001fdc:	3c19cccc 	lui	t9,0xcccc
9d001fe0:	246a0008 	addiu	t2,v1,8
9d001fe4:	0159782b 	sltu	t7,t2,t9
9d001fe8:	51e00016 	beqzl	t7,9d002044 <core_list_init+0x194>
9d001fec:	246a0008 	addiu	t2,v1,8
9d001ff0:	24980004 	addiu	t8,a0,4
9d001ff4:	0308682b 	sltu	t5,t8,t0
9d001ff8:	51a00012 	beqzl	t5,9d002044 <core_list_init+0x194>
9d001ffc:	246a0008 	addiu	t2,v1,8
9d002000:	30aeffff 	andi	t6,a1,0xffff
9d002004:	01cb7826 	xor	t7,t6,t3
9d002008:	31ed000f 	andi	t5,t7,0xf
9d00200c:	000d78c0 	sll	t7,t5,0x3
9d002010:	31ce0007 	andi	t6,t6,0x7
9d002014:	01ee6825 	or	t5,t7,t6
9d002018:	000d7a00 	sll	t7,t5,0x8
9d00201c:	01ed7025 	or	t6,t7,t5
9d002020:	ac670000 	sw	a3,0(v1)
9d002024:	ac430000 	sw	v1,0(v0)
9d002028:	00603821 	move	a3,v1
9d00202c:	ac640004 	sw	a0,4(v1)
9d002030:	a48e0000 	sh	t6,0(a0)
9d002034:	a48c0002 	sh	t4,2(a0)
9d002038:	01401821 	move	v1,t2
9d00203c:	03002021 	move	a0,t8
9d002040:	246a0008 	addiu	t2,v1,8
9d002044:	0159c02b 	sltu	t8,t2,t9
9d002048:	13000015 	beqz	t8,9d0020a0 <core_list_init+0x1f0>
9d00204c:	24a50001 	addiu	a1,a1,1
9d002050:	248f0004 	addiu	t7,a0,4
9d002054:	01e8682b 	sltu	t5,t7,t0
9d002058:	51a00012 	beqzl	t5,9d0020a4 <core_list_init+0x1f4>
9d00205c:	246a0008 	addiu	t2,v1,8
9d002060:	30aeffff 	andi	t6,a1,0xffff
9d002064:	01cbc026 	xor	t8,t6,t3
9d002068:	330d000f 	andi	t5,t8,0xf
9d00206c:	000dc0c0 	sll	t8,t5,0x3
9d002070:	31ce0007 	andi	t6,t6,0x7
9d002074:	030e6825 	or	t5,t8,t6
9d002078:	000dc200 	sll	t8,t5,0x8
9d00207c:	030d7025 	or	t6,t8,t5
9d002080:	ac670000 	sw	a3,0(v1)
9d002084:	ac430000 	sw	v1,0(v0)
9d002088:	00603821 	move	a3,v1
9d00208c:	ac640004 	sw	a0,4(v1)
9d002090:	a48e0000 	sh	t6,0(a0)
9d002094:	a48c0002 	sh	t4,2(a0)
9d002098:	01401821 	move	v1,t2
9d00209c:	01e02021 	move	a0,t7
9d0020a0:	246a0008 	addiu	t2,v1,8
9d0020a4:	0159782b 	sltu	t7,t2,t9
9d0020a8:	11e00015 	beqz	t7,9d002100 <core_list_init+0x250>
9d0020ac:	24ae0001 	addiu	t6,a1,1
9d0020b0:	24980004 	addiu	t8,a0,4
9d0020b4:	0308682b 	sltu	t5,t8,t0
9d0020b8:	51a00012 	beqzl	t5,9d002104 <core_list_init+0x254>
9d0020bc:	246a0008 	addiu	t2,v1,8
9d0020c0:	31cfffff 	andi	t7,t6,0xffff
9d0020c4:	01eb7026 	xor	t6,t7,t3
9d0020c8:	31cd000f 	andi	t5,t6,0xf
9d0020cc:	31ef0007 	andi	t7,t7,0x7
9d0020d0:	000d68c0 	sll	t5,t5,0x3
9d0020d4:	01af6825 	or	t5,t5,t7
9d0020d8:	000d7200 	sll	t6,t5,0x8
9d0020dc:	01cd7825 	or	t7,t6,t5
9d0020e0:	ac670000 	sw	a3,0(v1)
9d0020e4:	ac430000 	sw	v1,0(v0)
9d0020e8:	00603821 	move	a3,v1
9d0020ec:	ac640004 	sw	a0,4(v1)
9d0020f0:	a48f0000 	sh	t7,0(a0)
9d0020f4:	a48c0002 	sh	t4,2(a0)
9d0020f8:	01401821 	move	v1,t2
9d0020fc:	03002021 	move	a0,t8
9d002100:	246a0008 	addiu	t2,v1,8
9d002104:	0159c02b 	sltu	t8,t2,t9
9d002108:	13000015 	beqz	t8,9d002160 <core_list_init+0x2b0>
9d00210c:	24ae0002 	addiu	t6,a1,2
9d002110:	248f0004 	addiu	t7,a0,4
9d002114:	01e8682b 	sltu	t5,t7,t0
9d002118:	51a00012 	beqzl	t5,9d002164 <core_list_init+0x2b4>
9d00211c:	24a50003 	addiu	a1,a1,3
9d002120:	31d8ffff 	andi	t8,t6,0xffff
9d002124:	030b7026 	xor	t6,t8,t3
9d002128:	31cd000f 	andi	t5,t6,0xf
9d00212c:	33180007 	andi	t8,t8,0x7
9d002130:	000d68c0 	sll	t5,t5,0x3
9d002134:	01b86825 	or	t5,t5,t8
9d002138:	000d7200 	sll	t6,t5,0x8
9d00213c:	01cdc025 	or	t8,t6,t5
9d002140:	ac670000 	sw	a3,0(v1)
9d002144:	ac430000 	sw	v1,0(v0)
9d002148:	00603821 	move	a3,v1
9d00214c:	ac640004 	sw	a0,4(v1)
9d002150:	a4980000 	sh	t8,0(a0)
9d002154:	a48c0002 	sh	t4,2(a0)
9d002158:	01401821 	move	v1,t2
9d00215c:	01e02021 	move	a0,t7
9d002160:	24a50003 	addiu	a1,a1,3
9d002164:	1525ff9f 	bne	t1,a1,9d001fe4 <core_list_init+0x134>
9d002168:	246a0008 	addiu	t2,v1,8
9d00216c:	3c19cccc 	lui	t9,0xcccc
9d002170:	3728cccd 	ori	t0,t9,0xcccd
9d002174:	01280019 	multu	t1,t0
9d002178:	00e06821 	move	t5,a3
9d00217c:	24040001 	li	a0,1
9d002180:	240f0002 	li	t7,2
9d002184:	00004810 	mfhi	t1
9d002188:	10000005 	b	9d0021a0 <core_list_init+0x2f0>
9d00218c:	00093882 	srl	a3,t1,0x2
9d002190:	a5840002 	sh	a0,2(t4)
9d002194:	25ef0001 	addiu	t7,t7,1
9d002198:	24840001 	addiu	a0,a0,1
9d00219c:	01606821 	move	t5,t3
9d0021a0:	8dab0000 	lw	t3,0(t5)
9d0021a4:	1160000b 	beqz	t3,9d0021d4 <core_list_init+0x324>
9d0021a8:	0087182b 	sltu	v1,a0,a3
9d0021ac:	5460fff8 	bnezl	v1,9d002190 <core_list_init+0x2e0>
9d0021b0:	8dac0004 	lw	t4,4(t5)
9d0021b4:	31e90007 	andi	t1,t7,0x7
9d0021b8:	8da50004 	lw	a1,4(t5)
9d0021bc:	00097200 	sll	t6,t1,0x8
9d0021c0:	0086c026 	xor	t8,a0,a2
9d0021c4:	01d8c825 	or	t9,t6,t8
9d0021c8:	332a3fff 	andi	t2,t9,0x3fff
9d0021cc:	1000fff1 	b	9d002194 <core_list_init+0x2e4>
9d0021d0:	a4aa0002 	sh	t2,2(a1)
9d0021d4:	24050001 	li	a1,1
9d0021d8:	240eff00 	li	t6,-256
9d0021dc:	24190001 	li	t9,1
9d0021e0:	00404821 	move	t1,v0
9d0021e4:	00003021 	move	a2,zero
9d0021e8:	00001021 	move	v0,zero
9d0021ec:	0000c021 	move	t8,zero
9d0021f0:	8d230000 	lw	v1,0(t1)
9d0021f4:	24acffff 	addiu	t4,a1,-1
9d0021f8:	27180001 	addiu	t8,t8,1
9d0021fc:	318a0007 	andi	t2,t4,0x7
9d002200:	10600040 	beqz	v1,9d002304 <core_list_init+0x454>
9d002204:	24070001 	li	a3,1
9d002208:	10e5003e 	beq	a3,a1,9d002304 <core_list_init+0x454>
9d00220c:	00000000 	nop
9d002210:	51400024 	beqzl	t2,9d0022a4 <core_list_init+0x3f4>
9d002214:	8c630000 	lw	v1,0(v1)
9d002218:	1147001c 	beq	t2,a3,9d00228c <core_list_init+0x3dc>
9d00221c:	240f0002 	li	t7,2
9d002220:	114f0017 	beq	t2,t7,9d002280 <core_list_init+0x3d0>
9d002224:	240d0003 	li	t5,3
9d002228:	114d0012 	beq	t2,t5,9d002274 <core_list_init+0x3c4>
9d00222c:	24040004 	li	a0,4
9d002230:	1144000d 	beq	t2,a0,9d002268 <core_list_init+0x3b8>
9d002234:	24080005 	li	t0,5
9d002238:	11480008 	beq	t2,t0,9d00225c <core_list_init+0x3ac>
9d00223c:	240b0006 	li	t3,6
9d002240:	114b0004 	beq	t2,t3,9d002254 <core_list_init+0x3a4>
9d002244:	8c630000 	lw	v1,0(v1)
9d002248:	1060002e 	beqz	v1,9d002304 <core_list_init+0x454>
9d00224c:	24070002 	li	a3,2
9d002250:	8c630000 	lw	v1,0(v1)
9d002254:	1060002b 	beqz	v1,9d002304 <core_list_init+0x454>
9d002258:	24e70001 	addiu	a3,a3,1
9d00225c:	8c630000 	lw	v1,0(v1)
9d002260:	10600028 	beqz	v1,9d002304 <core_list_init+0x454>
9d002264:	24e70001 	addiu	a3,a3,1
9d002268:	8c630000 	lw	v1,0(v1)
9d00226c:	10600025 	beqz	v1,9d002304 <core_list_init+0x454>
9d002270:	24e70001 	addiu	a3,a3,1
9d002274:	8c630000 	lw	v1,0(v1)
9d002278:	10600022 	beqz	v1,9d002304 <core_list_init+0x454>
9d00227c:	24e70001 	addiu	a3,a3,1
9d002280:	8c630000 	lw	v1,0(v1)
9d002284:	1060001f 	beqz	v1,9d002304 <core_list_init+0x454>
9d002288:	24e70001 	addiu	a3,a3,1
9d00228c:	8c630000 	lw	v1,0(v1)
9d002290:	1060001c 	beqz	v1,9d002304 <core_list_init+0x454>
9d002294:	24e70001 	addiu	a3,a3,1
9d002298:	10e5001a 	beq	a3,a1,9d002304 <core_list_init+0x454>
9d00229c:	00000000 	nop
9d0022a0:	8c630000 	lw	v1,0(v1)
9d0022a4:	24e70001 	addiu	a3,a3,1
9d0022a8:	10600016 	beqz	v1,9d002304 <core_list_init+0x454>
9d0022ac:	00e06021 	move	t4,a3
9d0022b0:	8c630000 	lw	v1,0(v1)
9d0022b4:	10600013 	beqz	v1,9d002304 <core_list_init+0x454>
9d0022b8:	24e70001 	addiu	a3,a3,1
9d0022bc:	8c630000 	lw	v1,0(v1)
9d0022c0:	10600010 	beqz	v1,9d002304 <core_list_init+0x454>
9d0022c4:	25870002 	addiu	a3,t4,2
9d0022c8:	8c630000 	lw	v1,0(v1)
9d0022cc:	1060000d 	beqz	v1,9d002304 <core_list_init+0x454>
9d0022d0:	25870003 	addiu	a3,t4,3
9d0022d4:	8c630000 	lw	v1,0(v1)
9d0022d8:	1060000a 	beqz	v1,9d002304 <core_list_init+0x454>
9d0022dc:	25870004 	addiu	a3,t4,4
9d0022e0:	8c630000 	lw	v1,0(v1)
9d0022e4:	10600007 	beqz	v1,9d002304 <core_list_init+0x454>
9d0022e8:	25870005 	addiu	a3,t4,5
9d0022ec:	8c630000 	lw	v1,0(v1)
9d0022f0:	10600004 	beqz	v1,9d002304 <core_list_init+0x454>
9d0022f4:	25870006 	addiu	a3,t4,6
9d0022f8:	8c630000 	lw	v1,0(v1)
9d0022fc:	1460ffe6 	bnez	v1,9d002298 <core_list_init+0x3e8>
9d002300:	25870007 	addiu	a3,t4,7
9d002304:	18e0001d 	blez	a3,9d00237c <core_list_init+0x4cc>
9d002308:	00a04021 	move	t0,a1
9d00230c:	11000024 	beqz	t0,9d0023a0 <core_list_init+0x4f0>
9d002310:	01205821 	move	t3,t1
9d002314:	50600023 	beqzl	v1,9d0023a4 <core_list_init+0x4f4>
9d002318:	24e7ffff 	addiu	a3,a3,-1
9d00231c:	8d2c0004 	lw	t4,4(t1)
9d002320:	8c6b0004 	lw	t3,4(v1)
9d002324:	85840000 	lh	a0,0(t4)
9d002328:	856f0002 	lh	t7,2(t3)
9d00232c:	858a0002 	lh	t2,2(t4)
9d002330:	7c8d3a00 	ext	t5,a0,0x8,0x8
9d002334:	008e2024 	and	a0,a0,t6
9d002338:	01a46825 	or	t5,t5,a0
9d00233c:	a58d0000 	sh	t5,0(t4)
9d002340:	85640000 	lh	a0,0(t3)
9d002344:	014f5023 	subu	t2,t2,t7
9d002348:	7c8c3a00 	ext	t4,a0,0x8,0x8
9d00234c:	008e7824 	and	t7,a0,t6
9d002350:	018f6825 	or	t5,t4,t7
9d002354:	19400011 	blez	t2,9d00239c <core_list_init+0x4ec>
9d002358:	a56d0000 	sh	t5,0(t3)
9d00235c:	00605821 	move	t3,v1
9d002360:	2508ffff 	addiu	t0,t0,-1
9d002364:	10c00011 	beqz	a2,9d0023ac <core_list_init+0x4fc>
9d002368:	8c630000 	lw	v1,0(v1)
9d00236c:	accb0000 	sw	t3,0(a2)
9d002370:	01603021 	move	a2,t3
9d002374:	1ce0ffe5 	bgtz	a3,9d00230c <core_list_init+0x45c>
9d002378:	00000000 	nop
9d00237c:	1900000e 	blez	t0,9d0023b8 <core_list_init+0x508>
9d002380:	00000000 	nop
9d002384:	1060000e 	beqz	v1,9d0023c0 <core_list_init+0x510>
9d002388:	00000000 	nop
9d00238c:	10e0fff4 	beqz	a3,9d002360 <core_list_init+0x4b0>
9d002390:	00605821 	move	t3,v1
9d002394:	1000ffe2 	b	9d002320 <core_list_init+0x470>
9d002398:	8d2c0004 	lw	t4,4(t1)
9d00239c:	01205821 	move	t3,t1
9d0023a0:	24e7ffff 	addiu	a3,a3,-1
9d0023a4:	14c0fff1 	bnez	a2,9d00236c <core_list_init+0x4bc>
9d0023a8:	8d290000 	lw	t1,0(t1)
9d0023ac:	01601021 	move	v0,t3
9d0023b0:	1000fff0 	b	9d002374 <core_list_init+0x4c4>
9d0023b4:	01603021 	move	a2,t3
9d0023b8:	1460ff8d 	bnez	v1,9d0021f0 <core_list_init+0x340>
9d0023bc:	00604821 	move	t1,v1
9d0023c0:	13190005 	beq	t8,t9,9d0023d8 <core_list_init+0x528>
9d0023c4:	acc00000 	sw	zero,0(a2)
9d0023c8:	1440ff85 	bnez	v0,9d0021e0 <core_list_init+0x330>
9d0023cc:	00052840 	sll	a1,a1,0x1
9d0023d0:	ac000000 	sw	zero,0(zero)
9d0023d4:	00000034 	teq	zero,zero
9d0023d8:	03e00008 	jr	ra
9d0023dc:	00000000 	nop
9d0023e0:	000d28c0 	sll	a1,t5,0x3
9d0023e4:	00057200 	sll	t6,a1,0x8
9d0023e8:	01c56825 	or	t5,t6,a1
9d0023ec:	ac670000 	sw	a3,0(v1)
9d0023f0:	ac430000 	sw	v1,0(v0)
9d0023f4:	00603821 	move	a3,v1
9d0023f8:	ac640004 	sw	a0,4(v1)
9d0023fc:	a48d0000 	sh	t5,0(a0)
9d002400:	a48c0002 	sh	t4,2(a0)
9d002404:	01401821 	move	v1,t2
9d002408:	1000fed0 	b	9d001f4c <core_list_init+0x9c>
9d00240c:	03002021 	move	a0,t8
9d002410:	00603821 	move	a3,v1
9d002414:	2418ffff 	li	t8,-1
9d002418:	01601821 	move	v1,t3
9d00241c:	240b7fff 	li	t3,32767
9d002420:	ac44000c 	sw	a0,12(v0)
9d002424:	ac400008 	sw	zero,8(v0)
9d002428:	01c02021 	move	a0,t6
9d00242c:	a7380004 	sh	t8,4(t9)
9d002430:	1000feba 	b	9d001f1c <core_list_init+0x6c>
9d002434:	a72b0006 	sh	t3,6(t9)
9d002438:	01cbc026 	xor	t8,t6,t3
9d00243c:	330d000f 	andi	t5,t8,0xf
9d002440:	000dc0c0 	sll	t8,t5,0x3
9d002444:	31ce0007 	andi	t6,t6,0x7
9d002448:	030e6825 	or	t5,t8,t6
9d00244c:	000dc200 	sll	t8,t5,0x8
9d002450:	030d7025 	or	t6,t8,t5
9d002454:	24a50001 	addiu	a1,a1,1
9d002458:	ac670000 	sw	a3,0(v1)
9d00245c:	ac430000 	sw	v1,0(v0)
9d002460:	00603821 	move	a3,v1
9d002464:	ac640004 	sw	a0,4(v1)
9d002468:	a48e0000 	sh	t6,0(a0)
9d00246c:	a48c0002 	sh	t4,2(a0)
9d002470:	01e01821 	move	v1,t7
9d002474:	1525feda 	bne	t1,a1,9d001fe0 <core_list_init+0x130>
9d002478:	01402021 	move	a0,t2
9d00247c:	1000ff3c 	b	9d002170 <core_list_init+0x2c0>
9d002480:	3c19cccc 	lui	t9,0xcccc
9d002484:	01cb5026 	xor	t2,t6,t3
9d002488:	314d000f 	andi	t5,t2,0xf
9d00248c:	000d50c0 	sll	t2,t5,0x3
9d002490:	31ce0007 	andi	t6,t6,0x7
9d002494:	014e6825 	or	t5,t2,t6
9d002498:	000d5200 	sll	t2,t5,0x8
9d00249c:	014d7025 	or	t6,t2,t5
9d0024a0:	ac670000 	sw	a3,0(v1)
9d0024a4:	ac430000 	sw	v1,0(v0)
9d0024a8:	00603821 	move	a3,v1
9d0024ac:	ac640004 	sw	a0,4(v1)
9d0024b0:	a48e0000 	sh	t6,0(a0)
9d0024b4:	a48c0002 	sh	t4,2(a0)
9d0024b8:	01e01821 	move	v1,t7
9d0024bc:	1000febc 	b	9d001fb0 <core_list_init+0x100>
9d0024c0:	03002021 	move	a0,t8
9d0024c4:	31b8000f 	andi	t8,t5,0xf
9d0024c8:	001870c0 	sll	t6,t8,0x3
9d0024cc:	35cd0001 	ori	t5,t6,0x1
9d0024d0:	000dc200 	sll	t8,t5,0x8
9d0024d4:	030d7025 	or	t6,t8,t5
9d0024d8:	ac670000 	sw	a3,0(v1)
9d0024dc:	ac430000 	sw	v1,0(v0)
9d0024e0:	00603821 	move	a3,v1
9d0024e4:	ac640004 	sw	a0,4(v1)
9d0024e8:	a48e0000 	sh	t6,0(a0)
9d0024ec:	a48c0002 	sh	t4,2(a0)
9d0024f0:	01e01821 	move	v1,t7
9d0024f4:	1000fea5 	b	9d001f8c <core_list_init+0xdc>
9d0024f8:	01402021 	move	a0,t2

9d0024fc <core_list_insert_new>:
9d0024fc:	8cc20000 	lw	v0,0(a2)
9d002500:	8fa30010 	lw	v1,16(sp)
9d002504:	24490008 	addiu	t1,v0,8
9d002508:	0123402b 	sltu	t0,t1,v1
9d00250c:	11000015 	beqz	t0,9d002564 <core_list_insert_new+0x68>
9d002510:	8fac0014 	lw	t4,20(sp)
9d002514:	8cea0000 	lw	t2,0(a3)
9d002518:	254b0004 	addiu	t3,t2,4
9d00251c:	016c682b 	sltu	t5,t3,t4
9d002520:	11a00010 	beqz	t5,9d002564 <core_list_insert_new+0x68>
9d002524:	00000000 	nop
9d002528:	acc90000 	sw	t1,0(a2)
9d00252c:	8c8e0000 	lw	t6,0(a0)
9d002530:	84a60000 	lh	a2,0(a1)
9d002534:	84a50002 	lh	a1,2(a1)
9d002538:	ac4e0000 	sw	t6,0(v0)
9d00253c:	ac820000 	sw	v0,0(a0)
9d002540:	8ce40000 	lw	a0,0(a3)
9d002544:	ac440004 	sw	a0,4(v0)
9d002548:	8cef0000 	lw	t7,0(a3)
9d00254c:	25f80004 	addiu	t8,t7,4
9d002550:	acf80000 	sw	t8,0(a3)
9d002554:	8c470004 	lw	a3,4(v0)
9d002558:	a4e60000 	sh	a2,0(a3)
9d00255c:	03e00008 	jr	ra
9d002560:	a4e50002 	sh	a1,2(a3)
9d002564:	03e00008 	jr	ra
9d002568:	00001021 	move	v0,zero

9d00256c <core_list_remove>:
9d00256c:	8c830000 	lw	v1,0(a0)
9d002570:	8c860004 	lw	a2,4(a0)
9d002574:	8c670004 	lw	a3,4(v1)
9d002578:	8c650000 	lw	a1,0(v1)
9d00257c:	00601021 	move	v0,v1
9d002580:	ac870004 	sw	a3,4(a0)
9d002584:	ac660004 	sw	a2,4(v1)
9d002588:	ac850000 	sw	a1,0(a0)
9d00258c:	03e00008 	jr	ra
9d002590:	ac600000 	sw	zero,0(v1)

9d002594 <core_list_undo_remove>:
9d002594:	8c860004 	lw	a2,4(a0)
9d002598:	8ca70004 	lw	a3,4(a1)
9d00259c:	8ca30000 	lw	v1,0(a1)
9d0025a0:	00801021 	move	v0,a0
9d0025a4:	ac870004 	sw	a3,4(a0)
9d0025a8:	aca60004 	sw	a2,4(a1)
9d0025ac:	ac830000 	sw	v1,0(a0)
9d0025b0:	03e00008 	jr	ra
9d0025b4:	aca40000 	sw	a0,0(a1)

9d0025b8 <core_list_find>:
9d0025b8:	84a60002 	lh	a2,2(a1)
9d0025bc:	04c00011 	bltz	a2,9d002604 <core_list_find+0x4c>
9d0025c0:	00801021 	move	v0,a0
9d0025c4:	1080001e 	beqz	a0,9d002640 <core_list_find+0x88>
9d0025c8:	00000000 	nop
9d0025cc:	8c890004 	lw	t1,4(a0)
9d0025d0:	852a0002 	lh	t2,2(t1)
9d0025d4:	55460007 	bnel	t2,a2,9d0025f4 <core_list_find+0x3c>
9d0025d8:	8c420000 	lw	v0,0(v0)
9d0025dc:	10000018 	b	9d002640 <core_list_find+0x88>
9d0025e0:	00000000 	nop
9d0025e4:	856c0002 	lh	t4,2(t3)
9d0025e8:	11860015 	beq	t4,a2,9d002640 <core_list_find+0x88>
9d0025ec:	00000000 	nop
9d0025f0:	8c420000 	lw	v0,0(v0)
9d0025f4:	5440fffb 	bnezl	v0,9d0025e4 <core_list_find+0x2c>
9d0025f8:	8c4b0004 	lw	t3,4(v0)
9d0025fc:	03e00008 	jr	ra
9d002600:	00000000 	nop
9d002604:	1080000e 	beqz	a0,9d002640 <core_list_find+0x88>
9d002608:	00000000 	nop
9d00260c:	8c830004 	lw	v1,4(a0)
9d002610:	84a40000 	lh	a0,0(a1)
9d002614:	90650000 	lbu	a1,0(v1)
9d002618:	54a40007 	bnel	a1,a0,9d002638 <core_list_find+0x80>
9d00261c:	8c420000 	lw	v0,0(v0)
9d002620:	10000007 	b	9d002640 <core_list_find+0x88>
9d002624:	00000000 	nop
9d002628:	90e80000 	lbu	t0,0(a3)
9d00262c:	11040004 	beq	t0,a0,9d002640 <core_list_find+0x88>
9d002630:	00000000 	nop
9d002634:	8c420000 	lw	v0,0(v0)
9d002638:	5440fffb 	bnezl	v0,9d002628 <core_list_find+0x70>
9d00263c:	8c470004 	lw	a3,4(v0)
9d002640:	03e00008 	jr	ra
9d002644:	00000000 	nop

9d002648 <core_list_reverse>:
9d002648:	10800028 	beqz	a0,9d0026ec <core_list_reverse+0xa4>
9d00264c:	00801021 	move	v0,a0
9d002650:	8c430000 	lw	v1,0(v0)
9d002654:	00006021 	move	t4,zero
9d002658:	ac4c0000 	sw	t4,0(v0)
9d00265c:	10600023 	beqz	v1,9d0026ec <core_list_reverse+0xa4>
9d002660:	00402821 	move	a1,v0
9d002664:	8c640000 	lw	a0,0(v1)
9d002668:	00601021 	move	v0,v1
9d00266c:	1080001f 	beqz	a0,9d0026ec <core_list_reverse+0xa4>
9d002670:	ac650000 	sw	a1,0(v1)
9d002674:	8c860000 	lw	a2,0(a0)
9d002678:	00801021 	move	v0,a0
9d00267c:	10c0001b 	beqz	a2,9d0026ec <core_list_reverse+0xa4>
9d002680:	ac830000 	sw	v1,0(a0)
9d002684:	8cc70000 	lw	a3,0(a2)
9d002688:	00c01021 	move	v0,a2
9d00268c:	10e00017 	beqz	a3,9d0026ec <core_list_reverse+0xa4>
9d002690:	acc40000 	sw	a0,0(a2)
9d002694:	8ce80000 	lw	t0,0(a3)
9d002698:	00e01021 	move	v0,a3
9d00269c:	11000013 	beqz	t0,9d0026ec <core_list_reverse+0xa4>
9d0026a0:	ace60000 	sw	a2,0(a3)
9d0026a4:	8d090000 	lw	t1,0(t0)
9d0026a8:	01001021 	move	v0,t0
9d0026ac:	1120000f 	beqz	t1,9d0026ec <core_list_reverse+0xa4>
9d0026b0:	ad070000 	sw	a3,0(t0)
9d0026b4:	8d2a0000 	lw	t2,0(t1)
9d0026b8:	01201021 	move	v0,t1
9d0026bc:	1140000b 	beqz	t2,9d0026ec <core_list_reverse+0xa4>
9d0026c0:	ad280000 	sw	t0,0(t1)
9d0026c4:	8d4b0000 	lw	t3,0(t2)
9d0026c8:	01401021 	move	v0,t2
9d0026cc:	ad490000 	sw	t1,0(t2)
9d0026d0:	11600006 	beqz	t3,9d0026ec <core_list_reverse+0xa4>
9d0026d4:	01406021 	move	t4,t2
9d0026d8:	01601021 	move	v0,t3
9d0026dc:	8c430000 	lw	v1,0(v0)
9d0026e0:	00402821 	move	a1,v0
9d0026e4:	1460ffdf 	bnez	v1,9d002664 <core_list_reverse+0x1c>
9d0026e8:	ac4c0000 	sw	t4,0(v0)
9d0026ec:	03e00008 	jr	ra
9d0026f0:	00000000 	nop

9d0026f4 <core_list_mergesort>:
9d0026f4:	27bdffc0 	addiu	sp,sp,-64
9d0026f8:	afb70034 	sw	s7,52(sp)
9d0026fc:	0080b821 	move	s7,a0
9d002700:	afb5002c 	sw	s5,44(sp)
9d002704:	afb30024 	sw	s3,36(sp)
9d002708:	afb20020 	sw	s2,32(sp)
9d00270c:	afbf003c 	sw	ra,60(sp)
9d002710:	afbe0038 	sw	s8,56(sp)
9d002714:	afb60030 	sw	s6,48(sp)
9d002718:	afb40028 	sw	s4,40(sp)
9d00271c:	afb1001c 	sw	s1,28(sp)
9d002720:	afb00018 	sw	s0,24(sp)
9d002724:	00a09821 	move	s3,a1
9d002728:	00c09021 	move	s2,a2
9d00272c:	12e0006a 	beqz	s7,9d0028d8 <core_list_mergesort+0x1e4>
9d002730:	24150001 	li	s5,1
9d002734:	afa00010 	sw	zero,16(sp)
9d002738:	00008821 	move	s1,zero
9d00273c:	0000a021 	move	s4,zero
9d002740:	8fa30010 	lw	v1,16(sp)
9d002744:	8ef00000 	lw	s0,0(s7)
9d002748:	26a2ffff 	addiu	v0,s5,-1
9d00274c:	24640001 	addiu	a0,v1,1
9d002750:	afa40010 	sw	a0,16(sp)
9d002754:	30450007 	andi	a1,v0,0x7
9d002758:	12000040 	beqz	s0,9d00285c <core_list_mergesort+0x168>
9d00275c:	241e0001 	li	s8,1
9d002760:	13d5003e 	beq	s8,s5,9d00285c <core_list_mergesort+0x168>
9d002764:	00000000 	nop
9d002768:	50a00024 	beqzl	a1,9d0027fc <core_list_mergesort+0x108>
9d00276c:	8e100000 	lw	s0,0(s0)
9d002770:	10be001c 	beq	a1,s8,9d0027e4 <core_list_mergesort+0xf0>
9d002774:	24060002 	li	a2,2
9d002778:	10a60017 	beq	a1,a2,9d0027d8 <core_list_mergesort+0xe4>
9d00277c:	24070003 	li	a3,3
9d002780:	10a70012 	beq	a1,a3,9d0027cc <core_list_mergesort+0xd8>
9d002784:	24080004 	li	t0,4
9d002788:	10a8000d 	beq	a1,t0,9d0027c0 <core_list_mergesort+0xcc>
9d00278c:	24090005 	li	t1,5
9d002790:	10a90008 	beq	a1,t1,9d0027b4 <core_list_mergesort+0xc0>
9d002794:	240a0006 	li	t2,6
9d002798:	10aa0004 	beq	a1,t2,9d0027ac <core_list_mergesort+0xb8>
9d00279c:	8e100000 	lw	s0,0(s0)
9d0027a0:	1200002e 	beqz	s0,9d00285c <core_list_mergesort+0x168>
9d0027a4:	241e0002 	li	s8,2
9d0027a8:	8e100000 	lw	s0,0(s0)
9d0027ac:	1200002b 	beqz	s0,9d00285c <core_list_mergesort+0x168>
9d0027b0:	27de0001 	addiu	s8,s8,1
9d0027b4:	8e100000 	lw	s0,0(s0)
9d0027b8:	12000028 	beqz	s0,9d00285c <core_list_mergesort+0x168>
9d0027bc:	27de0001 	addiu	s8,s8,1
9d0027c0:	8e100000 	lw	s0,0(s0)
9d0027c4:	12000025 	beqz	s0,9d00285c <core_list_mergesort+0x168>
9d0027c8:	27de0001 	addiu	s8,s8,1
9d0027cc:	8e100000 	lw	s0,0(s0)
9d0027d0:	12000022 	beqz	s0,9d00285c <core_list_mergesort+0x168>
9d0027d4:	27de0001 	addiu	s8,s8,1
9d0027d8:	8e100000 	lw	s0,0(s0)
9d0027dc:	1200001f 	beqz	s0,9d00285c <core_list_mergesort+0x168>
9d0027e0:	27de0001 	addiu	s8,s8,1
9d0027e4:	8e100000 	lw	s0,0(s0)
9d0027e8:	1200001c 	beqz	s0,9d00285c <core_list_mergesort+0x168>
9d0027ec:	27de0001 	addiu	s8,s8,1
9d0027f0:	13d5001a 	beq	s8,s5,9d00285c <core_list_mergesort+0x168>
9d0027f4:	00000000 	nop
9d0027f8:	8e100000 	lw	s0,0(s0)
9d0027fc:	27de0001 	addiu	s8,s8,1
9d002800:	12000016 	beqz	s0,9d00285c <core_list_mergesort+0x168>
9d002804:	03c05821 	move	t3,s8
9d002808:	8e100000 	lw	s0,0(s0)
9d00280c:	12000013 	beqz	s0,9d00285c <core_list_mergesort+0x168>
9d002810:	27de0001 	addiu	s8,s8,1
9d002814:	8e100000 	lw	s0,0(s0)
9d002818:	12000010 	beqz	s0,9d00285c <core_list_mergesort+0x168>
9d00281c:	257e0002 	addiu	s8,t3,2
9d002820:	8e100000 	lw	s0,0(s0)
9d002824:	1200000d 	beqz	s0,9d00285c <core_list_mergesort+0x168>
9d002828:	257e0003 	addiu	s8,t3,3
9d00282c:	8e100000 	lw	s0,0(s0)
9d002830:	1200000a 	beqz	s0,9d00285c <core_list_mergesort+0x168>
9d002834:	257e0004 	addiu	s8,t3,4
9d002838:	8e100000 	lw	s0,0(s0)
9d00283c:	12000007 	beqz	s0,9d00285c <core_list_mergesort+0x168>
9d002840:	257e0005 	addiu	s8,t3,5
9d002844:	8e100000 	lw	s0,0(s0)
9d002848:	12000004 	beqz	s0,9d00285c <core_list_mergesort+0x168>
9d00284c:	257e0006 	addiu	s8,t3,6
9d002850:	8e100000 	lw	s0,0(s0)
9d002854:	1600ffe6 	bnez	s0,9d0027f0 <core_list_mergesort+0xfc>
9d002858:	257e0007 	addiu	s8,t3,7
9d00285c:	13c00013 	beqz	s8,9d0028ac <core_list_mergesort+0x1b8>
9d002860:	02a0b021 	move	s6,s5
9d002864:	12c0001e 	beqz	s6,9d0028e0 <core_list_mergesort+0x1ec>
9d002868:	02e07021 	move	t6,s7
9d00286c:	5200001d 	beqzl	s0,9d0028e4 <core_list_mergesort+0x1f0>
9d002870:	27deffff 	addiu	s8,s8,-1
9d002874:	8ee40004 	lw	a0,4(s7)
9d002878:	8e050004 	lw	a1,4(s0)
9d00287c:	0260f809 	jalr	s3
9d002880:	02403021 	move	a2,s2
9d002884:	18400016 	blez	v0,9d0028e0 <core_list_mergesort+0x1ec>
9d002888:	02e07021 	move	t6,s7
9d00288c:	02007021 	move	t6,s0
9d002890:	26d6ffff 	addiu	s6,s6,-1
9d002894:	12200015 	beqz	s1,9d0028ec <core_list_mergesort+0x1f8>
9d002898:	8e100000 	lw	s0,0(s0)
9d00289c:	ae2e0000 	sw	t6,0(s1)
9d0028a0:	01c08821 	move	s1,t6
9d0028a4:	17c0ffef 	bnez	s8,9d002864 <core_list_mergesort+0x170>
9d0028a8:	00000000 	nop
9d0028ac:	12c00012 	beqz	s6,9d0028f8 <core_list_mergesort+0x204>
9d0028b0:	00000000 	nop
9d0028b4:	1600fff6 	bnez	s0,9d002890 <core_list_mergesort+0x19c>
9d0028b8:	02007021 	move	t6,s0
9d0028bc:	8fac0010 	lw	t4,16(sp)
9d0028c0:	240d0001 	li	t5,1
9d0028c4:	118d0012 	beq	t4,t5,9d002910 <core_list_mergesort+0x21c>
9d0028c8:	ae200000 	sw	zero,0(s1)
9d0028cc:	0280b821 	move	s7,s4
9d0028d0:	16e0ff98 	bnez	s7,9d002734 <core_list_mergesort+0x40>
9d0028d4:	0015a840 	sll	s5,s5,0x1
9d0028d8:	ac000000 	sw	zero,0(zero)
9d0028dc:	00000034 	teq	zero,zero
9d0028e0:	27deffff 	addiu	s8,s8,-1
9d0028e4:	1620ffed 	bnez	s1,9d00289c <core_list_mergesort+0x1a8>
9d0028e8:	8ef70000 	lw	s7,0(s7)
9d0028ec:	01c0a021 	move	s4,t6
9d0028f0:	1000ffec 	b	9d0028a4 <core_list_mergesort+0x1b0>
9d0028f4:	01c08821 	move	s1,t6
9d0028f8:	1600ff91 	bnez	s0,9d002740 <core_list_mergesort+0x4c>
9d0028fc:	0200b821 	move	s7,s0
9d002900:	8fac0010 	lw	t4,16(sp)
9d002904:	240d0001 	li	t5,1
9d002908:	158dfff0 	bne	t4,t5,9d0028cc <core_list_mergesort+0x1d8>
9d00290c:	ae200000 	sw	zero,0(s1)
9d002910:	8fbf003c 	lw	ra,60(sp)
9d002914:	02801021 	move	v0,s4
9d002918:	8fbe0038 	lw	s8,56(sp)
9d00291c:	8fb70034 	lw	s7,52(sp)
9d002920:	8fb60030 	lw	s6,48(sp)
9d002924:	8fb5002c 	lw	s5,44(sp)
9d002928:	8fb40028 	lw	s4,40(sp)
9d00292c:	8fb30024 	lw	s3,36(sp)
9d002930:	8fb20020 	lw	s2,32(sp)
9d002934:	8fb1001c 	lw	s1,28(sp)
9d002938:	8fb00018 	lw	s0,24(sp)
9d00293c:	03e00008 	jr	ra
9d002940:	27bd0040 	addiu	sp,sp,64

9d002944 <iterate>:
9d002944:	27bdffd8 	addiu	sp,sp,-40
9d002948:	afb30020 	sw	s3,32(sp)
9d00294c:	8c93001c 	lw	s3,28(a0)
9d002950:	afb00014 	sw	s0,20(sp)
9d002954:	afbf0024 	sw	ra,36(sp)
9d002958:	afb2001c 	sw	s2,28(sp)
9d00295c:	afb10018 	sw	s1,24(sp)
9d002960:	00808021 	move	s0,a0
9d002964:	a4800038 	sh	zero,56(a0)
9d002968:	a480003a 	sh	zero,58(a0)
9d00296c:	a480003c 	sh	zero,60(a0)
9d002970:	12600046 	beqz	s3,9d002a8c <iterate+0x148>
9d002974:	a480003e 	sh	zero,62(a0)
9d002978:	2662ffff 	addiu	v0,s3,-1
9d00297c:	24050001 	li	a1,1
9d002980:	0f4004fe 	jal	9d0013f8 <core_bench_list>
9d002984:	30520001 	andi	s2,v0,0x1
9d002988:	96050038 	lhu	a1,56(s0)
9d00298c:	00402021 	move	a0,v0
9d002990:	0f401a85 	jal	9d006a14 <crcu16>
9d002994:	24110001 	li	s1,1
9d002998:	a6020038 	sh	v0,56(s0)
9d00299c:	02002021 	move	a0,s0
9d0029a0:	0f4004fe 	jal	9d0013f8 <core_bench_list>
9d0029a4:	2405ffff 	li	a1,-1
9d0029a8:	96050038 	lhu	a1,56(s0)
9d0029ac:	0f401a85 	jal	9d006a14 <crcu16>
9d0029b0:	00402021 	move	a0,v0
9d0029b4:	a6020038 	sh	v0,56(s0)
9d0029b8:	12330034 	beq	s1,s3,9d002a8c <iterate+0x148>
9d0029bc:	a602003a 	sh	v0,58(s0)
9d0029c0:	12400011 	beqz	s2,9d002a08 <iterate+0xc4>
9d0029c4:	02002021 	move	a0,s0
9d0029c8:	0f4004fe 	jal	9d0013f8 <core_bench_list>
9d0029cc:	24050001 	li	a1,1
9d0029d0:	96050038 	lhu	a1,56(s0)
9d0029d4:	00402021 	move	a0,v0
9d0029d8:	0f401a85 	jal	9d006a14 <crcu16>
9d0029dc:	26310001 	addiu	s1,s1,1
9d0029e0:	a6020038 	sh	v0,56(s0)
9d0029e4:	02002021 	move	a0,s0
9d0029e8:	0f4004fe 	jal	9d0013f8 <core_bench_list>
9d0029ec:	2405ffff 	li	a1,-1
9d0029f0:	96050038 	lhu	a1,56(s0)
9d0029f4:	0f401a85 	jal	9d006a14 <crcu16>
9d0029f8:	00402021 	move	a0,v0
9d0029fc:	12330023 	beq	s1,s3,9d002a8c <iterate+0x148>
9d002a00:	a6020038 	sh	v0,56(s0)
9d002a04:	02002021 	move	a0,s0
9d002a08:	0f4004fe 	jal	9d0013f8 <core_bench_list>
9d002a0c:	24050001 	li	a1,1
9d002a10:	96050038 	lhu	a1,56(s0)
9d002a14:	00402021 	move	a0,v0
9d002a18:	0f401a85 	jal	9d006a14 <crcu16>
9d002a1c:	26320001 	addiu	s2,s1,1
9d002a20:	a6020038 	sh	v0,56(s0)
9d002a24:	02002021 	move	a0,s0
9d002a28:	0f4004fe 	jal	9d0013f8 <core_bench_list>
9d002a2c:	2405ffff 	li	a1,-1
9d002a30:	96050038 	lhu	a1,56(s0)
9d002a34:	0f401a85 	jal	9d006a14 <crcu16>
9d002a38:	00402021 	move	a0,v0
9d002a3c:	a6020038 	sh	v0,56(s0)
9d002a40:	02002021 	move	a0,s0
9d002a44:	12200019 	beqz	s1,9d002aac <iterate+0x168>
9d002a48:	24050001 	li	a1,1
9d002a4c:	0f4004fe 	jal	9d0013f8 <core_bench_list>
9d002a50:	26510001 	addiu	s1,s2,1
9d002a54:	96050038 	lhu	a1,56(s0)
9d002a58:	0f401a85 	jal	9d006a14 <crcu16>
9d002a5c:	00402021 	move	a0,v0
9d002a60:	a6020038 	sh	v0,56(s0)
9d002a64:	02002021 	move	a0,s0
9d002a68:	0f4004fe 	jal	9d0013f8 <core_bench_list>
9d002a6c:	2405ffff 	li	a1,-1
9d002a70:	96050038 	lhu	a1,56(s0)
9d002a74:	0f401a85 	jal	9d006a14 <crcu16>
9d002a78:	00402021 	move	a0,v0
9d002a7c:	1240000d 	beqz	s2,9d002ab4 <iterate+0x170>
9d002a80:	a6020038 	sh	v0,56(s0)
9d002a84:	5633ffe0 	bnel	s1,s3,9d002a08 <iterate+0xc4>
9d002a88:	02002021 	move	a0,s0
9d002a8c:	8fbf0024 	lw	ra,36(sp)
9d002a90:	8fb30020 	lw	s3,32(sp)
9d002a94:	8fb2001c 	lw	s2,28(sp)
9d002a98:	8fb10018 	lw	s1,24(sp)
9d002a9c:	8fb00014 	lw	s0,20(sp)
9d002aa0:	00001021 	move	v0,zero
9d002aa4:	03e00008 	jr	ra
9d002aa8:	27bd0028 	addiu	sp,sp,40
9d002aac:	1000ffe7 	b	9d002a4c <iterate+0x108>
9d002ab0:	a602003a 	sh	v0,58(s0)
9d002ab4:	1000fff3 	b	9d002a84 <iterate+0x140>
9d002ab8:	a602003a 	sh	v0,58(s0)

9d002abc <coremain>:
9d002abc:	27bdff70 	addiu	sp,sp,-144
9d002ac0:	27a50058 	addiu	a1,sp,88
9d002ac4:	27a60054 	addiu	a2,sp,84
9d002ac8:	27a40052 	addiu	a0,sp,82
9d002acc:	afbf008c 	sw	ra,140(sp)
9d002ad0:	afbe0088 	sw	s8,136(sp)
9d002ad4:	afb70084 	sw	s7,132(sp)
9d002ad8:	afb60080 	sw	s6,128(sp)
9d002adc:	afb5007c 	sw	s5,124(sp)
9d002ae0:	afb40078 	sw	s4,120(sp)
9d002ae4:	afb30074 	sw	s3,116(sp)
9d002ae8:	afb20070 	sw	s2,112(sp)
9d002aec:	afb1006c 	sw	s1,108(sp)
9d002af0:	afb00068 	sw	s0,104(sp)
9d002af4:	0f4016e5 	jal	9d005b94 <portable_init>
9d002af8:	afa00058 	sw	zero,88(sp)
9d002afc:	0f401a24 	jal	9d006890 <get_seed_32>
9d002b00:	24040001 	li	a0,1
9d002b04:	24040002 	li	a0,2
9d002b08:	0f401a24 	jal	9d006890 <get_seed_32>
9d002b0c:	a7a20010 	sh	v0,16(sp)
9d002b10:	24040003 	li	a0,3
9d002b14:	0f401a24 	jal	9d006890 <get_seed_32>
9d002b18:	a7a20012 	sh	v0,18(sp)
9d002b1c:	24040004 	li	a0,4
9d002b20:	0f401a24 	jal	9d006890 <get_seed_32>
9d002b24:	a7a20014 	sh	v0,20(sp)
9d002b28:	24040005 	li	a0,5
9d002b2c:	0f401a24 	jal	9d006890 <get_seed_32>
9d002b30:	afa2002c 	sw	v0,44(sp)
9d002b34:	10400123 	beqz	v0,9d002fc4 <coremain+0x508>
9d002b38:	00401821 	move	v1,v0
9d002b3c:	30470001 	andi	a3,v0,0x1
9d002b40:	afa20030 	sw	v0,48(sp)
9d002b44:	00e04821 	move	t1,a3
9d002b48:	8fa50010 	lw	a1,16(sp)
9d002b4c:	14a0010a 	bnez	a1,9d002f78 <coremain+0x4bc>
9d002b50:	24040001 	li	a0,1
9d002b54:	87ab0014 	lh	t3,20(sp)
9d002b58:	11600186 	beqz	t3,9d003174 <coremain+0x6b8>
9d002b5c:	240c0066 	li	t4,102
9d002b60:	24ed0001 	addiu	t5,a3,1
9d002b64:	30620002 	andi	v0,v1,0x2
9d002b68:	31aeffff 	andi	t6,t5,0xffff
9d002b6c:	00e2700a 	movz	t6,a3,v0
9d002b70:	25d00001 	addiu	s0,t6,1
9d002b74:	30710004 	andi	s1,v1,0x4
9d002b78:	3212ffff 	andi	s2,s0,0xffff
9d002b7c:	01c09821 	move	s3,t6
9d002b80:	0251980b 	movn	s3,s2,s1
9d002b84:	241407d0 	li	s4,2000
9d002b88:	0293001b 	divu	zero,s4,s3
9d002b8c:	3c158000 	lui	s5,0x8000
9d002b90:	26b6004c 	addiu	s6,s5,76
9d002b94:	0000f821 	move	ra,zero
9d002b98:	afb60018 	sw	s6,24(sp)
9d002b9c:	a7a00050 	sh	zero,80(sp)
9d002ba0:	00002012 	mflo	a0
9d002ba4:	10e00003 	beqz	a3,9d002bb4 <coremain+0xf8>
9d002ba8:	afa40028 	sw	a0,40(sp)
9d002bac:	241f0001 	li	ra,1
9d002bb0:	afb6001c 	sw	s6,28(sp)
9d002bb4:	10400006 	beqz	v0,9d002bd0 <coremain+0x114>
9d002bb8:	73e4c802 	mul	t9,ra,a0
9d002bbc:	8fb80018 	lw	t8,24(sp)
9d002bc0:	27f70001 	addiu	s7,ra,1
9d002bc4:	32ffffff 	andi	ra,s7,0xffff
9d002bc8:	0338f021 	addu	s8,t9,t8
9d002bcc:	afbe0020 	sw	s8,32(sp)
9d002bd0:	12200004 	beqz	s1,9d002be4 <coremain+0x128>
9d002bd4:	73e43802 	mul	a3,ra,a0
9d002bd8:	8fa50018 	lw	a1,24(sp)
9d002bdc:	00e53021 	addu	a2,a3,a1
9d002be0:	afa60024 	sw	a2,36(sp)
9d002be4:	11200006 	beqz	t1,9d002c00 <coremain+0x144>
9d002be8:	8fa5001c 	lw	a1,28(sp)
9d002bec:	0f4007ac 	jal	9d001eb0 <core_list_init>
9d002bf0:	87a60010 	lh	a2,16(sp)
9d002bf4:	8fa30030 	lw	v1,48(sp)
9d002bf8:	afa20034 	sw	v0,52(sp)
9d002bfc:	30620002 	andi	v0,v1,0x2
9d002c00:	544000d4 	bnezl	v0,9d002f54 <coremain+0x498>
9d002c04:	87a30012 	lh	v1,18(sp)
9d002c08:	30640004 	andi	a0,v1,0x4
9d002c0c:	148000cc 	bnez	a0,9d002f40 <coremain+0x484>
9d002c10:	8fa40028 	lw	a0,40(sp)
9d002c14:	8faa002c 	lw	t2,44(sp)
9d002c18:	1140006e 	beqz	t2,9d002dd4 <coremain+0x318>
9d002c1c:	24110001 	li	s1,1
9d002c20:	0f4016d1 	jal	9d005b44 <start_time>
9d002c24:	00000000 	nop
9d002c28:	8fbe002c 	lw	s8,44(sp)
9d002c2c:	a7a00048 	sh	zero,72(sp)
9d002c30:	a7a0004a 	sh	zero,74(sp)
9d002c34:	a7a0004c 	sh	zero,76(sp)
9d002c38:	13c00047 	beqz	s8,9d002d58 <coremain+0x29c>
9d002c3c:	a7a0004e 	sh	zero,78(sp)
9d002c40:	27d8ffff 	addiu	t8,s8,-1
9d002c44:	27a40010 	addiu	a0,sp,16
9d002c48:	24050001 	li	a1,1
9d002c4c:	0f4004fe 	jal	9d0013f8 <core_bench_list>
9d002c50:	33120001 	andi	s2,t8,0x1
9d002c54:	97a50048 	lhu	a1,72(sp)
9d002c58:	00402021 	move	a0,v0
9d002c5c:	0f401a85 	jal	9d006a14 <crcu16>
9d002c60:	24130001 	li	s3,1
9d002c64:	27a40010 	addiu	a0,sp,16
9d002c68:	2405ffff 	li	a1,-1
9d002c6c:	0f4004fe 	jal	9d0013f8 <core_bench_list>
9d002c70:	a7a20048 	sh	v0,72(sp)
9d002c74:	97a50048 	lhu	a1,72(sp)
9d002c78:	0f401a85 	jal	9d006a14 <crcu16>
9d002c7c:	00402021 	move	a0,v0
9d002c80:	a7a20048 	sh	v0,72(sp)
9d002c84:	127e0034 	beq	s3,s8,9d002d58 <coremain+0x29c>
9d002c88:	a7a2004a 	sh	v0,74(sp)
9d002c8c:	12400011 	beqz	s2,9d002cd4 <coremain+0x218>
9d002c90:	27a40010 	addiu	a0,sp,16
9d002c94:	0f4004fe 	jal	9d0013f8 <core_bench_list>
9d002c98:	24050001 	li	a1,1
9d002c9c:	97a50048 	lhu	a1,72(sp)
9d002ca0:	00402021 	move	a0,v0
9d002ca4:	0f401a85 	jal	9d006a14 <crcu16>
9d002ca8:	26730001 	addiu	s3,s3,1
9d002cac:	27a40010 	addiu	a0,sp,16
9d002cb0:	2405ffff 	li	a1,-1
9d002cb4:	0f4004fe 	jal	9d0013f8 <core_bench_list>
9d002cb8:	a7a20048 	sh	v0,72(sp)
9d002cbc:	97a50048 	lhu	a1,72(sp)
9d002cc0:	0f401a85 	jal	9d006a14 <crcu16>
9d002cc4:	00402021 	move	a0,v0
9d002cc8:	127e0023 	beq	s3,s8,9d002d58 <coremain+0x29c>
9d002ccc:	a7a20048 	sh	v0,72(sp)
9d002cd0:	27a40010 	addiu	a0,sp,16
9d002cd4:	0f4004fe 	jal	9d0013f8 <core_bench_list>
9d002cd8:	24050001 	li	a1,1
9d002cdc:	97a50048 	lhu	a1,72(sp)
9d002ce0:	00402021 	move	a0,v0
9d002ce4:	0f401a85 	jal	9d006a14 <crcu16>
9d002ce8:	26710001 	addiu	s1,s3,1
9d002cec:	27a40010 	addiu	a0,sp,16
9d002cf0:	2405ffff 	li	a1,-1
9d002cf4:	0f4004fe 	jal	9d0013f8 <core_bench_list>
9d002cf8:	a7a20048 	sh	v0,72(sp)
9d002cfc:	97a50048 	lhu	a1,72(sp)
9d002d00:	0f401a85 	jal	9d006a14 <crcu16>
9d002d04:	00402021 	move	a0,v0
9d002d08:	a7a20048 	sh	v0,72(sp)
9d002d0c:	27a40010 	addiu	a0,sp,16
9d002d10:	12600297 	beqz	s3,9d003770 <coremain+0xcb4>
9d002d14:	24050001 	li	a1,1
9d002d18:	0f4004fe 	jal	9d0013f8 <core_bench_list>
9d002d1c:	26330001 	addiu	s3,s1,1
9d002d20:	97a50048 	lhu	a1,72(sp)
9d002d24:	0f401a85 	jal	9d006a14 <crcu16>
9d002d28:	00402021 	move	a0,v0
9d002d2c:	27a40010 	addiu	a0,sp,16
9d002d30:	2405ffff 	li	a1,-1
9d002d34:	0f4004fe 	jal	9d0013f8 <core_bench_list>
9d002d38:	a7a20048 	sh	v0,72(sp)
9d002d3c:	97a50048 	lhu	a1,72(sp)
9d002d40:	0f401a85 	jal	9d006a14 <crcu16>
9d002d44:	00402021 	move	a0,v0
9d002d48:	12200287 	beqz	s1,9d003768 <coremain+0xcac>
9d002d4c:	a7a20048 	sh	v0,72(sp)
9d002d50:	167effe0 	bne	s3,s8,9d002cd4 <coremain+0x218>
9d002d54:	27a40010 	addiu	a0,sp,16
9d002d58:	0f4016d5 	jal	9d005b54 <stop_time>
9d002d5c:	00000000 	nop
9d002d60:	0f4016d9 	jal	9d005b64 <get_time>
9d002d64:	00000000 	nop
9d002d68:	87a40010 	lh	a0,16(sp)
9d002d6c:	00002821 	move	a1,zero
9d002d70:	0f401c08 	jal	9d007020 <crc16>
9d002d74:	0040b021 	move	s6,v0
9d002d78:	87a40012 	lh	a0,18(sp)
9d002d7c:	0f401c08 	jal	9d007020 <crc16>
9d002d80:	00402821 	move	a1,v0
9d002d84:	87a40014 	lh	a0,20(sp)
9d002d88:	0f401c08 	jal	9d007020 <crc16>
9d002d8c:	00402821 	move	a1,v0
9d002d90:	87a40028 	lh	a0,40(sp)
9d002d94:	0f401c08 	jal	9d007020 <crc16>
9d002d98:	00402821 	move	a1,v0
9d002d9c:	24197b05 	li	t9,31493
9d002da0:	10590268 	beq	v0,t9,9d003744 <coremain+0xc88>
9d002da4:	0040b821 	move	s7,v0
9d002da8:	2c5f7b06 	sltiu	ra,v0,31494
9d002dac:	13e0008b 	beqz	ra,9d002fdc <coremain+0x520>
9d002db0:	240518f2 	li	a1,6386
9d002db4:	1045025e 	beq	v0,a1,9d003730 <coremain+0xc74>
9d002db8:	24074eaf 	li	a3,20143
9d002dbc:	144700f1 	bne	v0,a3,9d003184 <coremain+0x6c8>
9d002dc0:	3c069d01 	lui	a2,0x9d01
9d002dc4:	0f40347e 	jal	9d00d1f8 <printf>
9d002dc8:	24c4ffe4 	addiu	a0,a2,-28
9d002dcc:	1000008c 	b	9d003000 <coremain+0x544>
9d002dd0:	24090002 	li	t1,2
9d002dd4:	00115840 	sll	t3,s1,0x1
9d002dd8:	001160c0 	sll	t4,s1,0x3
9d002ddc:	016c6821 	addu	t5,t3,t4
9d002de0:	0f4016d1 	jal	9d005b44 <start_time>
9d002de4:	afad002c 	sw	t5,44(sp)
9d002de8:	8fb2002c 	lw	s2,44(sp)
9d002dec:	a7a00048 	sh	zero,72(sp)
9d002df0:	a7a0004a 	sh	zero,74(sp)
9d002df4:	a7a0004c 	sh	zero,76(sp)
9d002df8:	12400047 	beqz	s2,9d002f18 <coremain+0x45c>
9d002dfc:	a7a0004e 	sh	zero,78(sp)
9d002e00:	264effff 	addiu	t6,s2,-1
9d002e04:	27a40010 	addiu	a0,sp,16
9d002e08:	24050001 	li	a1,1
9d002e0c:	0f4004fe 	jal	9d0013f8 <core_bench_list>
9d002e10:	31d10001 	andi	s1,t6,0x1
9d002e14:	97a50048 	lhu	a1,72(sp)
9d002e18:	00402021 	move	a0,v0
9d002e1c:	0f401a85 	jal	9d006a14 <crcu16>
9d002e20:	24100001 	li	s0,1
9d002e24:	27a40010 	addiu	a0,sp,16
9d002e28:	2405ffff 	li	a1,-1
9d002e2c:	0f4004fe 	jal	9d0013f8 <core_bench_list>
9d002e30:	a7a20048 	sh	v0,72(sp)
9d002e34:	97a50048 	lhu	a1,72(sp)
9d002e38:	0f401a85 	jal	9d006a14 <crcu16>
9d002e3c:	00402021 	move	a0,v0
9d002e40:	a7a20048 	sh	v0,72(sp)
9d002e44:	12120034 	beq	s0,s2,9d002f18 <coremain+0x45c>
9d002e48:	a7a2004a 	sh	v0,74(sp)
9d002e4c:	12200011 	beqz	s1,9d002e94 <coremain+0x3d8>
9d002e50:	27a40010 	addiu	a0,sp,16
9d002e54:	0f4004fe 	jal	9d0013f8 <core_bench_list>
9d002e58:	24050001 	li	a1,1
9d002e5c:	97a50048 	lhu	a1,72(sp)
9d002e60:	00402021 	move	a0,v0
9d002e64:	0f401a85 	jal	9d006a14 <crcu16>
9d002e68:	26100001 	addiu	s0,s0,1
9d002e6c:	27a40010 	addiu	a0,sp,16
9d002e70:	2405ffff 	li	a1,-1
9d002e74:	0f4004fe 	jal	9d0013f8 <core_bench_list>
9d002e78:	a7a20048 	sh	v0,72(sp)
9d002e7c:	97a50048 	lhu	a1,72(sp)
9d002e80:	0f401a85 	jal	9d006a14 <crcu16>
9d002e84:	00402021 	move	a0,v0
9d002e88:	12120023 	beq	s0,s2,9d002f18 <coremain+0x45c>
9d002e8c:	a7a20048 	sh	v0,72(sp)
9d002e90:	27a40010 	addiu	a0,sp,16
9d002e94:	0f4004fe 	jal	9d0013f8 <core_bench_list>
9d002e98:	24050001 	li	a1,1
9d002e9c:	97a50048 	lhu	a1,72(sp)
9d002ea0:	00402021 	move	a0,v0
9d002ea4:	0f401a85 	jal	9d006a14 <crcu16>
9d002ea8:	26130001 	addiu	s3,s0,1
9d002eac:	27a40010 	addiu	a0,sp,16
9d002eb0:	2405ffff 	li	a1,-1
9d002eb4:	0f4004fe 	jal	9d0013f8 <core_bench_list>
9d002eb8:	a7a20048 	sh	v0,72(sp)
9d002ebc:	97a50048 	lhu	a1,72(sp)
9d002ec0:	0f401a85 	jal	9d006a14 <crcu16>
9d002ec4:	00402021 	move	a0,v0
9d002ec8:	a7a20048 	sh	v0,72(sp)
9d002ecc:	27a40010 	addiu	a0,sp,16
9d002ed0:	12000221 	beqz	s0,9d003758 <coremain+0xc9c>
9d002ed4:	24050001 	li	a1,1
9d002ed8:	0f4004fe 	jal	9d0013f8 <core_bench_list>
9d002edc:	26700001 	addiu	s0,s3,1
9d002ee0:	97a50048 	lhu	a1,72(sp)
9d002ee4:	0f401a85 	jal	9d006a14 <crcu16>
9d002ee8:	00402021 	move	a0,v0
9d002eec:	27a40010 	addiu	a0,sp,16
9d002ef0:	2405ffff 	li	a1,-1
9d002ef4:	0f4004fe 	jal	9d0013f8 <core_bench_list>
9d002ef8:	a7a20048 	sh	v0,72(sp)
9d002efc:	97a50048 	lhu	a1,72(sp)
9d002f00:	0f401a85 	jal	9d006a14 <crcu16>
9d002f04:	00402021 	move	a0,v0
9d002f08:	12600215 	beqz	s3,9d003760 <coremain+0xca4>
9d002f0c:	a7a20048 	sh	v0,72(sp)
9d002f10:	1612ffe0 	bne	s0,s2,9d002e94 <coremain+0x3d8>
9d002f14:	27a40010 	addiu	a0,sp,16
9d002f18:	0f4016d5 	jal	9d005b54 <stop_time>
9d002f1c:	00000000 	nop
9d002f20:	0f4016d9 	jal	9d005b64 <get_time>
9d002f24:	00000000 	nop
9d002f28:	0f4016df 	jal	9d005b7c <time_in_secs>
9d002f2c:	00402021 	move	a0,v0
9d002f30:	1440001c 	bnez	v0,9d002fa4 <coremain+0x4e8>
9d002f34:	8fb1002c 	lw	s1,44(sp)
9d002f38:	1000ffa7 	b	9d002dd8 <coremain+0x31c>
9d002f3c:	00115840 	sll	t3,s1,0x1
9d002f40:	87a50010 	lh	a1,16(sp)
9d002f44:	0f401869 	jal	9d0061a4 <core_init_state>
9d002f48:	8fa60024 	lw	a2,36(sp)
9d002f4c:	1000ff32 	b	9d002c18 <coremain+0x15c>
9d002f50:	8faa002c 	lw	t2,44(sp)
9d002f54:	87a90010 	lh	t1,16(sp)
9d002f58:	8fa40028 	lw	a0,40(sp)
9d002f5c:	8fa50020 	lw	a1,32(sp)
9d002f60:	00034400 	sll	t0,v1,0x10
9d002f64:	01093025 	or	a2,t0,t1
9d002f68:	0f401306 	jal	9d004c18 <core_init_matrix>
9d002f6c:	27a70038 	addiu	a3,sp,56
9d002f70:	1000ff25 	b	9d002c08 <coremain+0x14c>
9d002f74:	8fa30030 	lw	v1,48(sp)
9d002f78:	14a4fefa 	bne	a1,a0,9d002b64 <coremain+0xa8>
9d002f7c:	24ed0001 	addiu	t5,a3,1
9d002f80:	87a60014 	lh	a2,20(sp)
9d002f84:	14c0fef8 	bnez	a2,9d002b68 <coremain+0xac>
9d002f88:	30620002 	andi	v0,v1,0x2
9d002f8c:	24083415 	li	t0,13333
9d002f90:	240a0066 	li	t2,102
9d002f94:	a7a80010 	sh	t0,16(sp)
9d002f98:	a7a80012 	sh	t0,18(sp)
9d002f9c:	1000fef1 	b	9d002b64 <coremain+0xa8>
9d002fa0:	a7aa0014 	sh	t2,20(sp)
9d002fa4:	240f000a 	li	t7,10
9d002fa8:	01e2001b 	divu	zero,t7,v0
9d002fac:	8fb6002c 	lw	s6,44(sp)
9d002fb0:	0000a012 	mflo	s4
9d002fb4:	26950001 	addiu	s5,s4,1
9d002fb8:	72d5b802 	mul	s7,s6,s5
9d002fbc:	1000ff18 	b	9d002c20 <coremain+0x164>
9d002fc0:	afb7002c 	sw	s7,44(sp)
9d002fc4:	24020007 	li	v0,7
9d002fc8:	24090001 	li	t1,1
9d002fcc:	24030007 	li	v1,7
9d002fd0:	afa20030 	sw	v0,48(sp)
9d002fd4:	1000fedc 	b	9d002b48 <coremain+0x8c>
9d002fd8:	24070001 	li	a3,1
9d002fdc:	34088a02 	li	t0,0x8a02
9d002fe0:	104801ce 	beq	v0,t0,9d00371c <coremain+0xc60>
9d002fe4:	3403e9f5 	li	v1,0xe9f5
9d002fe8:	54430067 	bnel	v0,v1,9d003188 <coremain+0x6cc>
9d002fec:	3410ffff 	li	s0,0xffff
9d002ff0:	3c049d01 	lui	a0,0x9d01
9d002ff4:	0f40347e 	jal	9d00d1f8 <printf>
9d002ff8:	24840018 	addiu	a0,a0,24
9d002ffc:	24090003 	li	t1,3
9d003000:	3c128000 	lui	s2,0x8000
9d003004:	8e4c000c 	lw	t4,12(s2)
9d003008:	11800060 	beqz	t4,9d00318c <coremain+0x6d0>
9d00300c:	00008021 	move	s0,zero
9d003010:	3c0f9d01 	lui	t7,0x9d01
9d003014:	00099840 	sll	s3,t1,0x1
9d003018:	3c0d9d01 	lui	t5,0x9d01
9d00301c:	25f4fea4 	addiu	s4,t7,-348
9d003020:	25aefeb0 	addiu	t6,t5,-336
9d003024:	0274c021 	addu	t8,s3,s4
9d003028:	0000f021 	move	s8,zero
9d00302c:	00008021 	move	s0,zero
9d003030:	026ea821 	addu	s5,s3,t6
9d003034:	10000016 	b	9d003090 <coremain+0x5d4>
9d003038:	afb80064 	sw	t8,100(sp)
9d00303c:	3c079d01 	lui	a3,0x9d01
9d003040:	24e6fe98 	addiu	a2,a3,-360
9d003044:	02661021 	addu	v0,s3,a2
9d003048:	94470000 	lhu	a3,0(v0)
9d00304c:	9626003e 	lhu	a2,62(s1)
9d003050:	10c7003e 	beq	a2,a3,9d00314c <coremain+0x690>
9d003054:	3c099d01 	lui	t1,0x9d01
9d003058:	252400d8 	addiu	a0,t1,216
9d00305c:	0f40347e 	jal	9d00d1f8 <printf>
9d003060:	02002821 	move	a1,s0
9d003064:	96280040 	lhu	t0,64(s1)
9d003068:	8e4a000c 	lw	t2,12(s2)
9d00306c:	26100001 	addiu	s0,s0,1
9d003070:	25030001 	addiu	v1,t0,1
9d003074:	7c032620 	seh	a0,v1
9d003078:	3210ffff 	andi	s0,s0,0xffff
9d00307c:	009ef021 	addu	s8,a0,s8
9d003080:	020a582b 	sltu	t3,s0,t2
9d003084:	a6240040 	sh	a0,64(s1)
9d003088:	11600038 	beqz	t3,9d00316c <coremain+0x6b0>
9d00308c:	7c1ef620 	seh	s8,s8
9d003090:	00108880 	sll	s1,s0,0x2
9d003094:	0010a180 	sll	s4,s0,0x6
9d003098:	0234c821 	addu	t9,s1,s4
9d00309c:	27bf0010 	addiu	ra,sp,16
9d0030a0:	03f92821 	addu	a1,ra,t9
9d0030a4:	8ca70020 	lw	a3,32(a1)
9d0030a8:	30e60001 	andi	a2,a3,0x1
9d0030ac:	10c0000d 	beqz	a2,9d0030e4 <coremain+0x628>
9d0030b0:	a4a00040 	sh	zero,64(a1)
9d0030b4:	94a6003a 	lhu	a2,58(a1)
9d0030b8:	96a70000 	lhu	a3,0(s5)
9d0030bc:	10c70009 	beq	a2,a3,9d0030e4 <coremain+0x628>
9d0030c0:	afa50060 	sw	a1,96(sp)
9d0030c4:	3c029d01 	lui	v0,0x9d01
9d0030c8:	24440074 	addiu	a0,v0,116
9d0030cc:	0f40347e 	jal	9d00d1f8 <printf>
9d0030d0:	02002821 	move	a1,s0
9d0030d4:	8fa90060 	lw	t1,96(sp)
9d0030d8:	95280040 	lhu	t0,64(t1)
9d0030dc:	25030001 	addiu	v1,t0,1
9d0030e0:	a5230040 	sh	v1,64(t1)
9d0030e4:	02342021 	addu	a0,s1,s4
9d0030e8:	27aa0010 	addiu	t2,sp,16
9d0030ec:	01445821 	addu	t3,t2,a0
9d0030f0:	8d790020 	lw	t9,32(t3)
9d0030f4:	332c0002 	andi	t4,t9,0x2
9d0030f8:	51800010 	beqzl	t4,9d00313c <coremain+0x680>
9d0030fc:	02348821 	addu	s1,s1,s4
9d003100:	8fad0064 	lw	t5,100(sp)
9d003104:	9566003c 	lhu	a2,60(t3)
9d003108:	95a70000 	lhu	a3,0(t5)
9d00310c:	10c7000a 	beq	a2,a3,9d003138 <coremain+0x67c>
9d003110:	afab0060 	sw	t3,96(sp)
9d003114:	3c0e9d01 	lui	t6,0x9d01
9d003118:	02002821 	move	a1,s0
9d00311c:	0f40347e 	jal	9d00d1f8 <printf>
9d003120:	25c400a4 	addiu	a0,t6,164
9d003124:	8faf0060 	lw	t7,96(sp)
9d003128:	95f80040 	lhu	t8,64(t7)
9d00312c:	8df90020 	lw	t9,32(t7)
9d003130:	27050001 	addiu	a1,t8,1
9d003134:	a5e50040 	sh	a1,64(t7)
9d003138:	02348821 	addu	s1,s1,s4
9d00313c:	333f0004 	andi	ra,t9,0x4
9d003140:	27b40010 	addiu	s4,sp,16
9d003144:	17e0ffbd 	bnez	ra,9d00303c <coremain+0x580>
9d003148:	02918821 	addu	s1,s4,s1
9d00314c:	86240040 	lh	a0,64(s1)
9d003150:	8e4a000c 	lw	t2,12(s2)
9d003154:	26100001 	addiu	s0,s0,1
9d003158:	3210ffff 	andi	s0,s0,0xffff
9d00315c:	009ef021 	addu	s8,a0,s8
9d003160:	020a582b 	sltu	t3,s0,t2
9d003164:	1560ffca 	bnez	t3,9d003090 <coremain+0x5d4>
9d003168:	7c1ef620 	seh	s8,s8
9d00316c:	10000007 	b	9d00318c <coremain+0x6d0>
9d003170:	33d0ffff 	andi	s0,s8,0xffff
9d003174:	a7a00010 	sh	zero,16(sp)
9d003178:	a7a00012 	sh	zero,18(sp)
9d00317c:	1000fe78 	b	9d002b60 <coremain+0xa4>
9d003180:	a7ac0014 	sh	t4,20(sp)
9d003184:	3410ffff 	li	s0,0xffff
9d003188:	3c128000 	lui	s2,0x8000
9d00318c:	0f401c8a 	jal	9d007228 <check_data_types>
9d003190:	3c159d01 	lui	s5,0x9d01
9d003194:	8fa50028 	lw	a1,40(sp)
9d003198:	26a40108 	addiu	a0,s5,264
9d00319c:	0f40347e 	jal	9d00d1f8 <printf>
9d0031a0:	02029821 	addu	s3,s0,v0
9d0031a4:	3c0c9d01 	lui	t4,0x9d01
9d0031a8:	25840120 	addiu	a0,t4,288
9d0031ac:	0f40347e 	jal	9d00d1f8 <printf>
9d0031b0:	02c02821 	move	a1,s6
9d0031b4:	0f4016df 	jal	9d005b7c <time_in_secs>
9d0031b8:	02c02021 	move	a0,s6
9d0031bc:	3c0d9d01 	lui	t5,0x9d01
9d0031c0:	25a40138 	addiu	a0,t5,312
9d0031c4:	0f40347e 	jal	9d00d1f8 <printf>
9d0031c8:	00402821 	move	a1,v0
9d0031cc:	02c02021 	move	a0,s6
9d0031d0:	0f4016df 	jal	9d005b7c <time_in_secs>
9d0031d4:	3271ffff 	andi	s1,s3,0xffff
9d0031d8:	1440013c 	bnez	v0,9d0036cc <coremain+0xc10>
9d0031dc:	8e4e000c 	lw	t6,12(s2)
9d0031e0:	0f4016df 	jal	9d005b7c <time_in_secs>
9d0031e4:	02c02021 	move	a0,s6
9d0031e8:	2c56000a 	sltiu	s6,v0,10
9d0031ec:	16c00133 	bnez	s6,9d0036bc <coremain+0xc00>
9d0031f0:	3c199d01 	lui	t9,0x9d01
9d0031f4:	8fa7002c 	lw	a3,44(sp)
9d0031f8:	8e45000c 	lw	a1,12(s2)
9d0031fc:	3c1f9d01 	lui	ra,0x9d01
9d003200:	27e401a8 	addiu	a0,ra,424
9d003204:	70a72802 	mul	a1,a1,a3
9d003208:	0f40347e 	jal	9d00d1f8 <printf>
9d00320c:	7c11f620 	seh	s8,s1
9d003210:	3c069d01 	lui	a2,0x9d01
9d003214:	3c029d01 	lui	v0,0x9d01
9d003218:	24c401c0 	addiu	a0,a2,448
9d00321c:	0f40347e 	jal	9d00d1f8 <printf>
9d003220:	244501d8 	addiu	a1,v0,472
9d003224:	3c099d01 	lui	t1,0x9d01
9d003228:	3c089d01 	lui	t0,0x9d01
9d00322c:	252401e4 	addiu	a0,t1,484
9d003230:	0f40347e 	jal	9d00d1f8 <printf>
9d003234:	250501fc 	addiu	a1,t0,508
9d003238:	3c039d01 	lui	v1,0x9d01
9d00323c:	3c0a9d01 	lui	t2,0x9d01
9d003240:	24640228 	addiu	a0,v1,552
9d003244:	0f40347e 	jal	9d00d1f8 <printf>
9d003248:	25450240 	addiu	a1,t2,576
9d00324c:	3c049d01 	lui	a0,0x9d01
9d003250:	02e02821 	move	a1,s7
9d003254:	0f40347e 	jal	9d00d1f8 <printf>
9d003258:	24840248 	addiu	a0,a0,584
9d00325c:	8fb50030 	lw	s5,48(sp)
9d003260:	32b70001 	andi	s7,s5,0x1
9d003264:	56e000d6 	bnezl	s7,9d0035c0 <coremain+0xb04>
9d003268:	8e50000c 	lw	s0,12(s2)
9d00326c:	8e42000c 	lw	v0,12(s2)
9d003270:	32bf0002 	andi	ra,s5,0x2
9d003274:	13e00040 	beqz	ra,9d003378 <coremain+0x8bc>
9d003278:	32bf0004 	andi	ra,s5,0x4
9d00327c:	104000ba 	beqz	v0,9d003568 <coremain+0xaac>
9d003280:	0000b021 	move	s6,zero
9d003284:	3c139d01 	lui	s3,0x9d01
9d003288:	26750280 	addiu	s5,s3,640
9d00328c:	00162880 	sll	a1,s6,0x2
9d003290:	00163980 	sll	a3,s6,0x6
9d003294:	00a73021 	addu	a2,a1,a3
9d003298:	27a90010 	addiu	t1,sp,16
9d00329c:	01264021 	addu	t0,t1,a2
9d0032a0:	9506003c 	lhu	a2,60(t0)
9d0032a4:	02c02821 	move	a1,s6
9d0032a8:	0f40347e 	jal	9d00d1f8 <printf>
9d0032ac:	02a02021 	move	a0,s5
9d0032b0:	8e42000c 	lw	v0,12(s2)
9d0032b4:	26c30001 	addiu	v1,s6,1
9d0032b8:	306affff 	andi	t2,v1,0xffff
9d0032bc:	000a8080 	sll	s0,t2,0x2
9d0032c0:	000a5980 	sll	t3,t2,0x6
9d0032c4:	020b6021 	addu	t4,s0,t3
9d0032c8:	27ad0010 	addiu	t5,sp,16
9d0032cc:	0142782b 	sltu	t7,t2,v0
9d0032d0:	02a02021 	move	a0,s5
9d0032d4:	01ac7021 	addu	t6,t5,t4
9d0032d8:	01402821 	move	a1,t2
9d0032dc:	11e00024 	beqz	t7,9d003370 <coremain+0x8b4>
9d0032e0:	25540001 	addiu	s4,t2,1
9d0032e4:	95c6003c 	lhu	a2,60(t6)
9d0032e8:	0f40347e 	jal	9d00d1f8 <printf>
9d0032ec:	27b70010 	addiu	s7,sp,16
9d0032f0:	8e42000c 	lw	v0,12(s2)
9d0032f4:	3298ffff 	andi	t8,s4,0xffff
9d0032f8:	0018b080 	sll	s6,t8,0x2
9d0032fc:	00188980 	sll	s1,t8,0x6
9d003300:	02d1c821 	addu	t9,s6,s1
9d003304:	0302382b 	sltu	a3,t8,v0
9d003308:	02a02021 	move	a0,s5
9d00330c:	02f99821 	addu	s3,s7,t9
9d003310:	03002821 	move	a1,t8
9d003314:	10e00016 	beqz	a3,9d003370 <coremain+0x8b4>
9d003318:	27100001 	addiu	s0,t8,1
9d00331c:	0f40347e 	jal	9d00d1f8 <printf>
9d003320:	9666003c 	lhu	a2,60(s3)
9d003324:	8e42000c 	lw	v0,12(s2)
9d003328:	3209ffff 	andi	t1,s0,0xffff
9d00332c:	00092880 	sll	a1,t1,0x2
9d003330:	00093180 	sll	a2,t1,0x6
9d003334:	00a64021 	addu	t0,a1,a2
9d003338:	27a30010 	addiu	v1,sp,16
9d00333c:	0122582b 	sltu	t3,t1,v0
9d003340:	02a02021 	move	a0,s5
9d003344:	00685021 	addu	t2,v1,t0
9d003348:	01202821 	move	a1,t1
9d00334c:	11600008 	beqz	t3,9d003370 <coremain+0x8b4>
9d003350:	25340001 	addiu	s4,t1,1
9d003354:	9546003c 	lhu	a2,60(t2)
9d003358:	0f40347e 	jal	9d00d1f8 <printf>
9d00335c:	3296ffff 	andi	s6,s4,0xffff
9d003360:	8e42000c 	lw	v0,12(s2)
9d003364:	02c2202b 	sltu	a0,s6,v0
9d003368:	1480ffc9 	bnez	a0,9d003290 <coremain+0x7d4>
9d00336c:	00162880 	sll	a1,s6,0x2
9d003370:	8fb50030 	lw	s5,48(sp)
9d003374:	32bf0004 	andi	ra,s5,0x4
9d003378:	13e0003e 	beqz	ra,9d003474 <coremain+0x9b8>
9d00337c:	00000000 	nop
9d003380:	10400079 	beqz	v0,9d003568 <coremain+0xaac>
9d003384:	3c029d01 	lui	v0,0x9d01
9d003388:	0000a021 	move	s4,zero
9d00338c:	2451029c 	addiu	s1,v0,668
9d003390:	00146080 	sll	t4,s4,0x2
9d003394:	00146980 	sll	t5,s4,0x6
9d003398:	018d7021 	addu	t6,t4,t5
9d00339c:	27af0010 	addiu	t7,sp,16
9d0033a0:	01eec021 	addu	t8,t7,t6
9d0033a4:	9706003e 	lhu	a2,62(t8)
9d0033a8:	02802821 	move	a1,s4
9d0033ac:	0f40347e 	jal	9d00d1f8 <printf>
9d0033b0:	02202021 	move	a0,s1
9d0033b4:	26990001 	addiu	t9,s4,1
9d0033b8:	8e42000c 	lw	v0,12(s2)
9d0033bc:	3337ffff 	andi	s7,t9,0xffff
9d0033c0:	00179880 	sll	s3,s7,0x2
9d0033c4:	00178180 	sll	s0,s7,0x6
9d0033c8:	02703821 	addu	a3,s3,s0
9d0033cc:	27a90010 	addiu	t1,sp,16
9d0033d0:	02e2402b 	sltu	t0,s7,v0
9d0033d4:	02202021 	move	a0,s1
9d0033d8:	01273021 	addu	a2,t1,a3
9d0033dc:	02e02821 	move	a1,s7
9d0033e0:	11000024 	beqz	t0,9d003474 <coremain+0x9b8>
9d0033e4:	26f40001 	addiu	s4,s7,1
9d0033e8:	94c6003e 	lhu	a2,62(a2)
9d0033ec:	0f40347e 	jal	9d00d1f8 <printf>
9d0033f0:	27b60010 	addiu	s6,sp,16
9d0033f4:	8e42000c 	lw	v0,12(s2)
9d0033f8:	3283ffff 	andi	v1,s4,0xffff
9d0033fc:	00032880 	sll	a1,v1,0x2
9d003400:	00035180 	sll	t2,v1,0x6
9d003404:	00aa5821 	addu	t3,a1,t2
9d003408:	0062602b 	sltu	t4,v1,v0
9d00340c:	02202021 	move	a0,s1
9d003410:	02cba821 	addu	s5,s6,t3
9d003414:	00602821 	move	a1,v1
9d003418:	11800016 	beqz	t4,9d003474 <coremain+0x9b8>
9d00341c:	24770001 	addiu	s7,v1,1
9d003420:	0f40347e 	jal	9d00d1f8 <printf>
9d003424:	96a6003e 	lhu	a2,62(s5)
9d003428:	8e42000c 	lw	v0,12(s2)
9d00342c:	32edffff 	andi	t5,s7,0xffff
9d003430:	000d7080 	sll	t6,t5,0x2
9d003434:	000d7980 	sll	t7,t5,0x6
9d003438:	01cfc021 	addu	t8,t6,t7
9d00343c:	27b90010 	addiu	t9,sp,16
9d003440:	01a2382b 	sltu	a3,t5,v0
9d003444:	02202021 	move	a0,s1
9d003448:	03389821 	addu	s3,t9,t8
9d00344c:	01a02821 	move	a1,t5
9d003450:	10e00008 	beqz	a3,9d003474 <coremain+0x9b8>
9d003454:	25b00001 	addiu	s0,t5,1
9d003458:	9666003e 	lhu	a2,62(s3)
9d00345c:	0f40347e 	jal	9d00d1f8 <printf>
9d003460:	3214ffff 	andi	s4,s0,0xffff
9d003464:	8e42000c 	lw	v0,12(s2)
9d003468:	0282202b 	sltu	a0,s4,v0
9d00346c:	1480ffc9 	bnez	a0,9d003394 <coremain+0x8d8>
9d003470:	00146080 	sll	t4,s4,0x2
9d003474:	1040003c 	beqz	v0,9d003568 <coremain+0xaac>
9d003478:	3c1f9d01 	lui	ra,0x9d01
9d00347c:	00009821 	move	s3,zero
9d003480:	27f102b8 	addiu	s1,ra,696
9d003484:	00131080 	sll	v0,s3,0x2
9d003488:	00134980 	sll	t1,s3,0x6
9d00348c:	00493021 	addu	a2,v0,t1
9d003490:	27a80010 	addiu	t0,sp,16
9d003494:	01061821 	addu	v1,t0,a2
9d003498:	94660038 	lhu	a2,56(v1)
9d00349c:	02602821 	move	a1,s3
9d0034a0:	0f40347e 	jal	9d00d1f8 <printf>
9d0034a4:	02202021 	move	a0,s1
9d0034a8:	26650001 	addiu	a1,s3,1
9d0034ac:	8e4a000c 	lw	t2,12(s2)
9d0034b0:	30abffff 	andi	t3,a1,0xffff
9d0034b4:	000bb080 	sll	s6,t3,0x2
9d0034b8:	000ba980 	sll	s5,t3,0x6
9d0034bc:	02d5b821 	addu	s7,s6,s5
9d0034c0:	27ac0010 	addiu	t4,sp,16
9d0034c4:	016a702b 	sltu	t6,t3,t2
9d0034c8:	02202021 	move	a0,s1
9d0034cc:	01976821 	addu	t5,t4,s7
9d0034d0:	01602821 	move	a1,t3
9d0034d4:	11c00024 	beqz	t6,9d003568 <coremain+0xaac>
9d0034d8:	25730001 	addiu	s3,t3,1
9d0034dc:	95a60038 	lhu	a2,56(t5)
9d0034e0:	0f40347e 	jal	9d00d1f8 <printf>
9d0034e4:	27b40010 	addiu	s4,sp,16
9d0034e8:	8e4f000c 	lw	t7,12(s2)
9d0034ec:	3278ffff 	andi	t8,s3,0xffff
9d0034f0:	0018c880 	sll	t9,t8,0x2
9d0034f4:	00188180 	sll	s0,t8,0x6
9d0034f8:	03303821 	addu	a3,t9,s0
9d0034fc:	030f102b 	sltu	v0,t8,t7
9d003500:	02202021 	move	a0,s1
9d003504:	02874821 	addu	t1,s4,a3
9d003508:	03002821 	move	a1,t8
9d00350c:	10400016 	beqz	v0,9d003568 <coremain+0xaac>
9d003510:	27160001 	addiu	s6,t8,1
9d003514:	0f40347e 	jal	9d00d1f8 <printf>
9d003518:	95260038 	lhu	a2,56(t1)
9d00351c:	8e46000c 	lw	a2,12(s2)
9d003520:	32c8ffff 	andi	t0,s6,0xffff
9d003524:	00081880 	sll	v1,t0,0x2
9d003528:	00085180 	sll	t2,t0,0x6
9d00352c:	27a50010 	addiu	a1,sp,16
9d003530:	006a5821 	addu	t3,v1,t2
9d003534:	0106602b 	sltu	t4,t0,a2
9d003538:	00aba821 	addu	s5,a1,t3
9d00353c:	02202021 	move	a0,s1
9d003540:	01002821 	move	a1,t0
9d003544:	11800008 	beqz	t4,9d003568 <coremain+0xaac>
9d003548:	25170001 	addiu	s7,t0,1
9d00354c:	96a60038 	lhu	a2,56(s5)
9d003550:	0f40347e 	jal	9d00d1f8 <printf>
9d003554:	32f3ffff 	andi	s3,s7,0xffff
9d003558:	8e44000c 	lw	a0,12(s2)
9d00355c:	0264682b 	sltu	t5,s3,a0
9d003560:	15a0ffc9 	bnez	t5,9d003488 <coremain+0x9cc>
9d003564:	00131080 	sll	v0,s3,0x2
9d003568:	53c00063 	beqzl	s8,9d0036f8 <coremain+0xc3c>
9d00356c:	3c1e9d01 	lui	s8,0x9d01
9d003570:	1bc00065 	blez	s8,9d003708 <coremain+0xc4c>
9d003574:	3c1f9d01 	lui	ra,0x9d01
9d003578:	27e40320 	addiu	a0,ra,800
9d00357c:	0f40347e 	jal	9d00d1f8 <printf>
9d003580:	03c02821 	move	a1,s8
9d003584:	0f4016e8 	jal	9d005ba0 <portable_fini>
9d003588:	27a40052 	addiu	a0,sp,82
9d00358c:	8fbf008c 	lw	ra,140(sp)
9d003590:	8fbe0088 	lw	s8,136(sp)
9d003594:	8fb70084 	lw	s7,132(sp)
9d003598:	8fb60080 	lw	s6,128(sp)
9d00359c:	8fb5007c 	lw	s5,124(sp)
9d0035a0:	8fb40078 	lw	s4,120(sp)
9d0035a4:	8fb30074 	lw	s3,116(sp)
9d0035a8:	8fb20070 	lw	s2,112(sp)
9d0035ac:	8fb1006c 	lw	s1,108(sp)
9d0035b0:	8fb00068 	lw	s0,104(sp)
9d0035b4:	00001021 	move	v0,zero
9d0035b8:	03e00008 	jr	ra
9d0035bc:	27bd0090 	addiu	sp,sp,144
9d0035c0:	1200ffe9 	beqz	s0,9d003568 <coremain+0xaac>
9d0035c4:	3c0b9d01 	lui	t3,0x9d01
9d0035c8:	0000b821 	move	s7,zero
9d0035cc:	25730264 	addiu	s3,t3,612
9d0035d0:	00176180 	sll	t4,s7,0x6
9d0035d4:	0017a880 	sll	s5,s7,0x2
9d0035d8:	02ac6821 	addu	t5,s5,t4
9d0035dc:	27ae0010 	addiu	t6,sp,16
9d0035e0:	01cd7821 	addu	t7,t6,t5
9d0035e4:	95e6003a 	lhu	a2,58(t7)
9d0035e8:	02e02821 	move	a1,s7
9d0035ec:	0f40347e 	jal	9d00d1f8 <printf>
9d0035f0:	02602021 	move	a0,s3
9d0035f4:	26f40001 	addiu	s4,s7,1
9d0035f8:	8e42000c 	lw	v0,12(s2)
9d0035fc:	3298ffff 	andi	t8,s4,0xffff
9d003600:	0018b080 	sll	s6,t8,0x2
9d003604:	0018c980 	sll	t9,t8,0x6
9d003608:	27a50010 	addiu	a1,sp,16
9d00360c:	02d98821 	addu	s1,s6,t9
9d003610:	0302302b 	sltu	a2,t8,v0
9d003614:	00b13821 	addu	a3,a1,s1
9d003618:	02602021 	move	a0,s3
9d00361c:	03002821 	move	a1,t8
9d003620:	10c00024 	beqz	a2,9d0036b4 <coremain+0xbf8>
9d003624:	27170001 	addiu	s7,t8,1
9d003628:	94e6003a 	lhu	a2,58(a3)
9d00362c:	0f40347e 	jal	9d00d1f8 <printf>
9d003630:	27b00010 	addiu	s0,sp,16
9d003634:	8e42000c 	lw	v0,12(s2)
9d003638:	32e9ffff 	andi	t1,s7,0xffff
9d00363c:	00094080 	sll	t0,t1,0x2
9d003640:	00091980 	sll	v1,t1,0x6
9d003644:	01035021 	addu	t2,t0,v1
9d003648:	0122602b 	sltu	t4,t1,v0
9d00364c:	02602021 	move	a0,s3
9d003650:	020a5821 	addu	t3,s0,t2
9d003654:	01202821 	move	a1,t1
9d003658:	11800016 	beqz	t4,9d0036b4 <coremain+0xbf8>
9d00365c:	25350001 	addiu	s5,t1,1
9d003660:	0f40347e 	jal	9d00d1f8 <printf>
9d003664:	9566003a 	lhu	a2,58(t3)
9d003668:	8e42000c 	lw	v0,12(s2)
9d00366c:	32adffff 	andi	t5,s5,0xffff
9d003670:	000d7080 	sll	t6,t5,0x2
9d003674:	000d7980 	sll	t7,t5,0x6
9d003678:	01cfa021 	addu	s4,t6,t7
9d00367c:	27b80010 	addiu	t8,sp,16
9d003680:	01a2c82b 	sltu	t9,t5,v0
9d003684:	02602021 	move	a0,s3
9d003688:	0314b021 	addu	s6,t8,s4
9d00368c:	01a02821 	move	a1,t5
9d003690:	13200008 	beqz	t9,9d0036b4 <coremain+0xbf8>
9d003694:	25b10001 	addiu	s1,t5,1
9d003698:	96c6003a 	lhu	a2,58(s6)
9d00369c:	0f40347e 	jal	9d00d1f8 <printf>
9d0036a0:	3237ffff 	andi	s7,s1,0xffff
9d0036a4:	8e42000c 	lw	v0,12(s2)
9d0036a8:	02e2202b 	sltu	a0,s7,v0
9d0036ac:	1480ffc9 	bnez	a0,9d0035d4 <coremain+0xb18>
9d0036b0:	00176180 	sll	t4,s7,0x6
9d0036b4:	1000feee 	b	9d003270 <coremain+0x7b4>
9d0036b8:	8fb50030 	lw	s5,48(sp)
9d0036bc:	0f40347e 	jal	9d00d1f8 <printf>
9d0036c0:	27240168 	addiu	a0,t9,360
9d0036c4:	1000fecb 	b	9d0031f4 <coremain+0x738>
9d0036c8:	26310001 	addiu	s1,s1,1
9d0036cc:	8faf002c 	lw	t7,44(sp)
9d0036d0:	02c02021 	move	a0,s6
9d0036d4:	0f4016df 	jal	9d005b7c <time_in_secs>
9d0036d8:	71cfa002 	mul	s4,t6,t7
9d0036dc:	3c189d01 	lui	t8,0x9d01
9d0036e0:	27040150 	addiu	a0,t8,336
9d0036e4:	0282001b 	divu	zero,s4,v0
9d0036e8:	0f40347e 	jal	9d00d1f8 <printf>
9d0036ec:	00002812 	mflo	a1
9d0036f0:	1000febb 	b	9d0031e0 <coremain+0x724>
9d0036f4:	00000000 	nop
9d0036f8:	0f40347e 	jal	9d00d1f8 <printf>
9d0036fc:	27c402d4 	addiu	a0,s8,724
9d003700:	1000ffa0 	b	9d003584 <coremain+0xac8>
9d003704:	00000000 	nop
9d003708:	3c129d01 	lui	s2,0x9d01
9d00370c:	0f40347e 	jal	9d00d1f8 <printf>
9d003710:	26440338 	addiu	a0,s2,824
9d003714:	1000ff9b 	b	9d003584 <coremain+0xac8>
9d003718:	00000000 	nop
9d00371c:	3c0a9d01 	lui	t2,0x9d01
9d003720:	0f40347e 	jal	9d00d1f8 <printf>
9d003724:	2544ff88 	addiu	a0,t2,-120
9d003728:	1000fe35 	b	9d003000 <coremain+0x544>
9d00372c:	00004821 	move	t1,zero
9d003730:	3c029d01 	lui	v0,0x9d01
9d003734:	0f40347e 	jal	9d00d1f8 <printf>
9d003738:	24440048 	addiu	a0,v0,72
9d00373c:	1000fe30 	b	9d003000 <coremain+0x544>
9d003740:	24090004 	li	t1,4
9d003744:	3c0b9d01 	lui	t3,0x9d01
9d003748:	0f40347e 	jal	9d00d1f8 <printf>
9d00374c:	2564ffb8 	addiu	a0,t3,-72
9d003750:	1000fe2b 	b	9d003000 <coremain+0x544>
9d003754:	24090001 	li	t1,1
9d003758:	1000fddf 	b	9d002ed8 <coremain+0x41c>
9d00375c:	a7a2004a 	sh	v0,74(sp)
9d003760:	1000fdeb 	b	9d002f10 <coremain+0x454>
9d003764:	a7a2004a 	sh	v0,74(sp)
9d003768:	1000fd79 	b	9d002d50 <coremain+0x294>
9d00376c:	a7a2004a 	sh	v0,74(sp)
9d003770:	1000fd69 	b	9d002d18 <coremain+0x25c>
9d003774:	a7a2004a 	sh	v0,74(sp)

9d003778 <matrix_test>:
9d003778:	27bdffb8 	addiu	sp,sp,-72
9d00377c:	87a30058 	lh	v1,88(sp)
9d003780:	afb20028 	sw	s2,40(sp)
9d003784:	2412f000 	li	s2,-4096
9d003788:	afb10024 	sw	s1,36(sp)
9d00378c:	afbf0044 	sw	ra,68(sp)
9d003790:	afbe0040 	sw	s8,64(sp)
9d003794:	afb7003c 	sw	s7,60(sp)
9d003798:	afb60038 	sw	s6,56(sp)
9d00379c:	afb50034 	sw	s5,52(sp)
9d0037a0:	afb40030 	sw	s4,48(sp)
9d0037a4:	afb3002c 	sw	s3,44(sp)
9d0037a8:	afb00020 	sw	s0,32(sp)
9d0037ac:	00808821 	move	s1,a0
9d0037b0:	afa5004c 	sw	a1,76(sp)
9d0037b4:	afa60050 	sw	a2,80(sp)
9d0037b8:	afa70054 	sw	a3,84(sp)
9d0037bc:	108004e4 	beqz	a0,9d004b50 <matrix_test+0x13d8>
9d0037c0:	00729025 	or	s2,v1,s2
9d0037c4:	249ffffe 	addiu	ra,a0,-2
9d0037c8:	001f1042 	srl	v0,ra,0x1
9d0037cc:	245f0001 	addiu	ra,v0,1
9d0037d0:	00c03821 	move	a3,a2
9d0037d4:	00006821 	move	t5,zero
9d0037d8:	00007021 	move	t6,zero
9d0037dc:	3074ffff 	andi	s4,v1,0xffff
9d0037e0:	00048040 	sll	s0,a0,0x1
9d0037e4:	00c01021 	move	v0,a2
9d0037e8:	24150002 	li	s5,2
9d0037ec:	24170001 	li	s7,1
9d0037f0:	001fb040 	sll	s6,ra,0x1
9d0037f4:	2c990003 	sltiu	t9,a0,3
9d0037f8:	10000018 	b	9d00385c <matrix_test+0xe4>
9d0037fc:	00c05021 	move	t2,a2
9d003800:	94f80000 	lhu	t8,0(a3)
9d003804:	0298f021 	addu	s8,s4,t8
9d003808:	123504c4 	beq	s1,s5,9d004b1c <matrix_test+0x13a4>
9d00380c:	a4fe0000 	sh	s8,0(a3)
9d003810:	02204021 	move	t0,s1
9d003814:	24060001 	li	a2,1
9d003818:	1228000c 	beq	s1,t0,9d00384c <matrix_test+0xd4>
9d00381c:	02286023 	subu	t4,s1,t0
9d003820:	258bfffe 	addiu	t3,t4,-2
9d003824:	000b7842 	srl	t7,t3,0x1
9d003828:	25eb0001 	addiu	t3,t7,1
9d00382c:	15970015 	bne	t4,s7,9d003884 <matrix_test+0x10c>
9d003830:	000b7840 	sll	t7,t3,0x1
9d003834:	01a63021 	addu	a2,t5,a2
9d003838:	00066040 	sll	t4,a2,0x1
9d00383c:	014c5821 	addu	t3,t2,t4
9d003840:	956f0000 	lhu	t7,0(t3)
9d003844:	028f2021 	addu	a0,s4,t7
9d003848:	a5640000 	sh	a0,0(t3)
9d00384c:	25ce0001 	addiu	t6,t6,1
9d003850:	00f03821 	addu	a3,a3,s0
9d003854:	11d10078 	beq	t6,s1,9d003a38 <matrix_test+0x2c0>
9d003858:	01b16821 	addu	t5,t5,s1
9d00385c:	7ce50040 	ext	a1,a3,0x1,0x1
9d003860:	0225202b 	sltu	a0,s1,a1
9d003864:	0224280b 	movn	a1,s1,a0
9d003868:	1720ffe5 	bnez	t9,9d003800 <matrix_test+0x88>
9d00386c:	00a04021 	move	t0,a1
9d003870:	14a004cf 	bnez	a1,9d004bb0 <matrix_test+0x1438>
9d003874:	02206021 	move	t4,s1
9d003878:	00003021 	move	a2,zero
9d00387c:	03e05821 	move	t3,ra
9d003880:	02c07821 	move	t7,s6
9d003884:	01a84021 	addu	t0,t5,t0
9d003888:	00084840 	sll	t1,t0,0x1
9d00388c:	01492821 	addu	a1,t2,t1
9d003890:	8ca90000 	lw	t1,0(a1)
9d003894:	00002021 	move	a0,zero
9d003898:	7e847804 	ins	a0,s4,0x0,0x10
9d00389c:	24180001 	li	t8,1
9d0038a0:	7e84fc04 	ins	a0,s4,0x10,0x10
9d0038a4:	2573ffff 	addiu	s3,t3,-1
9d0038a8:	24a80004 	addiu	t0,a1,4
9d0038ac:	030bf02b 	sltu	s8,t8,t3
9d0038b0:	7c894a90 	addq.ph	t1,a0,t1
9d0038b4:	32730007 	andi	s3,s3,0x7
9d0038b8:	aca90000 	sw	t1,0(a1)
9d0038bc:	13c00058 	beqz	s8,9d003a20 <matrix_test+0x2a8>
9d0038c0:	01004821 	move	t1,t0
9d0038c4:	5260003a 	beqzl	s3,9d0039b0 <matrix_test+0x238>
9d0038c8:	8d3e0000 	lw	s8,0(t1)
9d0038cc:	1278002f 	beq	s3,t8,9d00398c <matrix_test+0x214>
9d0038d0:	241e0002 	li	s8,2
9d0038d4:	127e0027 	beq	s3,s8,9d003974 <matrix_test+0x1fc>
9d0038d8:	241e0003 	li	s8,3
9d0038dc:	127e001f 	beq	s3,s8,9d00395c <matrix_test+0x1e4>
9d0038e0:	241e0004 	li	s8,4
9d0038e4:	127e0017 	beq	s3,s8,9d003944 <matrix_test+0x1cc>
9d0038e8:	241e0005 	li	s8,5
9d0038ec:	127e000f 	beq	s3,s8,9d00392c <matrix_test+0x1b4>
9d0038f0:	241e0006 	li	s8,6
9d0038f4:	527e0008 	beql	s3,s8,9d003918 <matrix_test+0x1a0>
9d0038f8:	8d250000 	lw	a1,0(t1)
9d0038fc:	8cb30004 	lw	s3,4(a1)
9d003900:	24a80008 	addiu	t0,a1,8
9d003904:	24180002 	li	t8,2
9d003908:	7c934a90 	addq.ph	t1,a0,s3
9d00390c:	aca90004 	sw	t1,4(a1)
9d003910:	01004821 	move	t1,t0
9d003914:	8d250000 	lw	a1,0(t1)
9d003918:	27180001 	addiu	t8,t8,1
9d00391c:	25290004 	addiu	t1,t1,4
9d003920:	7c85f290 	addq.ph	s8,a0,a1
9d003924:	25080004 	addiu	t0,t0,4
9d003928:	ad1efffc 	sw	s8,-4(t0)
9d00392c:	8d330000 	lw	s3,0(t1)
9d003930:	27180001 	addiu	t8,t8,1
9d003934:	25290004 	addiu	t1,t1,4
9d003938:	7c932a90 	addq.ph	a1,a0,s3
9d00393c:	25080004 	addiu	t0,t0,4
9d003940:	ad05fffc 	sw	a1,-4(t0)
9d003944:	8d3e0000 	lw	s8,0(t1)
9d003948:	27180001 	addiu	t8,t8,1
9d00394c:	25290004 	addiu	t1,t1,4
9d003950:	7c9e9a90 	addq.ph	s3,a0,s8
9d003954:	25080004 	addiu	t0,t0,4
9d003958:	ad13fffc 	sw	s3,-4(t0)
9d00395c:	8d250000 	lw	a1,0(t1)
9d003960:	27180001 	addiu	t8,t8,1
9d003964:	25290004 	addiu	t1,t1,4
9d003968:	7c85f290 	addq.ph	s8,a0,a1
9d00396c:	25080004 	addiu	t0,t0,4
9d003970:	ad1efffc 	sw	s8,-4(t0)
9d003974:	8d330000 	lw	s3,0(t1)
9d003978:	27180001 	addiu	t8,t8,1
9d00397c:	25290004 	addiu	t1,t1,4
9d003980:	7c932a90 	addq.ph	a1,a0,s3
9d003984:	25080004 	addiu	t0,t0,4
9d003988:	ad05fffc 	sw	a1,-4(t0)
9d00398c:	8d3e0000 	lw	s8,0(t1)
9d003990:	27180001 	addiu	t8,t8,1
9d003994:	030b982b 	sltu	s3,t8,t3
9d003998:	7c9e2a90 	addq.ph	a1,a0,s8
9d00399c:	25080004 	addiu	t0,t0,4
9d0039a0:	ad05fffc 	sw	a1,-4(t0)
9d0039a4:	1260001e 	beqz	s3,9d003a20 <matrix_test+0x2a8>
9d0039a8:	25290004 	addiu	t1,t1,4
9d0039ac:	8d3e0000 	lw	s8,0(t1)
9d0039b0:	27180008 	addiu	t8,t8,8
9d0039b4:	030b982b 	sltu	s3,t8,t3
9d0039b8:	7c9e2a90 	addq.ph	a1,a0,s8
9d0039bc:	ad050000 	sw	a1,0(t0)
9d0039c0:	8d3e0004 	lw	s8,4(t1)
9d0039c4:	25080020 	addiu	t0,t0,32
9d0039c8:	25290020 	addiu	t1,t1,32
9d0039cc:	7c9e2a90 	addq.ph	a1,a0,s8
9d0039d0:	ad05ffe4 	sw	a1,-28(t0)
9d0039d4:	8d3effe8 	lw	s8,-24(t1)
9d0039d8:	7c9e2a90 	addq.ph	a1,a0,s8
9d0039dc:	ad05ffe8 	sw	a1,-24(t0)
9d0039e0:	8d3effec 	lw	s8,-20(t1)
9d0039e4:	7c9e2a90 	addq.ph	a1,a0,s8
9d0039e8:	ad05ffec 	sw	a1,-20(t0)
9d0039ec:	8d3efff0 	lw	s8,-16(t1)
9d0039f0:	7c9e2a90 	addq.ph	a1,a0,s8
9d0039f4:	ad05fff0 	sw	a1,-16(t0)
9d0039f8:	8d3efff4 	lw	s8,-12(t1)
9d0039fc:	7c9e2a90 	addq.ph	a1,a0,s8
9d003a00:	ad05fff4 	sw	a1,-12(t0)
9d003a04:	8d3efff8 	lw	s8,-8(t1)
9d003a08:	7c9e2a90 	addq.ph	a1,a0,s8
9d003a0c:	ad05fff8 	sw	a1,-8(t0)
9d003a10:	8d3efffc 	lw	s8,-4(t1)
9d003a14:	7c9e2a90 	addq.ph	a1,a0,s8
9d003a18:	1660ffe4 	bnez	s3,9d0039ac <matrix_test+0x234>
9d003a1c:	ad05fffc 	sw	a1,-4(t0)
9d003a20:	15ecff84 	bne	t7,t4,9d003834 <matrix_test+0xbc>
9d003a24:	00cf3021 	addu	a2,a2,t7
9d003a28:	25ce0001 	addiu	t6,t6,1
9d003a2c:	00f03821 	addu	a3,a3,s0
9d003a30:	15d1ff8a 	bne	t6,s1,9d00385c <matrix_test+0xe4>
9d003a34:	01b16821 	addu	t5,t5,s1
9d003a38:	8fae004c 	lw	t6,76(sp)
9d003a3c:	00007821 	move	t7,zero
9d003a40:	00119880 	sll	s3,s1,0x2
9d003a44:	84580000 	lh	t8,0(v0)
9d003a48:	2608fffe 	addiu	t0,s0,-2
9d003a4c:	24040002 	li	a0,2
9d003a50:	73034802 	mul	t1,t8,v1
9d003a54:	7d0a1040 	ext	t2,t0,0x1,0x3
9d003a58:	25c50004 	addiu	a1,t6,4
9d003a5c:	12040055 	beq	s0,a0,9d003bb4 <matrix_test+0x43c>
9d003a60:	adc90000 	sw	t1,0(t6)
9d003a64:	11400031 	beqz	t2,9d003b2c <matrix_test+0x3b4>
9d003a68:	24150001 	li	s5,1
9d003a6c:	5155002a 	beql	t2,s5,9d003b18 <matrix_test+0x3a0>
9d003a70:	7c44b90a 	lhx	s7,a0(v0)
9d003a74:	11440022 	beq	t2,a0,9d003b00 <matrix_test+0x388>
9d003a78:	24160003 	li	s6,3
9d003a7c:	1156001b 	beq	t2,s6,9d003aec <matrix_test+0x374>
9d003a80:	24170004 	li	s7,4
9d003a84:	11570014 	beq	t2,s7,9d003ad8 <matrix_test+0x360>
9d003a88:	24190005 	li	t9,5
9d003a8c:	1159000d 	beq	t2,t9,9d003ac4 <matrix_test+0x34c>
9d003a90:	241f0006 	li	ra,6
9d003a94:	515f0007 	beql	t2,ra,9d003ab4 <matrix_test+0x33c>
9d003a98:	7c44610a 	lhx	t4,a0(v0)
9d003a9c:	845e0002 	lh	s8,2(v0)
9d003aa0:	24040004 	li	a0,4
9d003aa4:	73c33002 	mul	a2,s8,v1
9d003aa8:	aca60000 	sw	a2,0(a1)
9d003aac:	25c50008 	addiu	a1,t6,8
9d003ab0:	7c44610a 	lhx	t4,a0(v0)
9d003ab4:	24a50004 	addiu	a1,a1,4
9d003ab8:	24840002 	addiu	a0,a0,2
9d003abc:	71835802 	mul	t3,t4,v1
9d003ac0:	acabfffc 	sw	t3,-4(a1)
9d003ac4:	7c44390a 	lhx	a3,a0(v0)
9d003ac8:	24a50004 	addiu	a1,a1,4
9d003acc:	24840002 	addiu	a0,a0,2
9d003ad0:	70e36802 	mul	t5,a3,v1
9d003ad4:	acadfffc 	sw	t5,-4(a1)
9d003ad8:	7c44c10a 	lhx	t8,a0(v0)
9d003adc:	24a50004 	addiu	a1,a1,4
9d003ae0:	24840002 	addiu	a0,a0,2
9d003ae4:	73034002 	mul	t0,t8,v1
9d003ae8:	aca8fffc 	sw	t0,-4(a1)
9d003aec:	7c44490a 	lhx	t1,a0(v0)
9d003af0:	24a50004 	addiu	a1,a1,4
9d003af4:	24840002 	addiu	a0,a0,2
9d003af8:	71235002 	mul	t2,t1,v1
9d003afc:	acaafffc 	sw	t2,-4(a1)
9d003b00:	7c44a90a 	lhx	s5,a0(v0)
9d003b04:	24a50004 	addiu	a1,a1,4
9d003b08:	24840002 	addiu	a0,a0,2
9d003b0c:	72a3b002 	mul	s6,s5,v1
9d003b10:	acb6fffc 	sw	s6,-4(a1)
9d003b14:	7c44b90a 	lhx	s7,a0(v0)
9d003b18:	24840002 	addiu	a0,a0,2
9d003b1c:	24a50004 	addiu	a1,a1,4
9d003b20:	72e3c802 	mul	t9,s7,v1
9d003b24:	12040023 	beq	s0,a0,9d003bb4 <matrix_test+0x43c>
9d003b28:	acb9fffc 	sw	t9,-4(a1)
9d003b2c:	249f0004 	addiu	ra,a0,4
9d003b30:	249e0006 	addiu	s8,a0,6
9d003b34:	24980008 	addiu	t8,a0,8
9d003b38:	2488000a 	addiu	t0,a0,10
9d003b3c:	2487000c 	addiu	a3,a0,12
9d003b40:	2486000e 	addiu	a2,a0,14
9d003b44:	248c0002 	addiu	t4,a0,2
9d003b48:	7c44690a 	lhx	t5,a0(v0)
9d003b4c:	7c4ca90a 	lhx	s5,t4(v0)
9d003b50:	7c5f590a 	lhx	t3,ra(v0)
9d003b54:	7c5e510a 	lhx	t2,s8(v0)
9d003b58:	7c58490a 	lhx	t1,t8(v0)
9d003b5c:	7c48b10a 	lhx	s6,t0(v0)
9d003b60:	7c47b90a 	lhx	s7,a3(v0)
9d003b64:	7c46c90a 	lhx	t9,a2(v0)
9d003b68:	71a3f802 	mul	ra,t5,v1
9d003b6c:	24840010 	addiu	a0,a0,16
9d003b70:	24a50020 	addiu	a1,a1,32
9d003b74:	72a3f002 	mul	s8,s5,v1
9d003b78:	acbfffe0 	sw	ra,-32(a1)
9d003b7c:	7163c002 	mul	t8,t3,v1
9d003b80:	acbeffe4 	sw	s8,-28(a1)
9d003b84:	71434002 	mul	t0,t2,v1
9d003b88:	acb8ffe8 	sw	t8,-24(a1)
9d003b8c:	71233802 	mul	a3,t1,v1
9d003b90:	aca8ffec 	sw	t0,-20(a1)
9d003b94:	72c33002 	mul	a2,s6,v1
9d003b98:	aca7fff0 	sw	a3,-16(a1)
9d003b9c:	72e36002 	mul	t4,s7,v1
9d003ba0:	aca6fff4 	sw	a2,-12(a1)
9d003ba4:	73236802 	mul	t5,t9,v1
9d003ba8:	acacfff8 	sw	t4,-8(a1)
9d003bac:	1604ffdf 	bne	s0,a0,9d003b2c <matrix_test+0x3b4>
9d003bb0:	acadfffc 	sw	t5,-4(a1)
9d003bb4:	25ef0001 	addiu	t7,t7,1
9d003bb8:	01d37021 	addu	t6,t6,s3
9d003bbc:	15f1ffa1 	bne	t7,s1,9d003a44 <matrix_test+0x2cc>
9d003bc0:	00501021 	addu	v0,v0,s0
9d003bc4:	8faa004c 	lw	t2,76(sp)
9d003bc8:	0000a821 	move	s5,zero
9d003bcc:	00002021 	move	a0,zero
9d003bd0:	00007021 	move	t6,zero
9d003bd4:	00003021 	move	a2,zero
9d003bd8:	8d4b0000 	lw	t3,0(t2)
9d003bdc:	3085ffff 	andi	a1,a0,0xffff
9d003be0:	24a4000a 	addiu	a0,a1,10
9d003be4:	01cb182a 	slt	v1,t6,t3
9d003be8:	01663021 	addu	a2,t3,a2
9d003bec:	00a34821 	addu	t1,a1,v1
9d003bf0:	0246c82a 	slt	t9,s2,a2
9d003bf4:	2676fffc 	addiu	s6,s3,-4
9d003bf8:	7c042620 	seh	a0,a0
9d003bfc:	7c09be20 	seh	s7,t1
9d003c00:	24030004 	li	v1,4
9d003c04:	7edf0880 	ext	ra,s6,0x2,0x2
9d003c08:	0019300b 	movn	a2,zero,t9
9d003c0c:	02f9200a 	movz	a0,s7,t9
9d003c10:	1263005b 	beq	s3,v1,9d003d80 <matrix_test+0x608>
9d003c14:	01607021 	move	t6,t3
9d003c18:	13e0002e 	beqz	ra,9d003cd4 <matrix_test+0x55c>
9d003c1c:	241e0001 	li	s8,1
9d003c20:	13fe001e 	beq	ra,s8,9d003c9c <matrix_test+0x524>
9d003c24:	24180002 	li	t8,2
9d003c28:	53f80010 	beql	ra,t8,9d003c6c <matrix_test+0x4f4>
9d003c2c:	7d43280a 	lwx	a1,v1(t2)
9d003c30:	8d480004 	lw	t0,4(t2)
9d003c34:	308cffff 	andi	t4,a0,0xffff
9d003c38:	258d000a 	addiu	t5,t4,10
9d003c3c:	0168382a 	slt	a3,t3,t0
9d003c40:	01063021 	addu	a2,t0,a2
9d003c44:	01877821 	addu	t7,t4,a3
9d003c48:	7c0d7620 	seh	t6,t5
9d003c4c:	0246582a 	slt	t3,s2,a2
9d003c50:	7c0f1620 	seh	v0,t7
9d003c54:	01cb100b 	movn	v0,t6,t3
9d003c58:	000b300b 	movn	a2,zero,t3
9d003c5c:	00402021 	move	a0,v0
9d003c60:	24030008 	li	v1,8
9d003c64:	01007021 	move	t6,t0
9d003c68:	7d43280a 	lwx	a1,v1(t2)
9d003c6c:	3089ffff 	andi	t1,a0,0xffff
9d003c70:	2524000a 	addiu	a0,t1,10
9d003c74:	01c5b02a 	slt	s6,t6,a1
9d003c78:	00a63021 	addu	a2,a1,a2
9d003c7c:	0136b821 	addu	s7,t1,s6
9d003c80:	0246f82a 	slt	ra,s2,a2
9d003c84:	7c042620 	seh	a0,a0
9d003c88:	7c17ce20 	seh	t9,s7
9d003c8c:	001f300b 	movn	a2,zero,ra
9d003c90:	033f200a 	movz	a0,t9,ra
9d003c94:	24630004 	addiu	v1,v1,4
9d003c98:	00a07021 	move	t6,a1
9d003c9c:	7d43f00a 	lwx	s8,v1(t2)
9d003ca0:	3098ffff 	andi	t8,a0,0xffff
9d003ca4:	2708000a 	addiu	t0,t8,10
9d003ca8:	01de602a 	slt	t4,t6,s8
9d003cac:	03c63021 	addu	a2,s8,a2
9d003cb0:	030c6821 	addu	t5,t8,t4
9d003cb4:	0246382a 	slt	a3,s2,a2
9d003cb8:	7c082620 	seh	a0,t0
9d003cbc:	7c0d7e20 	seh	t7,t5
9d003cc0:	24630004 	addiu	v1,v1,4
9d003cc4:	0007300b 	movn	a2,zero,a3
9d003cc8:	01e7200a 	movz	a0,t7,a3
9d003ccc:	1263002c 	beq	s3,v1,9d003d80 <matrix_test+0x608>
9d003cd0:	03c07021 	move	t6,s8
9d003cd4:	7d43580a 	lwx	t3,v1(t2)
9d003cd8:	24650004 	addiu	a1,v1,4
9d003cdc:	7d45b80a 	lwx	s7,a1(t2)
9d003ce0:	0166b021 	addu	s6,t3,a2
9d003ce4:	01cb102a 	slt	v0,t6,t3
9d003ce8:	3089ffff 	andi	t1,a0,0xffff
9d003cec:	01222021 	addu	a0,t1,v0
9d003cf0:	0256f82a 	slt	ra,s2,s6
9d003cf4:	2539000a 	addiu	t9,t1,10
9d003cf8:	001fb00b 	movn	s6,zero,ra
9d003cfc:	033f200b 	movn	a0,t9,ra
9d003d00:	247e0008 	addiu	s8,v1,8
9d003d04:	02f6c021 	addu	t8,s7,s6
9d003d08:	308cffff 	andi	t4,a0,0xffff
9d003d0c:	0177302a 	slt	a2,t3,s7
9d003d10:	7d5e400a 	lwx	t0,s8(t2)
9d003d14:	01867821 	addu	t7,t4,a2
9d003d18:	258d000a 	addiu	t5,t4,10
9d003d1c:	0258382a 	slt	a3,s2,t8
9d003d20:	0007c00b 	movn	t8,zero,a3
9d003d24:	246e000c 	addiu	t6,v1,12
9d003d28:	01e7680a 	movz	t5,t7,a3
9d003d2c:	01185821 	addu	t3,t0,t8
9d003d30:	02e8282a 	slt	a1,s7,t0
9d003d34:	31a9ffff 	andi	t1,t5,0xffff
9d003d38:	7d4e700a 	lwx	t6,t6(t2)
9d003d3c:	024bb82a 	slt	s7,s2,t3
9d003d40:	2536000a 	addiu	s6,t1,10
9d003d44:	01251021 	addu	v0,t1,a1
9d003d48:	02d7100b 	movn	v0,s6,s7
9d003d4c:	305fffff 	andi	ra,v0,0xffff
9d003d50:	010ef02a 	slt	s8,t0,t6
9d003d54:	0017580b 	movn	t3,zero,s7
9d003d58:	01cb3021 	addu	a2,t6,t3
9d003d5c:	27e4000a 	addiu	a0,ra,10
9d003d60:	03fec021 	addu	t8,ra,s8
9d003d64:	0246402a 	slt	t0,s2,a2
9d003d68:	7c042620 	seh	a0,a0
9d003d6c:	7c186620 	seh	t4,t8
9d003d70:	24630010 	addiu	v1,v1,16
9d003d74:	0008300b 	movn	a2,zero,t0
9d003d78:	1663ffd6 	bne	s3,v1,9d003cd4 <matrix_test+0x55c>
9d003d7c:	0188200a 	movz	a0,t4,t0
9d003d80:	26b50001 	addiu	s5,s5,1
9d003d84:	16b1ff94 	bne	s5,s1,9d003bd8 <matrix_test+0x460>
9d003d88:	01535021 	addu	t2,t2,s3
9d003d8c:	0f401c08 	jal	9d007020 <crc16>
9d003d90:	00002821 	move	a1,zero
9d003d94:	afb20014 	sw	s2,20(sp)
9d003d98:	8fb6004c 	lw	s6,76(sp)
9d003d9c:	8fb50050 	lw	s5,80(sp)
9d003da0:	8fb20054 	lw	s2,84(sp)
9d003da4:	afa20010 	sw	v0,16(sp)
9d003da8:	0000b821 	move	s7,zero
9d003dac:	86aa0000 	lh	t2,0(s5)
9d003db0:	86430000 	lh	v1,0(s2)
9d003db4:	241f0001 	li	ra,1
9d003db8:	2626ffff 	addiu	a2,s1,-1
9d003dbc:	03f1682b 	sltu	t5,ra,s1
9d003dc0:	01430018 	mult	t2,v1
9d003dc4:	30c70007 	andi	a3,a2,0x7
9d003dc8:	26b80002 	addiu	t8,s5,2
9d003dcc:	11a0005a 	beqz	t5,9d003f38 <matrix_test+0x7c0>
9d003dd0:	26590002 	addiu	t9,s2,2
9d003dd4:	50e0003c 	beqzl	a3,9d003ec8 <matrix_test+0x750>
9d003dd8:	87020000 	lh	v0,0(t8)
9d003ddc:	50ff0032 	beql	a3,ra,9d003ea8 <matrix_test+0x730>
9d003de0:	870b0000 	lh	t3,0(t8)
9d003de4:	240e0002 	li	t6,2
9d003de8:	10ee0028 	beq	a3,t6,9d003e8c <matrix_test+0x714>
9d003dec:	240b0003 	li	t3,3
9d003df0:	10eb0020 	beq	a3,t3,9d003e74 <matrix_test+0x6fc>
9d003df4:	24090004 	li	t1,4
9d003df8:	10e90018 	beq	a3,t1,9d003e5c <matrix_test+0x6e4>
9d003dfc:	24050005 	li	a1,5
9d003e00:	50e50011 	beql	a3,a1,9d003e48 <matrix_test+0x6d0>
9d003e04:	87080000 	lh	t0,0(t8)
9d003e08:	24020006 	li	v0,6
9d003e0c:	50e20008 	beql	a3,v0,9d003e30 <matrix_test+0x6b8>
9d003e10:	87040000 	lh	a0,0(t8)
9d003e14:	87190000 	lh	t9,0(t8)
9d003e18:	865e0002 	lh	s8,2(s2)
9d003e1c:	241f0002 	li	ra,2
9d003e20:	26b80004 	addiu	t8,s5,4
9d003e24:	733e0000 	madd	t9,s8
9d003e28:	26590004 	addiu	t9,s2,4
9d003e2c:	87040000 	lh	a0,0(t8)
9d003e30:	872c0000 	lh	t4,0(t9)
9d003e34:	27ff0001 	addiu	ra,ra,1
9d003e38:	27180002 	addiu	t8,t8,2
9d003e3c:	27390002 	addiu	t9,t9,2
9d003e40:	708c0000 	madd	a0,t4
9d003e44:	87080000 	lh	t0,0(t8)
9d003e48:	872a0000 	lh	t2,0(t9)
9d003e4c:	27ff0001 	addiu	ra,ra,1
9d003e50:	27180002 	addiu	t8,t8,2
9d003e54:	27390002 	addiu	t9,t9,2
9d003e58:	710a0000 	madd	t0,t2
9d003e5c:	87030000 	lh	v1,0(t8)
9d003e60:	87260000 	lh	a2,0(t9)
9d003e64:	27ff0001 	addiu	ra,ra,1
9d003e68:	27180002 	addiu	t8,t8,2
9d003e6c:	27390002 	addiu	t9,t9,2
9d003e70:	70660000 	madd	v1,a2
9d003e74:	870d0000 	lh	t5,0(t8)
9d003e78:	872f0000 	lh	t7,0(t9)
9d003e7c:	27ff0001 	addiu	ra,ra,1
9d003e80:	27180002 	addiu	t8,t8,2
9d003e84:	27390002 	addiu	t9,t9,2
9d003e88:	71af0000 	madd	t5,t7
9d003e8c:	87070000 	lh	a3,0(t8)
9d003e90:	872e0000 	lh	t6,0(t9)
9d003e94:	27ff0001 	addiu	ra,ra,1
9d003e98:	27180002 	addiu	t8,t8,2
9d003e9c:	27390002 	addiu	t9,t9,2
9d003ea0:	70ee0000 	madd	a3,t6
9d003ea4:	870b0000 	lh	t3,0(t8)
9d003ea8:	87290000 	lh	t1,0(t9)
9d003eac:	27ff0001 	addiu	ra,ra,1
9d003eb0:	03f1282b 	sltu	a1,ra,s1
9d003eb4:	27180002 	addiu	t8,t8,2
9d003eb8:	27390002 	addiu	t9,t9,2
9d003ebc:	10a0001e 	beqz	a1,9d003f38 <matrix_test+0x7c0>
9d003ec0:	71690000 	madd	t3,t1
9d003ec4:	87020000 	lh	v0,0(t8)
9d003ec8:	873e0000 	lh	s8,0(t9)
9d003ecc:	87080002 	lh	t0,2(t8)
9d003ed0:	872f0002 	lh	t7,2(t9)
9d003ed4:	87070004 	lh	a3,4(t8)
9d003ed8:	87060006 	lh	a2,6(t8)
9d003edc:	872e0006 	lh	t6,6(t9)
9d003ee0:	87050008 	lh	a1,8(t8)
9d003ee4:	872d0008 	lh	t5,8(t9)
9d003ee8:	8704000a 	lh	a0,10(t8)
9d003eec:	872c000a 	lh	t4,10(t9)
9d003ef0:	8703000c 	lh	v1,12(t8)
9d003ef4:	872b000c 	lh	t3,12(t9)
9d003ef8:	872a000e 	lh	t2,14(t9)
9d003efc:	27ff0008 	addiu	ra,ra,8
9d003f00:	705e0000 	madd	v0,s8
9d003f04:	873e0004 	lh	s8,4(t9)
9d003f08:	8702000e 	lh	v0,14(t8)
9d003f0c:	03f1482b 	sltu	t1,ra,s1
9d003f10:	27180010 	addiu	t8,t8,16
9d003f14:	27390010 	addiu	t9,t9,16
9d003f18:	710f0000 	madd	t0,t7
9d003f1c:	70fe0000 	madd	a3,s8
9d003f20:	70ce0000 	madd	a2,t6
9d003f24:	70ad0000 	madd	a1,t5
9d003f28:	708c0000 	madd	a0,t4
9d003f2c:	706b0000 	madd	v1,t3
9d003f30:	1520ffe4 	bnez	t1,9d003ec4 <matrix_test+0x74c>
9d003f34:	704a0000 	madd	v0,t2
9d003f38:	26f70001 	addiu	s7,s7,1
9d003f3c:	0000c012 	mflo	t8
9d003f40:	02f1f82b 	sltu	ra,s7,s1
9d003f44:	aed80000 	sw	t8,0(s6)
9d003f48:	02b0a821 	addu	s5,s5,s0
9d003f4c:	17e0ff97 	bnez	ra,9d003dac <matrix_test+0x634>
9d003f50:	26d60004 	addiu	s6,s6,4
9d003f54:	8fb20014 	lw	s2,20(sp)
9d003f58:	8fa9004c 	lw	t1,76(sp)
9d003f5c:	00005021 	move	t2,zero
9d003f60:	00002021 	move	a0,zero
9d003f64:	0000c021 	move	t8,zero
9d003f68:	00005821 	move	t3,zero
9d003f6c:	8d370000 	lw	s7,0(t1)
9d003f70:	3096ffff 	andi	s6,a0,0xffff
9d003f74:	26d5000a 	addiu	s5,s6,10
9d003f78:	0317c82a 	slt	t9,t8,s7
9d003f7c:	02eb5821 	addu	t3,s7,t3
9d003f80:	02d94021 	addu	t0,s6,t9
9d003f84:	024bf02a 	slt	s8,s2,t3
9d003f88:	266ffffc 	addiu	t7,s3,-4
9d003f8c:	7c152620 	seh	a0,s5
9d003f90:	7c083e20 	seh	a3,t0
9d003f94:	24030004 	li	v1,4
9d003f98:	7dee0880 	ext	t6,t7,0x2,0x2
9d003f9c:	001e580b 	movn	t3,zero,s8
9d003fa0:	00fe200a 	movz	a0,a3,s8
9d003fa4:	1073005c 	beq	v1,s3,9d004118 <matrix_test+0x9a0>
9d003fa8:	02e0c021 	move	t8,s7
9d003fac:	11c0002e 	beqz	t6,9d004068 <matrix_test+0x8f0>
9d003fb0:	24050001 	li	a1,1
9d003fb4:	11c5001e 	beq	t6,a1,9d004030 <matrix_test+0x8b8>
9d003fb8:	240d0002 	li	t5,2
9d003fbc:	51cd0010 	beql	t6,t5,9d004000 <matrix_test+0x888>
9d003fc0:	7d23b00a 	lwx	s6,v1(t1)
9d003fc4:	8d2c0004 	lw	t4,4(t1)
9d003fc8:	3084ffff 	andi	a0,a0,0xffff
9d003fcc:	2483000a 	addiu	v1,a0,10
9d003fd0:	02ec302a 	slt	a2,s7,t4
9d003fd4:	018b5821 	addu	t3,t4,t3
9d003fd8:	00861021 	addu	v0,a0,a2
9d003fdc:	7c03fe20 	seh	ra,v1
9d003fe0:	024bb82a 	slt	s7,s2,t3
9d003fe4:	7c02c620 	seh	t8,v0
9d003fe8:	03f7c00b 	movn	t8,ra,s7
9d003fec:	03002021 	move	a0,t8
9d003ff0:	0017580b 	movn	t3,zero,s7
9d003ff4:	24030008 	li	v1,8
9d003ff8:	0180c021 	move	t8,t4
9d003ffc:	7d23b00a 	lwx	s6,v1(t1)
9d004000:	3095ffff 	andi	s5,a0,0xffff
9d004004:	26b9000a 	addiu	t9,s5,10
9d004008:	0316402a 	slt	t0,t8,s6
9d00400c:	02cb5821 	addu	t3,s6,t3
9d004010:	02a87821 	addu	t7,s5,t0
9d004014:	024bf02a 	slt	s8,s2,t3
9d004018:	7c192620 	seh	a0,t9
9d00401c:	7c0f3e20 	seh	a3,t7
9d004020:	001e580b 	movn	t3,zero,s8
9d004024:	00fe200a 	movz	a0,a3,s8
9d004028:	24630004 	addiu	v1,v1,4
9d00402c:	02c0c021 	move	t8,s6
9d004030:	7d23700a 	lwx	t6,v1(t1)
9d004034:	3085ffff 	andi	a1,a0,0xffff
9d004038:	24ad000a 	addiu	t5,a1,10
9d00403c:	030e602a 	slt	t4,t8,t6
9d004040:	01cb5821 	addu	t3,t6,t3
9d004044:	00ac3021 	addu	a2,a1,t4
9d004048:	024bf82a 	slt	ra,s2,t3
9d00404c:	7c0d2620 	seh	a0,t5
9d004050:	7c061620 	seh	v0,a2
9d004054:	24630004 	addiu	v1,v1,4
9d004058:	001f580b 	movn	t3,zero,ra
9d00405c:	005f200a 	movz	a0,v0,ra
9d004060:	1073002d 	beq	v1,s3,9d004118 <matrix_test+0x9a0>
9d004064:	01c0c021 	move	t8,t6
9d004068:	7d23b80a 	lwx	s7,v1(t1)
9d00406c:	24760004 	addiu	s6,v1,4
9d004070:	7d36780a 	lwx	t7,s6(t1)
9d004074:	02eba821 	addu	s5,s7,t3
9d004078:	0317c82a 	slt	t9,t8,s7
9d00407c:	3084ffff 	andi	a0,a0,0xffff
9d004080:	2488000a 	addiu	t0,a0,10
9d004084:	00993821 	addu	a3,a0,t9
9d004088:	0255f02a 	slt	s8,s2,s5
9d00408c:	001ea80b 	movn	s5,zero,s8
9d004090:	011e380b 	movn	a3,t0,s8
9d004094:	246e0008 	addiu	t6,v1,8
9d004098:	01f52821 	addu	a1,t7,s5
9d00409c:	02ef602a 	slt	t4,s7,t7
9d0040a0:	7d2ef80a 	lwx	ra,t6(t1)
9d0040a4:	30edffff 	andi	t5,a3,0xffff
9d0040a8:	01ac1021 	addu	v0,t5,t4
9d0040ac:	25ab000a 	addiu	t3,t5,10
9d0040b0:	0245302a 	slt	a2,s2,a1
9d0040b4:	2478000c 	addiu	t8,v1,12
9d0040b8:	0006280b 	movn	a1,zero,a2
9d0040bc:	0046580a 	movz	t3,v0,a2
9d0040c0:	03e5b821 	addu	s7,ra,a1
9d0040c4:	3176ffff 	andi	s6,t3,0xffff
9d0040c8:	01ff202a 	slt	a0,t7,ra
9d0040cc:	7d38a80a 	lwx	s5,t8(t1)
9d0040d0:	02c47821 	addu	t7,s6,a0
9d0040d4:	0257402a 	slt	t0,s2,s7
9d0040d8:	26d9000a 	addiu	t9,s6,10
9d0040dc:	0328780b 	movn	t7,t9,t0
9d0040e0:	31feffff 	andi	s8,t7,0xffff
9d0040e4:	03f5702a 	slt	t6,ra,s5
9d0040e8:	0008b80b 	movn	s7,zero,t0
9d0040ec:	02b75821 	addu	t3,s5,s7
9d0040f0:	27cd000a 	addiu	t5,s8,10
9d0040f4:	03ce2821 	addu	a1,s8,t6
9d0040f8:	024bf82a 	slt	ra,s2,t3
9d0040fc:	7c0d2620 	seh	a0,t5
9d004100:	7c056620 	seh	t4,a1
9d004104:	24630010 	addiu	v1,v1,16
9d004108:	001f580b 	movn	t3,zero,ra
9d00410c:	019f200a 	movz	a0,t4,ra
9d004110:	1473ffd5 	bne	v1,s3,9d004068 <matrix_test+0x8f0>
9d004114:	02a0c021 	move	t8,s5
9d004118:	254a0001 	addiu	t2,t2,1
9d00411c:	1551ff93 	bne	t2,s1,9d003f6c <matrix_test+0x7f4>
9d004120:	01234821 	addu	t1,t1,v1
9d004124:	8fa50010 	lw	a1,16(sp)
9d004128:	0f401c08 	jal	9d007020 <crc16>
9d00412c:	0000f021 	move	s8,zero
9d004130:	8fa3004c 	lw	v1,76(sp)
9d004134:	afb40018 	sw	s4,24(sp)
9d004138:	8fbf0050 	lw	ra,80(sp)
9d00413c:	8fb40054 	lw	s4,84(sp)
9d004140:	afa20010 	sw	v0,16(sp)
9d004144:	afb20014 	sw	s2,20(sp)
9d004148:	0060b821 	move	s7,v1
9d00414c:	02e0a821 	move	s5,s7
9d004150:	00009021 	move	s2,zero
9d004154:	0280c821 	move	t9,s4
9d004158:	87eb0000 	lh	t3,0(ra)
9d00415c:	87220000 	lh	v0,0(t9)
9d004160:	240f0001 	li	t7,1
9d004164:	2626ffff 	addiu	a2,s1,-1
9d004168:	01f1c02b 	sltu	t8,t7,s1
9d00416c:	01620018 	mult	t3,v0
9d004170:	30c40007 	andi	a0,a2,0x7
9d004174:	27ee0002 	addiu	t6,ra,2
9d004178:	13000061 	beqz	t8,9d004300 <matrix_test+0xb88>
9d00417c:	03306821 	addu	t5,t9,s0
9d004180:	5080003c 	beqzl	a0,9d004274 <matrix_test+0xafc>
9d004184:	85cb0000 	lh	t3,0(t6)
9d004188:	508f0032 	beql	a0,t7,9d004254 <matrix_test+0xadc>
9d00418c:	85ca0000 	lh	t2,0(t6)
9d004190:	24080002 	li	t0,2
9d004194:	50880029 	beql	a0,t0,9d00423c <matrix_test+0xac4>
9d004198:	85c50000 	lh	a1,0(t6)
9d00419c:	24070003 	li	a3,3
9d0041a0:	1087001f 	beq	a0,a3,9d004220 <matrix_test+0xaa8>
9d0041a4:	24050004 	li	a1,4
9d0041a8:	10850017 	beq	a0,a1,9d004208 <matrix_test+0xa90>
9d0041ac:	240c0005 	li	t4,5
9d0041b0:	108c000f 	beq	a0,t4,9d0041f0 <matrix_test+0xa78>
9d0041b4:	240a0006 	li	t2,6
9d0041b8:	508a0008 	beql	a0,t2,9d0041dc <matrix_test+0xa64>
9d0041bc:	85cb0000 	lh	t3,0(t6)
9d0041c0:	85c90000 	lh	t1,0(t6)
9d0041c4:	85a30000 	lh	v1,0(t5)
9d0041c8:	240f0002 	li	t7,2
9d0041cc:	27ee0004 	addiu	t6,ra,4
9d0041d0:	71230000 	madd	t1,v1
9d0041d4:	01b06821 	addu	t5,t5,s0
9d0041d8:	85cb0000 	lh	t3,0(t6)
9d0041dc:	85a20000 	lh	v0,0(t5)
9d0041e0:	25ef0001 	addiu	t7,t7,1
9d0041e4:	25ce0002 	addiu	t6,t6,2
9d0041e8:	01b06821 	addu	t5,t5,s0
9d0041ec:	71620000 	madd	t3,v0
9d0041f0:	85c60000 	lh	a2,0(t6)
9d0041f4:	85b80000 	lh	t8,0(t5)
9d0041f8:	25ef0001 	addiu	t7,t7,1
9d0041fc:	25ce0002 	addiu	t6,t6,2
9d004200:	01b06821 	addu	t5,t5,s0
9d004204:	70d80000 	madd	a2,t8
9d004208:	85d60000 	lh	s6,0(t6)
9d00420c:	85a40000 	lh	a0,0(t5)
9d004210:	25ef0001 	addiu	t7,t7,1
9d004214:	25ce0002 	addiu	t6,t6,2
9d004218:	01b06821 	addu	t5,t5,s0
9d00421c:	72c40000 	madd	s6,a0
9d004220:	85c80000 	lh	t0,0(t6)
9d004224:	85a70000 	lh	a3,0(t5)
9d004228:	25ef0001 	addiu	t7,t7,1
9d00422c:	25ce0002 	addiu	t6,t6,2
9d004230:	01b06821 	addu	t5,t5,s0
9d004234:	71070000 	madd	t0,a3
9d004238:	85c50000 	lh	a1,0(t6)
9d00423c:	85ac0000 	lh	t4,0(t5)
9d004240:	25ef0001 	addiu	t7,t7,1
9d004244:	25ce0002 	addiu	t6,t6,2
9d004248:	01b06821 	addu	t5,t5,s0
9d00424c:	70ac0000 	madd	a1,t4
9d004250:	85ca0000 	lh	t2,0(t6)
9d004254:	85a90000 	lh	t1,0(t5)
9d004258:	25ef0001 	addiu	t7,t7,1
9d00425c:	01f1182b 	sltu	v1,t7,s1
9d004260:	25ce0002 	addiu	t6,t6,2
9d004264:	01b06821 	addu	t5,t5,s0
9d004268:	10600025 	beqz	v1,9d004300 <matrix_test+0xb88>
9d00426c:	71490000 	madd	t2,t1
9d004270:	85cb0000 	lh	t3,0(t6)
9d004274:	85a20000 	lh	v0,0(t5)
9d004278:	01b03021 	addu	a2,t5,s0
9d00427c:	85c80002 	lh	t0,2(t6)
9d004280:	84c90000 	lh	t1,0(a2)
9d004284:	00d0c021 	addu	t8,a2,s0
9d004288:	85c70004 	lh	a3,4(t6)
9d00428c:	87160000 	lh	s6,0(t8)
9d004290:	03102021 	addu	a0,t8,s0
9d004294:	85c60006 	lh	a2,6(t6)
9d004298:	84980000 	lh	t8,0(a0)
9d00429c:	00905021 	addu	t2,a0,s0
9d0042a0:	85c50008 	lh	a1,8(t6)
9d0042a4:	854c0000 	lh	t4,0(t2)
9d0042a8:	01501821 	addu	v1,t2,s0
9d0042ac:	71620000 	madd	t3,v0
9d0042b0:	85c4000a 	lh	a0,10(t6)
9d0042b4:	846b0000 	lh	t3,0(v1)
9d0042b8:	00706821 	addu	t5,v1,s0
9d0042bc:	85aa0000 	lh	t2,0(t5)
9d0042c0:	85c3000c 	lh	v1,12(t6)
9d0042c4:	01b06821 	addu	t5,t5,s0
9d0042c8:	85c2000e 	lh	v0,14(t6)
9d0042cc:	25ef0008 	addiu	t7,t7,8
9d0042d0:	25ce0010 	addiu	t6,t6,16
9d0042d4:	71090000 	madd	t0,t1
9d0042d8:	85a90000 	lh	t1,0(t5)
9d0042dc:	01f1402b 	sltu	t0,t7,s1
9d0042e0:	01b06821 	addu	t5,t5,s0
9d0042e4:	70f60000 	madd	a3,s6
9d0042e8:	70d80000 	madd	a2,t8
9d0042ec:	70ac0000 	madd	a1,t4
9d0042f0:	708b0000 	madd	a0,t3
9d0042f4:	706a0000 	madd	v1,t2
9d0042f8:	1500ffdd 	bnez	t0,9d004270 <matrix_test+0xaf8>
9d0042fc:	70490000 	madd	v0,t1
9d004300:	26520001 	addiu	s2,s2,1
9d004304:	00007012 	mflo	t6
9d004308:	0251782b 	sltu	t7,s2,s1
9d00430c:	aeae0000 	sw	t6,0(s5)
9d004310:	27390002 	addiu	t9,t9,2
9d004314:	15e0ff90 	bnez	t7,9d004158 <matrix_test+0x9e0>
9d004318:	26b50004 	addiu	s5,s5,4
9d00431c:	27de0001 	addiu	s8,s8,1
9d004320:	03d1a82b 	sltu	s5,s8,s1
9d004324:	03f0f821 	addu	ra,ra,s0
9d004328:	16a0ff88 	bnez	s5,9d00414c <matrix_test+0x9d4>
9d00432c:	02f3b821 	addu	s7,s7,s3
9d004330:	8fb20014 	lw	s2,20(sp)
9d004334:	8fb40018 	lw	s4,24(sp)
9d004338:	8fa9004c 	lw	t1,76(sp)
9d00433c:	00005021 	move	t2,zero
9d004340:	00002021 	move	a0,zero
9d004344:	0000a821 	move	s5,zero
9d004348:	00005821 	move	t3,zero
9d00434c:	8d3e0000 	lw	s8,0(t1)
9d004350:	309fffff 	andi	ra,a0,0xffff
9d004354:	27f7000a 	addiu	s7,ra,10
9d004358:	02bec82a 	slt	t9,s5,s8
9d00435c:	03cb5821 	addu	t3,s8,t3
9d004360:	03f93821 	addu	a3,ra,t9
9d004364:	024b302a 	slt	a2,s2,t3
9d004368:	2676fffc 	addiu	s6,s3,-4
9d00436c:	7c172620 	seh	a0,s7
9d004370:	7c07c620 	seh	t8,a3
9d004374:	24030004 	li	v1,4
9d004378:	7ec50880 	ext	a1,s6,0x2,0x2
9d00437c:	0006580b 	movn	t3,zero,a2
9d004380:	0306200a 	movz	a0,t8,a2
9d004384:	1263005c 	beq	s3,v1,9d0044f8 <matrix_test+0xd80>
9d004388:	03c0a821 	move	s5,s8
9d00438c:	10a0002e 	beqz	a1,9d004448 <matrix_test+0xcd0>
9d004390:	240c0001 	li	t4,1
9d004394:	10ac001e 	beq	a1,t4,9d004410 <matrix_test+0xc98>
9d004398:	240d0002 	li	t5,2
9d00439c:	50ad0010 	beql	a1,t5,9d0043e0 <matrix_test+0xc68>
9d0043a0:	7d23f80a 	lwx	ra,v1(t1)
9d0043a4:	8d280004 	lw	t0,4(t1)
9d0043a8:	3084ffff 	andi	a0,a0,0xffff
9d0043ac:	2483000a 	addiu	v1,a0,10
9d0043b0:	03c8102a 	slt	v0,s8,t0
9d0043b4:	010b5821 	addu	t3,t0,t3
9d0043b8:	00827821 	addu	t7,a0,v0
9d0043bc:	7c037620 	seh	t6,v1
9d0043c0:	024bf02a 	slt	s8,s2,t3
9d0043c4:	7c0fae20 	seh	s5,t7
9d0043c8:	01dea80b 	movn	s5,t6,s8
9d0043cc:	02a02021 	move	a0,s5
9d0043d0:	001e580b 	movn	t3,zero,s8
9d0043d4:	24030008 	li	v1,8
9d0043d8:	0100a821 	move	s5,t0
9d0043dc:	7d23f80a 	lwx	ra,v1(t1)
9d0043e0:	3097ffff 	andi	s7,a0,0xffff
9d0043e4:	26f9000a 	addiu	t9,s7,10
9d0043e8:	02bf382a 	slt	a3,s5,ra
9d0043ec:	03eb5821 	addu	t3,ra,t3
9d0043f0:	02e7b021 	addu	s6,s7,a3
9d0043f4:	024b302a 	slt	a2,s2,t3
9d0043f8:	7c192620 	seh	a0,t9
9d0043fc:	7c16c620 	seh	t8,s6
9d004400:	0006580b 	movn	t3,zero,a2
9d004404:	0306200a 	movz	a0,t8,a2
9d004408:	24630004 	addiu	v1,v1,4
9d00440c:	03e0a821 	move	s5,ra
9d004410:	7d23280a 	lwx	a1,v1(t1)
9d004414:	308cffff 	andi	t4,a0,0xffff
9d004418:	258d000a 	addiu	t5,t4,10
9d00441c:	02a5402a 	slt	t0,s5,a1
9d004420:	00ab5821 	addu	t3,a1,t3
9d004424:	01881021 	addu	v0,t4,t0
9d004428:	024b702a 	slt	t6,s2,t3
9d00442c:	7c0d2620 	seh	a0,t5
9d004430:	7c027e20 	seh	t7,v0
9d004434:	24630004 	addiu	v1,v1,4
9d004438:	000e580b 	movn	t3,zero,t6
9d00443c:	01ee200a 	movz	a0,t7,t6
9d004440:	1263002d 	beq	s3,v1,9d0044f8 <matrix_test+0xd80>
9d004444:	00a0a821 	move	s5,a1
9d004448:	7d23f00a 	lwx	s8,v1(t1)
9d00444c:	247f0004 	addiu	ra,v1,4
9d004450:	7d3fb00a 	lwx	s6,ra(t1)
9d004454:	03cbb821 	addu	s7,s8,t3
9d004458:	02bec82a 	slt	t9,s5,s8
9d00445c:	3084ffff 	andi	a0,a0,0xffff
9d004460:	2487000a 	addiu	a3,a0,10
9d004464:	0099c021 	addu	t8,a0,t9
9d004468:	0257302a 	slt	a2,s2,s7
9d00446c:	0006b80b 	movn	s7,zero,a2
9d004470:	00e6c00b 	movn	t8,a3,a2
9d004474:	24650008 	addiu	a1,v1,8
9d004478:	02d76821 	addu	t5,s6,s7
9d00447c:	03d6602a 	slt	t4,s8,s6
9d004480:	7d25400a 	lwx	t0,a1(t1)
9d004484:	330bffff 	andi	t3,t8,0xffff
9d004488:	016c1021 	addu	v0,t3,t4
9d00448c:	256f000a 	addiu	t7,t3,10
9d004490:	024d702a 	slt	t6,s2,t5
9d004494:	2475000c 	addiu	s5,v1,12
9d004498:	000e680b 	movn	t5,zero,t6
9d00449c:	004e780a 	movz	t7,v0,t6
9d0044a0:	010df021 	addu	s8,t0,t5
9d0044a4:	31ffffff 	andi	ra,t7,0xffff
9d0044a8:	02c8202a 	slt	a0,s6,t0
9d0044ac:	7d35b80a 	lwx	s7,s5(t1)
9d0044b0:	03e4b021 	addu	s6,ra,a0
9d0044b4:	025e382a 	slt	a3,s2,s8
9d0044b8:	27f9000a 	addiu	t9,ra,10
9d0044bc:	0327b00b 	movn	s6,t9,a3
9d0044c0:	32c6ffff 	andi	a2,s6,0xffff
9d0044c4:	0117282a 	slt	a1,t0,s7
9d0044c8:	0007f00b 	movn	s8,zero,a3
9d0044cc:	02fe5821 	addu	t3,s7,s8
9d0044d0:	24cd000a 	addiu	t5,a2,10
9d0044d4:	00c56021 	addu	t4,a2,a1
9d0044d8:	024b782a 	slt	t7,s2,t3
9d0044dc:	7c0d2620 	seh	a0,t5
9d0044e0:	7c0c4620 	seh	t0,t4
9d0044e4:	24630010 	addiu	v1,v1,16
9d0044e8:	000f580b 	movn	t3,zero,t7
9d0044ec:	010f200a 	movz	a0,t0,t7
9d0044f0:	1663ffd5 	bne	s3,v1,9d004448 <matrix_test+0xcd0>
9d0044f4:	02e0a821 	move	s5,s7
9d0044f8:	254a0001 	addiu	t2,t2,1
9d0044fc:	1551ff93 	bne	t2,s1,9d00434c <matrix_test+0xbd4>
9d004500:	01334821 	addu	t1,t1,s3
9d004504:	0f401c08 	jal	9d007020 <crc16>
9d004508:	8fa50010 	lw	a1,16(sp)
9d00450c:	8fb90050 	lw	t9,80(sp)
9d004510:	8fb6004c 	lw	s6,76(sp)
9d004514:	8fad0054 	lw	t5,84(sp)
9d004518:	00002821 	move	a1,zero
9d00451c:	02c06021 	move	t4,s6
9d004520:	00005821 	move	t3,zero
9d004524:	01a05021 	move	t2,t5
9d004528:	87230000 	lh	v1,0(t9)
9d00452c:	854e0000 	lh	t6,0(t2)
9d004530:	24090001 	li	t1,1
9d004534:	2635ffff 	addiu	s5,s1,-1
9d004538:	706ef002 	mul	s8,v1,t6
9d00453c:	0131f82b 	sltu	ra,t1,s1
9d004540:	32b70003 	andi	s7,s5,0x3
9d004544:	27240002 	addiu	a0,t9,2
9d004548:	01501821 	addu	v1,t2,s0
9d00454c:	7fd83140 	ext	t8,s8,0x5,0x7
9d004550:	7fc71880 	ext	a3,s8,0x2,0x4
9d004554:	13e00051 	beqz	ra,9d00469c <matrix_test+0xf24>
9d004558:	7307f002 	mul	s8,t8,a3
9d00455c:	52e0002a 	beqzl	s7,9d004608 <matrix_test+0xe90>
9d004560:	84870000 	lh	a3,0(a0)
9d004564:	52e9001b 	beql	s7,t1,9d0045d4 <matrix_test+0xe5c>
9d004568:	848f0000 	lh	t7,0(a0)
9d00456c:	24060002 	li	a2,2
9d004570:	52e6000d 	beql	s7,a2,9d0045a8 <matrix_test+0xe30>
9d004574:	84970000 	lh	s7,0(a0)
9d004578:	84880000 	lh	t0,0(a0)
9d00457c:	846f0000 	lh	t7,0(v1)
9d004580:	24090002 	li	t1,2
9d004584:	27240004 	addiu	a0,t9,4
9d004588:	00701821 	addu	v1,v1,s0
9d00458c:	710f7002 	mul	t6,t0,t7
9d004590:	03c00013 	mtlo	s8
9d004594:	7dd53140 	ext	s5,t6,0x5,0x7
9d004598:	7ddf1880 	ext	ra,t6,0x2,0x4
9d00459c:	72bf0000 	madd	s5,ra
9d0045a0:	0000f012 	mflo	s8
9d0045a4:	84970000 	lh	s7,0(a0)
9d0045a8:	84780000 	lh	t8,0(v1)
9d0045ac:	25290001 	addiu	t1,t1,1
9d0045b0:	24840002 	addiu	a0,a0,2
9d0045b4:	72f83002 	mul	a2,s7,t8
9d0045b8:	00701821 	addu	v1,v1,s0
9d0045bc:	03c00013 	mtlo	s8
9d0045c0:	7cc73140 	ext	a3,a2,0x5,0x7
9d0045c4:	7cc81880 	ext	t0,a2,0x2,0x4
9d0045c8:	70e80000 	madd	a3,t0
9d0045cc:	0000f012 	mflo	s8
9d0045d0:	848f0000 	lh	t7,0(a0)
9d0045d4:	846e0000 	lh	t6,0(v1)
9d0045d8:	25290001 	addiu	t1,t1,1
9d0045dc:	0131a82b 	sltu	s5,t1,s1
9d0045e0:	71eef802 	mul	ra,t7,t6
9d0045e4:	24840002 	addiu	a0,a0,2
9d0045e8:	00701821 	addu	v1,v1,s0
9d0045ec:	03c00013 	mtlo	s8
9d0045f0:	7ff73140 	ext	s7,ra,0x5,0x7
9d0045f4:	7ff81880 	ext	t8,ra,0x2,0x4
9d0045f8:	72f80000 	madd	s7,t8
9d0045fc:	12a00027 	beqz	s5,9d00469c <matrix_test+0xf24>
9d004600:	0000f012 	mflo	s8
9d004604:	84870000 	lh	a3,0(a0)
9d004608:	84660000 	lh	a2,0(v1)
9d00460c:	00704021 	addu	t0,v1,s0
9d004610:	849f0002 	lh	ra,2(a0)
9d004614:	70e67802 	mul	t7,a3,a2
9d004618:	850e0000 	lh	t6,0(t0)
9d00461c:	01101821 	addu	v1,t0,s0
9d004620:	0070b821 	addu	s7,v1,s0
9d004624:	84750000 	lh	s5,0(v1)
9d004628:	86e70000 	lh	a3,0(s7)
9d00462c:	02f01821 	addu	v1,s7,s0
9d004630:	84880004 	lh	t0,4(a0)
9d004634:	84860006 	lh	a2,6(a0)
9d004638:	25290004 	addiu	t1,t1,4
9d00463c:	0131c02b 	sltu	t8,t1,s1
9d004640:	24840008 	addiu	a0,a0,8
9d004644:	73ee7002 	mul	t6,ra,t6
9d004648:	7df73140 	ext	s7,t7,0x5,0x7
9d00464c:	7def1880 	ext	t7,t7,0x2,0x4
9d004650:	03c00013 	mtlo	s8
9d004654:	7ddf3140 	ext	ra,t6,0x5,0x7
9d004658:	72ef0000 	madd	s7,t7
9d00465c:	7dd71880 	ext	s7,t6,0x2,0x4
9d004660:	0000f012 	mflo	s8
9d004664:	71154002 	mul	t0,t0,s5
9d004668:	03c00013 	mtlo	s8
9d00466c:	7d0f3140 	ext	t7,t0,0x5,0x7
9d004670:	7d0e1880 	ext	t6,t0,0x2,0x4
9d004674:	73f70000 	madd	ra,s7
9d004678:	0000a812 	mflo	s5
9d00467c:	70c73802 	mul	a3,a2,a3
9d004680:	02a00013 	mtlo	s5
9d004684:	7cfe1880 	ext	s8,a3,0x2,0x4
9d004688:	7ce63140 	ext	a2,a3,0x5,0x7
9d00468c:	71ee0000 	madd	t7,t6
9d004690:	70de0000 	madd	a2,s8
9d004694:	1700ffdb 	bnez	t8,9d004604 <matrix_test+0xe8c>
9d004698:	0000f012 	mflo	s8
9d00469c:	256b0001 	addiu	t3,t3,1
9d0046a0:	0171482b 	sltu	t1,t3,s1
9d0046a4:	ad9e0000 	sw	s8,0(t4)
9d0046a8:	254a0002 	addiu	t2,t2,2
9d0046ac:	1520ff9e 	bnez	t1,9d004528 <matrix_test+0xdb0>
9d0046b0:	258c0004 	addiu	t4,t4,4
9d0046b4:	24a50001 	addiu	a1,a1,1
9d0046b8:	00b1602b 	sltu	t4,a1,s1
9d0046bc:	0330c821 	addu	t9,t9,s0
9d0046c0:	1580ff96 	bnez	t4,9d00451c <matrix_test+0xda4>
9d0046c4:	02d3b021 	addu	s6,s6,s3
9d0046c8:	8fab004c 	lw	t3,76(sp)
9d0046cc:	00005021 	move	t2,zero
9d0046d0:	00002021 	move	a0,zero
9d0046d4:	0000c021 	move	t8,zero
9d0046d8:	00003821 	move	a3,zero
9d0046dc:	8d790000 	lw	t9,0(t3)
9d0046e0:	3085ffff 	andi	a1,a0,0xffff
9d0046e4:	24b6000a 	addiu	s6,a1,10
9d0046e8:	0319682a 	slt	t5,t8,t9
9d0046ec:	03273821 	addu	a3,t9,a3
9d0046f0:	00ad1821 	addu	v1,a1,t5
9d0046f4:	2678fffc 	addiu	t8,s3,-4
9d0046f8:	0247b82a 	slt	s7,s2,a3
9d0046fc:	7c162620 	seh	a0,s6
9d004700:	7c03fe20 	seh	ra,v1
9d004704:	24050004 	li	a1,4
9d004708:	7f150880 	ext	s5,t8,0x2,0x2
9d00470c:	0017380b 	movn	a3,zero,s7
9d004710:	03f7200a 	movz	a0,ra,s7
9d004714:	1265005a 	beq	s3,a1,9d004880 <matrix_test+0x1108>
9d004718:	0320c021 	move	t8,t9
9d00471c:	12a0002d 	beqz	s5,9d0047d4 <matrix_test+0x105c>
9d004720:	240f0001 	li	t7,1
9d004724:	12af001d 	beq	s5,t7,9d00479c <matrix_test+0x1024>
9d004728:	240e0002 	li	t6,2
9d00472c:	52ae000f 	beql	s5,t6,9d00476c <matrix_test+0xff4>
9d004730:	7d65b00a 	lwx	s6,a1(t3)
9d004734:	8d660004 	lw	a2,4(t3)
9d004738:	309effff 	andi	s8,a0,0xffff
9d00473c:	27c9000a 	addiu	t1,s8,10
9d004740:	0326402a 	slt	t0,t9,a2
9d004744:	00c73821 	addu	a3,a2,a3
9d004748:	03c86021 	addu	t4,s8,t0
9d00474c:	0247282a 	slt	a1,s2,a3
9d004750:	7c092620 	seh	a0,t1
9d004754:	7c0cce20 	seh	t9,t4
9d004758:	0005380b 	movn	a3,zero,a1
9d00475c:	0325200a 	movz	a0,t9,a1
9d004760:	00c0c021 	move	t8,a2
9d004764:	24050008 	li	a1,8
9d004768:	7d65b00a 	lwx	s6,a1(t3)
9d00476c:	308dffff 	andi	t5,a0,0xffff
9d004770:	25a4000a 	addiu	a0,t5,10
9d004774:	0316182a 	slt	v1,t8,s6
9d004778:	02c73821 	addu	a3,s6,a3
9d00477c:	01a3c021 	addu	t8,t5,v1
9d004780:	7c18fe20 	seh	ra,t8
9d004784:	0247b82a 	slt	s7,s2,a3
9d004788:	7c042620 	seh	a0,a0
9d00478c:	0017380b 	movn	a3,zero,s7
9d004790:	03f7200a 	movz	a0,ra,s7
9d004794:	24a50004 	addiu	a1,a1,4
9d004798:	02c0c021 	move	t8,s6
9d00479c:	7d65a80a 	lwx	s5,a1(t3)
9d0047a0:	308fffff 	andi	t7,a0,0xffff
9d0047a4:	25ee000a 	addiu	t6,t7,10
9d0047a8:	0315302a 	slt	a2,t8,s5
9d0047ac:	02a73821 	addu	a3,s5,a3
9d0047b0:	01e6f021 	addu	s8,t7,a2
9d0047b4:	0247402a 	slt	t0,s2,a3
9d0047b8:	7c0e2620 	seh	a0,t6
9d0047bc:	7c1e4e20 	seh	t1,s8
9d0047c0:	24a50004 	addiu	a1,a1,4
9d0047c4:	0008380b 	movn	a3,zero,t0
9d0047c8:	0128200a 	movz	a0,t1,t0
9d0047cc:	1265002c 	beq	s3,a1,9d004880 <matrix_test+0x1108>
9d0047d0:	02a0c021 	move	t8,s5
9d0047d4:	7d65600a 	lwx	t4,a1(t3)
9d0047d8:	24b90004 	addiu	t9,a1,4
9d0047dc:	7d79f80a 	lwx	ra,t9(t3)
9d0047e0:	3096ffff 	andi	s6,a0,0xffff
9d0047e4:	01876821 	addu	t5,t4,a3
9d0047e8:	030c202a 	slt	a0,t8,t4
9d0047ec:	26d7000a 	addiu	s7,s6,10
9d0047f0:	02c4a821 	addu	s5,s6,a0
9d0047f4:	024d182a 	slt	v1,s2,t5
9d0047f8:	0003680b 	movn	t5,zero,v1
9d0047fc:	02e3a80b 	movn	s5,s7,v1
9d004800:	24af0008 	addiu	t7,a1,8
9d004804:	03ed7021 	addu	t6,ra,t5
9d004808:	019f382a 	slt	a3,t4,ra
9d00480c:	7d6ff00a 	lwx	s8,t7(t3)
9d004810:	32a6ffff 	andi	a2,s5,0xffff
9d004814:	00c74021 	addu	t0,a2,a3
9d004818:	024ec02a 	slt	t8,s2,t6
9d00481c:	24c9000a 	addiu	t1,a2,10
9d004820:	0018700b 	movn	t6,zero,t8
9d004824:	0118480a 	movz	t1,t0,t8
9d004828:	24ac000c 	addiu	t4,a1,12
9d00482c:	03cec821 	addu	t9,s8,t6
9d004830:	3136ffff 	andi	s6,t1,0xffff
9d004834:	03fe682a 	slt	t5,ra,s8
9d004838:	7d6cc00a 	lwx	t8,t4(t3)
9d00483c:	0259202a 	slt	a0,s2,t9
9d004840:	26df000a 	addiu	ra,s6,10
9d004844:	02cdb821 	addu	s7,s6,t5
9d004848:	03e4b80b 	movn	s7,ra,a0
9d00484c:	0004c80b 	movn	t9,zero,a0
9d004850:	32e3ffff 	andi	v1,s7,0xffff
9d004854:	03d8782a 	slt	t7,s8,t8
9d004858:	03193821 	addu	a3,t8,t9
9d00485c:	246e000a 	addiu	t6,v1,10
9d004860:	006f3021 	addu	a2,v1,t7
9d004864:	0247482a 	slt	t1,s2,a3
9d004868:	7c0e2620 	seh	a0,t6
9d00486c:	7c06f620 	seh	s8,a2
9d004870:	24a50010 	addiu	a1,a1,16
9d004874:	0009380b 	movn	a3,zero,t1
9d004878:	1665ffd6 	bne	s3,a1,9d0047d4 <matrix_test+0x105c>
9d00487c:	03c9200a 	movz	a0,s8,t1
9d004880:	254a0001 	addiu	t2,t2,1
9d004884:	1551ff95 	bne	t2,s1,9d0046dc <matrix_test+0xf64>
9d004888:	01735821 	addu	t3,t3,s3
9d00488c:	0f401c08 	jal	9d007020 <crc16>
9d004890:	00402821 	move	a1,v0
9d004894:	8fa50050 	lw	a1,80(sp)
9d004898:	24060001 	li	a2,1
9d00489c:	263effff 	addiu	s8,s1,-1
9d0048a0:	0231300b 	movn	a2,s1,s1
9d0048a4:	00003821 	move	a3,zero
9d0048a8:	00004021 	move	t0,zero
9d0048ac:	0011f00a 	movz	s8,zero,s1
9d0048b0:	240a0002 	li	t2,2
9d0048b4:	2cc90003 	sltiu	t1,a2,3
9d0048b8:	00a07821 	move	t7,a1
9d0048bc:	7cb30040 	ext	s3,a1,0x1,0x1
9d0048c0:	00d3902b 	sltu	s2,a2,s3
9d0048c4:	00d2980b 	movn	s3,a2,s2
9d0048c8:	1120009a 	beqz	t1,9d004b34 <matrix_test+0x13bc>
9d0048cc:	0260c021 	move	t8,s3
9d0048d0:	94ad0000 	lhu	t5,0(a1)
9d0048d4:	00c0c021 	move	t8,a2
9d0048d8:	240c0001 	li	t4,1
9d0048dc:	01b4f823 	subu	ra,t5,s4
9d0048e0:	14ca0005 	bne	a2,t2,9d0048f8 <matrix_test+0x1180>
9d0048e4:	a4bf0000 	sh	ra,0(a1)
9d0048e8:	94b70002 	lhu	s7,2(a1)
9d0048ec:	240c0002 	li	t4,2
9d0048f0:	02f42023 	subu	a0,s7,s4
9d0048f4:	a4a40002 	sh	a0,2(a1)
9d0048f8:	50d80077 	beql	a2,t8,9d004ad8 <matrix_test+0x1360>
9d0048fc:	25080001 	addiu	t0,t0,1
9d004900:	00d85823 	subu	t3,a2,t8
9d004904:	2575fffe 	addiu	s5,t3,-2
9d004908:	00157042 	srl	t6,s5,0x1
9d00490c:	25d20001 	addiu	s2,t6,1
9d004910:	13d8006a 	beq	s8,t8,9d004abc <matrix_test+0x1344>
9d004914:	00129840 	sll	s3,s2,0x1
9d004918:	03071821 	addu	v1,t8,a3
9d00491c:	0003c040 	sll	t8,v1,0x1
9d004920:	01f8c821 	addu	t9,t7,t8
9d004924:	8f240000 	lw	a0,0(t9)
9d004928:	0000f821 	move	ra,zero
9d00492c:	7e9f7804 	ins	ra,s4,0x0,0x10
9d004930:	24180001 	li	t8,1
9d004934:	7e9ffc04 	ins	ra,s4,0x10,0x10
9d004938:	272d0004 	addiu	t5,t9,4
9d00493c:	0312b02b 	sltu	s6,t8,s2
9d004940:	31d70007 	andi	s7,t6,0x7
9d004944:	7c9faad0 	subq.ph	s5,a0,ra
9d004948:	01a07021 	move	t6,t5
9d00494c:	12c00059 	beqz	s6,9d004ab4 <matrix_test+0x133c>
9d004950:	af350000 	sw	s5,0(t9)
9d004954:	52e0003b 	beqzl	s7,9d004a44 <matrix_test+0x12cc>
9d004958:	8dc40000 	lw	a0,0(t6)
9d00495c:	12f80030 	beq	s7,t8,9d004a20 <matrix_test+0x12a8>
9d004960:	24030002 	li	v1,2
9d004964:	52e30029 	beql	s7,v1,9d004a0c <matrix_test+0x1294>
9d004968:	8dd60000 	lw	s6,0(t6)
9d00496c:	24040003 	li	a0,3
9d004970:	12e4001f 	beq	s7,a0,9d0049f0 <matrix_test+0x1278>
9d004974:	24160004 	li	s6,4
9d004978:	12f60017 	beq	s7,s6,9d0049d8 <matrix_test+0x1260>
9d00497c:	24150005 	li	s5,5
9d004980:	12f5000f 	beq	s7,s5,9d0049c0 <matrix_test+0x1248>
9d004984:	24030006 	li	v1,6
9d004988:	52e30008 	beql	s7,v1,9d0049ac <matrix_test+0x1234>
9d00498c:	8dd90000 	lw	t9,0(t6)
9d004990:	8f2e0004 	lw	t6,4(t9)
9d004994:	272d0008 	addiu	t5,t9,8
9d004998:	24180002 	li	t8,2
9d00499c:	7ddfbad0 	subq.ph	s7,t6,ra
9d0049a0:	01a07021 	move	t6,t5
9d0049a4:	af370004 	sw	s7,4(t9)
9d0049a8:	8dd90000 	lw	t9,0(t6)
9d0049ac:	27180001 	addiu	t8,t8,1
9d0049b0:	25ce0004 	addiu	t6,t6,4
9d0049b4:	7f3f22d0 	subq.ph	a0,t9,ra
9d0049b8:	25ad0004 	addiu	t5,t5,4
9d0049bc:	ada4fffc 	sw	a0,-4(t5)
9d0049c0:	8dd60000 	lw	s6,0(t6)
9d0049c4:	27180001 	addiu	t8,t8,1
9d0049c8:	25ce0004 	addiu	t6,t6,4
9d0049cc:	7edfaad0 	subq.ph	s5,s6,ra
9d0049d0:	25ad0004 	addiu	t5,t5,4
9d0049d4:	adb5fffc 	sw	s5,-4(t5)
9d0049d8:	8dc30000 	lw	v1,0(t6)
9d0049dc:	27180001 	addiu	t8,t8,1
9d0049e0:	25ce0004 	addiu	t6,t6,4
9d0049e4:	7c7fbad0 	subq.ph	s7,v1,ra
9d0049e8:	25ad0004 	addiu	t5,t5,4
9d0049ec:	adb7fffc 	sw	s7,-4(t5)
9d0049f0:	8dd90000 	lw	t9,0(t6)
9d0049f4:	27180001 	addiu	t8,t8,1
9d0049f8:	25ce0004 	addiu	t6,t6,4
9d0049fc:	7f3f22d0 	subq.ph	a0,t9,ra
9d004a00:	25ad0004 	addiu	t5,t5,4
9d004a04:	ada4fffc 	sw	a0,-4(t5)
9d004a08:	8dd60000 	lw	s6,0(t6)
9d004a0c:	27180001 	addiu	t8,t8,1
9d004a10:	25ce0004 	addiu	t6,t6,4
9d004a14:	7edfaad0 	subq.ph	s5,s6,ra
9d004a18:	25ad0004 	addiu	t5,t5,4
9d004a1c:	adb5fffc 	sw	s5,-4(t5)
9d004a20:	8dc30000 	lw	v1,0(t6)
9d004a24:	27180001 	addiu	t8,t8,1
9d004a28:	0312b82b 	sltu	s7,t8,s2
9d004a2c:	7c7fcad0 	subq.ph	t9,v1,ra
9d004a30:	25ad0004 	addiu	t5,t5,4
9d004a34:	adb9fffc 	sw	t9,-4(t5)
9d004a38:	12e0001e 	beqz	s7,9d004ab4 <matrix_test+0x133c>
9d004a3c:	25ce0004 	addiu	t6,t6,4
9d004a40:	8dc40000 	lw	a0,0(t6)
9d004a44:	27180008 	addiu	t8,t8,8
9d004a48:	0312b02b 	sltu	s6,t8,s2
9d004a4c:	7c9faad0 	subq.ph	s5,a0,ra
9d004a50:	adb50000 	sw	s5,0(t5)
9d004a54:	8dc30004 	lw	v1,4(t6)
9d004a58:	25ad0020 	addiu	t5,t5,32
9d004a5c:	25ce0020 	addiu	t6,t6,32
9d004a60:	7c7fbad0 	subq.ph	s7,v1,ra
9d004a64:	adb7ffe4 	sw	s7,-28(t5)
9d004a68:	8dd9ffe8 	lw	t9,-24(t6)
9d004a6c:	7f3f22d0 	subq.ph	a0,t9,ra
9d004a70:	ada4ffe8 	sw	a0,-24(t5)
9d004a74:	8dd5ffec 	lw	s5,-20(t6)
9d004a78:	7ebf1ad0 	subq.ph	v1,s5,ra
9d004a7c:	ada3ffec 	sw	v1,-20(t5)
9d004a80:	8dd7fff0 	lw	s7,-16(t6)
9d004a84:	7effcad0 	subq.ph	t9,s7,ra
9d004a88:	adb9fff0 	sw	t9,-16(t5)
9d004a8c:	8dc4fff4 	lw	a0,-12(t6)
9d004a90:	7c9faad0 	subq.ph	s5,a0,ra
9d004a94:	adb5fff4 	sw	s5,-12(t5)
9d004a98:	8dc3fff8 	lw	v1,-8(t6)
9d004a9c:	7c7fbad0 	subq.ph	s7,v1,ra
9d004aa0:	adb7fff8 	sw	s7,-8(t5)
9d004aa4:	8dd9fffc 	lw	t9,-4(t6)
9d004aa8:	7f3f22d0 	subq.ph	a0,t9,ra
9d004aac:	16c0ffe4 	bnez	s6,9d004a40 <matrix_test+0x12c8>
9d004ab0:	ada4fffc 	sw	a0,-4(t5)
9d004ab4:	11730007 	beq	t3,s3,9d004ad4 <matrix_test+0x135c>
9d004ab8:	01936021 	addu	t4,t4,s3
9d004abc:	00ec6021 	addu	t4,a3,t4
9d004ac0:	000c5840 	sll	t3,t4,0x1
9d004ac4:	01eb9021 	addu	s2,t7,t3
9d004ac8:	96530000 	lhu	s3,0(s2)
9d004acc:	0274f823 	subu	ra,s3,s4
9d004ad0:	a65f0000 	sh	ra,0(s2)
9d004ad4:	25080001 	addiu	t0,t0,1
9d004ad8:	0111c02b 	sltu	t8,t0,s1
9d004adc:	00b02821 	addu	a1,a1,s0
9d004ae0:	1700ff76 	bnez	t8,9d0048bc <matrix_test+0x1144>
9d004ae4:	00f13821 	addu	a3,a3,s1
9d004ae8:	8fbf0044 	lw	ra,68(sp)
9d004aec:	8fbe0040 	lw	s8,64(sp)
9d004af0:	8fb7003c 	lw	s7,60(sp)
9d004af4:	8fb60038 	lw	s6,56(sp)
9d004af8:	8fb50034 	lw	s5,52(sp)
9d004afc:	8fb40030 	lw	s4,48(sp)
9d004b00:	8fb3002c 	lw	s3,44(sp)
9d004b04:	8fb20028 	lw	s2,40(sp)
9d004b08:	8fb10024 	lw	s1,36(sp)
9d004b0c:	8fb00020 	lw	s0,32(sp)
9d004b10:	7c021620 	seh	v0,v0
9d004b14:	03e00008 	jr	ra
9d004b18:	27bd0048 	addiu	sp,sp,72
9d004b1c:	94e50002 	lhu	a1,2(a3)
9d004b20:	24080002 	li	t0,2
9d004b24:	24060002 	li	a2,2
9d004b28:	02852021 	addu	a0,s4,a1
9d004b2c:	1000fb3a 	b	9d003818 <matrix_test+0xa0>
9d004b30:	a4e40002 	sh	a0,2(a3)
9d004b34:	1260ff72 	beqz	s3,9d004900 <matrix_test+0x1188>
9d004b38:	00006021 	move	t4,zero
9d004b3c:	94b90000 	lhu	t9,0(a1)
9d004b40:	240c0001 	li	t4,1
9d004b44:	0334b023 	subu	s6,t9,s4
9d004b48:	1000ff6b 	b	9d0048f8 <matrix_test+0x1180>
9d004b4c:	a4b60000 	sh	s6,0(a1)
9d004b50:	0f401c08 	jal	9d007020 <crc16>
9d004b54:	00002821 	move	a1,zero
9d004b58:	00402821 	move	a1,v0
9d004b5c:	0f401c08 	jal	9d007020 <crc16>
9d004b60:	00002021 	move	a0,zero
9d004b64:	00402821 	move	a1,v0
9d004b68:	0f401c08 	jal	9d007020 <crc16>
9d004b6c:	00002021 	move	a0,zero
9d004b70:	00402821 	move	a1,v0
9d004b74:	0f401c08 	jal	9d007020 <crc16>
9d004b78:	00002021 	move	a0,zero
9d004b7c:	8fbf0044 	lw	ra,68(sp)
9d004b80:	8fbe0040 	lw	s8,64(sp)
9d004b84:	8fb7003c 	lw	s7,60(sp)
9d004b88:	8fb60038 	lw	s6,56(sp)
9d004b8c:	8fb50034 	lw	s5,52(sp)
9d004b90:	8fb40030 	lw	s4,48(sp)
9d004b94:	8fb3002c 	lw	s3,44(sp)
9d004b98:	8fb20028 	lw	s2,40(sp)
9d004b9c:	8fb10024 	lw	s1,36(sp)
9d004ba0:	8fb00020 	lw	s0,32(sp)
9d004ba4:	7c021620 	seh	v0,v0
9d004ba8:	03e00008 	jr	ra
9d004bac:	27bd0048 	addiu	sp,sp,72
9d004bb0:	94e90000 	lhu	t1,0(a3)
9d004bb4:	24080001 	li	t0,1
9d004bb8:	24060001 	li	a2,1
9d004bbc:	02899821 	addu	s3,s4,t1
9d004bc0:	1000fb15 	b	9d003818 <matrix_test+0xa0>
9d004bc4:	a4f30000 	sh	s3,0(a3)

9d004bc8 <core_bench_matrix>:
9d004bc8:	00801021 	move	v0,a0
9d004bcc:	8c48000c 	lw	t0,12(v0)
9d004bd0:	8c430004 	lw	v1,4(v0)
9d004bd4:	8c840000 	lw	a0,0(a0)
9d004bd8:	8c470008 	lw	a3,8(v0)
9d004bdc:	27bdffe0 	addiu	sp,sp,-32
9d004be0:	7c052e20 	seh	a1,a1
9d004be4:	afb00018 	sw	s0,24(sp)
9d004be8:	afa50010 	sw	a1,16(sp)
9d004bec:	30d0ffff 	andi	s0,a2,0xffff
9d004bf0:	01002821 	move	a1,t0
9d004bf4:	afbf001c 	sw	ra,28(sp)
9d004bf8:	0f400dde 	jal	9d003778 <matrix_test>
9d004bfc:	00603021 	move	a2,v1
9d004c00:	8fbf001c 	lw	ra,28(sp)
9d004c04:	02002821 	move	a1,s0
9d004c08:	8fb00018 	lw	s0,24(sp)
9d004c0c:	00402021 	move	a0,v0
9d004c10:	0b401c08 	j	9d007020 <crc16>
9d004c14:	27bd0020 	addiu	sp,sp,32

9d004c18 <core_init_matrix>:
9d004c18:	27bdffe8 	addiu	sp,sp,-24
9d004c1c:	24020001 	li	v0,1
9d004c20:	0046300a 	movz	a2,v0,a2
9d004c24:	afb40014 	sw	s4,20(sp)
9d004c28:	afb30010 	sw	s3,16(sp)
9d004c2c:	afb2000c 	sw	s2,12(sp)
9d004c30:	afb10008 	sw	s1,8(sp)
9d004c34:	108000b6 	beqz	a0,9d004f10 <core_init_matrix+0x2f8>
9d004c38:	afb00004 	sw	s0,4(sp)
9d004c3c:	00001021 	move	v0,zero
9d004c40:	24510001 	addiu	s1,v0,1
9d004c44:	72314802 	mul	t1,s1,s1
9d004c48:	262b0001 	addiu	t3,s1,1
9d004c4c:	25680001 	addiu	t0,t3,1
9d004c50:	262c0003 	addiu	t4,s1,3
9d004c54:	26320004 	addiu	s2,s1,4
9d004c58:	26330005 	addiu	s3,s1,5
9d004c5c:	262f0006 	addiu	t7,s1,6
9d004c60:	26380007 	addiu	t8,s1,7
9d004c64:	0009a0c0 	sll	s4,t1,0x3
9d004c68:	0284182b 	sltu	v1,s4,a0
9d004c6c:	10600031 	beqz	v1,9d004d34 <core_init_matrix+0x11c>
9d004c70:	716b5002 	mul	t2,t3,t3
9d004c74:	000ac8c0 	sll	t9,t2,0x3
9d004c78:	0324702b 	sltu	t6,t9,a0
9d004c7c:	02201021 	move	v0,s1
9d004c80:	11c0002c 	beqz	t6,9d004d34 <core_init_matrix+0x11c>
9d004c84:	71088002 	mul	s0,t0,t0
9d004c88:	001048c0 	sll	t1,s0,0x3
9d004c8c:	01601021 	move	v0,t3
9d004c90:	0124582b 	sltu	t3,t1,a0
9d004c94:	11600027 	beqz	t3,9d004d34 <core_init_matrix+0x11c>
9d004c98:	718c6802 	mul	t5,t4,t4
9d004c9c:	000d40c0 	sll	t0,t5,0x3
9d004ca0:	0104502b 	sltu	t2,t0,a0
9d004ca4:	26220002 	addiu	v0,s1,2
9d004ca8:	11400022 	beqz	t2,9d004d34 <core_init_matrix+0x11c>
9d004cac:	72528802 	mul	s1,s2,s2
9d004cb0:	0011a0c0 	sll	s4,s1,0x3
9d004cb4:	0284182b 	sltu	v1,s4,a0
9d004cb8:	01801021 	move	v0,t4
9d004cbc:	1060001d 	beqz	v1,9d004d34 <core_init_matrix+0x11c>
9d004cc0:	72736002 	mul	t4,s3,s3
9d004cc4:	000c80c0 	sll	s0,t4,0x3
9d004cc8:	0204c82b 	sltu	t9,s0,a0
9d004ccc:	02401021 	move	v0,s2
9d004cd0:	13200018 	beqz	t9,9d004d34 <core_init_matrix+0x11c>
9d004cd4:	71ef9002 	mul	s2,t7,t7
9d004cd8:	001270c0 	sll	t6,s2,0x3
9d004cdc:	01c4682b 	sltu	t5,t6,a0
9d004ce0:	02601021 	move	v0,s3
9d004ce4:	11a00013 	beqz	t5,9d004d34 <core_init_matrix+0x11c>
9d004ce8:	73189802 	mul	s3,t8,t8
9d004cec:	01e01021 	move	v0,t7
9d004cf0:	001378c0 	sll	t7,s3,0x3
9d004cf4:	01e4482b 	sltu	t1,t7,a0
9d004cf8:	1120000e 	beqz	t1,9d004d34 <core_init_matrix+0x11c>
9d004cfc:	27110001 	addiu	s1,t8,1
9d004d00:	03001021 	move	v0,t8
9d004d04:	262b0001 	addiu	t3,s1,1
9d004d08:	25680001 	addiu	t0,t3,1
9d004d0c:	262c0003 	addiu	t4,s1,3
9d004d10:	26320004 	addiu	s2,s1,4
9d004d14:	26330005 	addiu	s3,s1,5
9d004d18:	262f0006 	addiu	t7,s1,6
9d004d1c:	26380007 	addiu	t8,s1,7
9d004d20:	72314802 	mul	t1,s1,s1
9d004d24:	0009a0c0 	sll	s4,t1,0x3
9d004d28:	0284182b 	sltu	v1,s4,a0
9d004d2c:	1460ffd1 	bnez	v1,9d004c74 <core_init_matrix+0x5c>
9d004d30:	716b5002 	mul	t2,t3,t3
9d004d34:	70422002 	mul	a0,v0,v0
9d004d38:	24a5ffff 	addiu	a1,a1,-1
9d004d3c:	2418fffc 	li	t8,-4
9d004d40:	00b85824 	and	t3,a1,t8
9d004d44:	256e0004 	addiu	t6,t3,4
9d004d48:	00408021 	move	s0,v0
9d004d4c:	0004c840 	sll	t9,a0,0x1
9d004d50:	1040005f 	beqz	v0,9d004ed0 <core_init_matrix+0x2b8>
9d004d54:	01d96821 	addu	t5,t6,t9
9d004d58:	0000c021 	move	t8,zero
9d004d5c:	240c0001 	li	t4,1
9d004d60:	71868802 	mul	s1,t4,a2
9d004d64:	000c3027 	nor	a2,zero,t4
9d004d68:	00c24021 	addu	t0,a2,v0
9d004d6c:	3194ffff 	andi	s4,t4,0xffff
9d004d70:	25850001 	addiu	a1,t4,1
9d004d74:	010c1821 	addu	v1,t0,t4
9d004d78:	00ac5023 	subu	t2,a1,t4
9d004d7c:	0142902b 	sltu	s2,t2,v0
9d004d80:	30730001 	andi	s3,v1,0x1
9d004d84:	24090002 	li	t1,2
9d004d88:	73027802 	mul	t7,t8,v0
9d004d8c:	001127c3 	sra	a0,s1,0x1f
9d004d90:	00045c02 	srl	t3,a0,0x10
9d004d94:	022b8821 	addu	s1,s1,t3
9d004d98:	3226ffff 	andi	a2,s1,0xffff
9d004d9c:	00cb3023 	subu	a2,a2,t3
9d004da0:	02864021 	addu	t0,s4,a2
9d004da4:	310affff 	andi	t2,t0,0xffff
9d004da8:	0154a021 	addu	s4,t2,s4
9d004dac:	328300ff 	andi	v1,s4,0xff
9d004db0:	000f5840 	sll	t3,t7,0x1
9d004db4:	01ab2021 	addu	a0,t5,t3
9d004db8:	01cb7821 	addu	t7,t6,t3
9d004dbc:	a48a0000 	sh	t2,0(a0)
9d004dc0:	1240003f 	beqz	s2,9d004ec0 <core_init_matrix+0x2a8>
9d004dc4:	a5e30000 	sh	v1,0(t7)
9d004dc8:	52600017 	beqzl	s3,9d004e28 <core_init_matrix+0x210>
9d004dcc:	70a63002 	mul	a2,a1,a2
9d004dd0:	70a69002 	mul	s2,a1,a2
9d004dd4:	30b3ffff 	andi	s3,a1,0xffff
9d004dd8:	25850002 	addiu	a1,t4,2
9d004ddc:	00ac8823 	subu	s1,a1,t4
9d004de0:	0222a02b 	sltu	s4,s1,v0
9d004de4:	25690002 	addiu	t1,t3,2
9d004de8:	01a95021 	addu	t2,t5,t1
9d004dec:	01c94021 	addu	t0,t6,t1
9d004df0:	24090004 	li	t1,4
9d004df4:	001237c3 	sra	a2,s2,0x1f
9d004df8:	00061c02 	srl	v1,a2,0x10
9d004dfc:	02432021 	addu	a0,s2,v1
9d004e00:	308fffff 	andi	t7,a0,0xffff
9d004e04:	01e33023 	subu	a2,t7,v1
9d004e08:	02669021 	addu	s2,s3,a2
9d004e0c:	3251ffff 	andi	s1,s2,0xffff
9d004e10:	02339821 	addu	s3,s1,s3
9d004e14:	326300ff 	andi	v1,s3,0xff
9d004e18:	a5510000 	sh	s1,0(t2)
9d004e1c:	12800028 	beqz	s4,9d004ec0 <core_init_matrix+0x2a8>
9d004e20:	a5030000 	sh	v1,0(t0)
9d004e24:	70a63002 	mul	a2,a1,a2
9d004e28:	24a40001 	addiu	a0,a1,1
9d004e2c:	30b2ffff 	andi	s2,a1,0xffff
9d004e30:	24a50002 	addiu	a1,a1,2
9d004e34:	252a0002 	addiu	t2,t1,2
9d004e38:	00ac1823 	subu	v1,a1,t4
9d004e3c:	014b4021 	addu	t0,t2,t3
9d004e40:	0062502b 	sltu	t2,v1,v0
9d004e44:	3091ffff 	andi	s1,a0,0xffff
9d004e48:	012b7821 	addu	t7,t1,t3
9d004e4c:	01afa021 	addu	s4,t5,t7
9d004e50:	01cf9821 	addu	s3,t6,t7
9d004e54:	01a87821 	addu	t7,t5,t0
9d004e58:	01c84021 	addu	t0,t6,t0
9d004e5c:	25290004 	addiu	t1,t1,4
9d004e60:	00061fc3 	sra	v1,a2,0x1f
9d004e64:	00031c02 	srl	v1,v1,0x10
9d004e68:	00c33021 	addu	a2,a2,v1
9d004e6c:	30c6ffff 	andi	a2,a2,0xffff
9d004e70:	00c31823 	subu	v1,a2,v1
9d004e74:	70832002 	mul	a0,a0,v1
9d004e78:	02433021 	addu	a2,s2,v1
9d004e7c:	30c3ffff 	andi	v1,a2,0xffff
9d004e80:	00729021 	addu	s2,v1,s2
9d004e84:	a6830000 	sh	v1,0(s4)
9d004e88:	324600ff 	andi	a2,s2,0xff
9d004e8c:	a6660000 	sh	a2,0(s3)
9d004e90:	0004a7c3 	sra	s4,a0,0x1f
9d004e94:	00149c02 	srl	s3,s4,0x10
9d004e98:	00932021 	addu	a0,a0,s3
9d004e9c:	3083ffff 	andi	v1,a0,0xffff
9d004ea0:	00733023 	subu	a2,v1,s3
9d004ea4:	02269021 	addu	s2,s1,a2
9d004ea8:	3254ffff 	andi	s4,s2,0xffff
9d004eac:	02918821 	addu	s1,s4,s1
9d004eb0:	323300ff 	andi	s3,s1,0xff
9d004eb4:	a5f40000 	sh	s4,0(t7)
9d004eb8:	1540ffda 	bnez	t2,9d004e24 <core_init_matrix+0x20c>
9d004ebc:	a5130000 	sh	s3,0(t0)
9d004ec0:	27180001 	addiu	t8,t8,1
9d004ec4:	0302582b 	sltu	t3,t8,v0
9d004ec8:	1560ffa5 	bnez	t3,9d004d60 <core_init_matrix+0x148>
9d004ecc:	00a06021 	move	t4,a1
9d004ed0:	01b9c821 	addu	t9,t5,t9
9d004ed4:	2738ffff 	addiu	t8,t9,-1
9d004ed8:	240cfffc 	li	t4,-4
9d004edc:	030c2824 	and	a1,t8,t4
9d004ee0:	24a90004 	addiu	t1,a1,4
9d004ee4:	8fb40014 	lw	s4,20(sp)
9d004ee8:	8fb30010 	lw	s3,16(sp)
9d004eec:	8fb2000c 	lw	s2,12(sp)
9d004ef0:	8fb10008 	lw	s1,8(sp)
9d004ef4:	acf00000 	sw	s0,0(a3)
9d004ef8:	acee0004 	sw	t6,4(a3)
9d004efc:	8fb00004 	lw	s0,4(sp)
9d004f00:	aced0008 	sw	t5,8(a3)
9d004f04:	ace9000c 	sw	t1,12(a3)
9d004f08:	03e00008 	jr	ra
9d004f0c:	27bd0018 	addiu	sp,sp,24
9d004f10:	240dfffc 	li	t5,-4
9d004f14:	24a5ffff 	addiu	a1,a1,-1
9d004f18:	00ad1824 	and	v1,a1,t5
9d004f1c:	2410ffff 	li	s0,-1
9d004f20:	24190002 	li	t9,2
9d004f24:	2402ffff 	li	v0,-1
9d004f28:	246e0004 	addiu	t6,v1,4
9d004f2c:	1000ff8a 	b	9d004d58 <core_init_matrix+0x140>
9d004f30:	246d0006 	addiu	t5,v1,6

9d004f34 <matrix_sum>:
9d004f34:	10800074 	beqz	a0,9d005108 <matrix_sum+0x1d4>
9d004f38:	7c063620 	seh	a2,a2
9d004f3c:	00006021 	move	t4,zero
9d004f40:	00001021 	move	v0,zero
9d004f44:	00003821 	move	a3,zero
9d004f48:	00005021 	move	t2,zero
9d004f4c:	00045880 	sll	t3,a0,0x2
9d004f50:	8caf0000 	lw	t7,0(a1)
9d004f54:	3043ffff 	andi	v1,v0,0xffff
9d004f58:	2462000a 	addiu	v0,v1,10
9d004f5c:	00ef702a 	slt	t6,a3,t7
9d004f60:	014f5021 	addu	t2,t2,t7
9d004f64:	006e4021 	addu	t0,v1,t6
9d004f68:	2567fffc 	addiu	a3,t3,-4
9d004f6c:	00cac02a 	slt	t8,a2,t2
9d004f70:	7c021620 	seh	v0,v0
9d004f74:	7c084e20 	seh	t1,t0
9d004f78:	240d0004 	li	t5,4
9d004f7c:	7cf90880 	ext	t9,a3,0x2,0x2
9d004f80:	0018500b 	movn	t2,zero,t8
9d004f84:	0138100a 	movz	v0,t1,t8
9d004f88:	116d005a 	beq	t3,t5,9d0050f4 <matrix_sum+0x1c0>
9d004f8c:	01e03821 	move	a3,t7
9d004f90:	1320002d 	beqz	t9,9d005048 <matrix_sum+0x114>
9d004f94:	240f0001 	li	t7,1
9d004f98:	132f001d 	beq	t9,t7,9d005010 <matrix_sum+0xdc>
9d004f9c:	24030002 	li	v1,2
9d004fa0:	5323000f 	beql	t9,v1,9d004fe0 <matrix_sum+0xac>
9d004fa4:	7cadc80a 	lwx	t9,t5(a1)
9d004fa8:	8ca80004 	lw	t0,4(a1)
9d004fac:	304dffff 	andi	t5,v0,0xffff
9d004fb0:	25a2000a 	addiu	v0,t5,10
9d004fb4:	00e8702a 	slt	t6,a3,t0
9d004fb8:	01ae3821 	addu	a3,t5,t6
9d004fbc:	01485021 	addu	t2,t2,t0
9d004fc0:	7c074e20 	seh	t1,a3
9d004fc4:	00cac02a 	slt	t8,a2,t2
9d004fc8:	7c021620 	seh	v0,v0
9d004fcc:	0018500b 	movn	t2,zero,t8
9d004fd0:	0138100a 	movz	v0,t1,t8
9d004fd4:	240d0008 	li	t5,8
9d004fd8:	01003821 	move	a3,t0
9d004fdc:	7cadc80a 	lwx	t9,t5(a1)
9d004fe0:	304fffff 	andi	t7,v0,0xffff
9d004fe4:	25e3000a 	addiu	v1,t7,10
9d004fe8:	00f9402a 	slt	t0,a3,t9
9d004fec:	01595021 	addu	t2,t2,t9
9d004ff0:	01e87021 	addu	t6,t7,t0
9d004ff4:	7c0e3e20 	seh	a3,t6
9d004ff8:	00ca482a 	slt	t1,a2,t2
9d004ffc:	7c031620 	seh	v0,v1
9d005000:	00e9100a 	movz	v0,a3,t1
9d005004:	0009500b 	movn	t2,zero,t1
9d005008:	25ad0004 	addiu	t5,t5,4
9d00500c:	03203821 	move	a3,t9
9d005010:	7cadc00a 	lwx	t8,t5(a1)
9d005014:	3059ffff 	andi	t9,v0,0xffff
9d005018:	2722000a 	addiu	v0,t9,10
9d00501c:	00f8782a 	slt	t7,a3,t8
9d005020:	01585021 	addu	t2,t2,t8
9d005024:	032f1821 	addu	v1,t9,t7
9d005028:	00ca702a 	slt	t6,a2,t2
9d00502c:	7c021620 	seh	v0,v0
9d005030:	7c034620 	seh	t0,v1
9d005034:	25ad0004 	addiu	t5,t5,4
9d005038:	000e500b 	movn	t2,zero,t6
9d00503c:	010e100a 	movz	v0,t0,t6
9d005040:	116d002c 	beq	t3,t5,9d0050f4 <matrix_sum+0x1c0>
9d005044:	03003821 	move	a3,t8
9d005048:	7cad480a 	lwx	t1,t5(a1)
9d00504c:	25b80004 	addiu	t8,t5,4
9d005050:	7cb8780a 	lwx	t7,t8(a1)
9d005054:	00e9182a 	slt	v1,a3,t1
9d005058:	3042ffff 	andi	v0,v0,0xffff
9d00505c:	01495021 	addu	t2,t2,t1
9d005060:	2459000a 	addiu	t9,v0,10
9d005064:	00434021 	addu	t0,v0,v1
9d005068:	00ca702a 	slt	t6,a2,t2
9d00506c:	032e400b 	movn	t0,t9,t6
9d005070:	25b80008 	addiu	t8,t5,8
9d005074:	000e500b 	movn	t2,zero,t6
9d005078:	012f382a 	slt	a3,t1,t7
9d00507c:	014f5021 	addu	t2,t2,t7
9d005080:	7cb8480a 	lwx	t1,t8(a1)
9d005084:	3102ffff 	andi	v0,t0,0xffff
9d005088:	2459000a 	addiu	t9,v0,10
9d00508c:	00474021 	addu	t0,v0,a3
9d005090:	00ca182a 	slt	v1,a2,t2
9d005094:	0323400b 	movn	t0,t9,v1
9d005098:	25a2000c 	addiu	v0,t5,12
9d00509c:	0003500b 	movn	t2,zero,v1
9d0050a0:	01e9c82a 	slt	t9,t7,t1
9d0050a4:	01495021 	addu	t2,t2,t1
9d0050a8:	3118ffff 	andi	t8,t0,0xffff
9d0050ac:	7ca2380a 	lwx	a3,v0(a1)
9d0050b0:	270f000a 	addiu	t7,t8,10
9d0050b4:	03194021 	addu	t0,t8,t9
9d0050b8:	00ca182a 	slt	v1,a2,t2
9d0050bc:	01e3400b 	movn	t0,t7,v1
9d0050c0:	310effff 	andi	t6,t0,0xffff
9d0050c4:	0003500b 	movn	t2,zero,v1
9d0050c8:	0127482a 	slt	t1,t1,a3
9d0050cc:	01475021 	addu	t2,t2,a3
9d0050d0:	25c2000a 	addiu	v0,t6,10
9d0050d4:	01c9c021 	addu	t8,t6,t1
9d0050d8:	00ca782a 	slt	t7,a2,t2
9d0050dc:	7c021620 	seh	v0,v0
9d0050e0:	7c18ce20 	seh	t9,t8
9d0050e4:	25ad0010 	addiu	t5,t5,16
9d0050e8:	000f500b 	movn	t2,zero,t7
9d0050ec:	156dffd6 	bne	t3,t5,9d005048 <matrix_sum+0x114>
9d0050f0:	032f100a 	movz	v0,t9,t7
9d0050f4:	258c0001 	addiu	t4,t4,1
9d0050f8:	1584ff95 	bne	t4,a0,9d004f50 <matrix_sum+0x1c>
9d0050fc:	00ab2821 	addu	a1,a1,t3
9d005100:	03e00008 	jr	ra
9d005104:	00000000 	nop
9d005108:	03e00008 	jr	ra
9d00510c:	00001021 	move	v0,zero

9d005110 <matrix_mul_const>:
9d005110:	10800068 	beqz	a0,9d0052b4 <matrix_mul_const+0x1a4>
9d005114:	7c073e20 	seh	a3,a3
9d005118:	27bdfff8 	addiu	sp,sp,-8
9d00511c:	00007021 	move	t6,zero
9d005120:	00047880 	sll	t7,a0,0x2
9d005124:	afb00004 	sw	s0,4(sp)
9d005128:	00046840 	sll	t5,a0,0x1
9d00512c:	84c90000 	lh	t1,0(a2)
9d005130:	25a8fffe 	addiu	t0,t5,-2
9d005134:	24020002 	li	v0,2
9d005138:	71275002 	mul	t2,t1,a3
9d00513c:	7d0b1040 	ext	t3,t0,0x1,0x3
9d005140:	24a30004 	addiu	v1,a1,4
9d005144:	11a20055 	beq	t5,v0,9d00529c <matrix_mul_const+0x18c>
9d005148:	acaa0000 	sw	t2,0(a1)
9d00514c:	11600031 	beqz	t3,9d005214 <matrix_mul_const+0x104>
9d005150:	240c0001 	li	t4,1
9d005154:	516c002a 	beql	t3,t4,9d005200 <matrix_mul_const+0xf0>
9d005158:	7cc2810a 	lhx	s0,v0(a2)
9d00515c:	11620022 	beq	t3,v0,9d0051e8 <matrix_mul_const+0xd8>
9d005160:	24100003 	li	s0,3
9d005164:	1170001b 	beq	t3,s0,9d0051d4 <matrix_mul_const+0xc4>
9d005168:	24180004 	li	t8,4
9d00516c:	11780014 	beq	t3,t8,9d0051c0 <matrix_mul_const+0xb0>
9d005170:	24190005 	li	t9,5
9d005174:	1179000d 	beq	t3,t9,9d0051ac <matrix_mul_const+0x9c>
9d005178:	24090006 	li	t1,6
9d00517c:	51690007 	beql	t3,t1,9d00519c <matrix_mul_const+0x8c>
9d005180:	7cc2590a 	lhx	t3,v0(a2)
9d005184:	84c80002 	lh	t0,2(a2)
9d005188:	24020004 	li	v0,4
9d00518c:	71075002 	mul	t2,t0,a3
9d005190:	ac6a0000 	sw	t2,0(v1)
9d005194:	24a30008 	addiu	v1,a1,8
9d005198:	7cc2590a 	lhx	t3,v0(a2)
9d00519c:	24630004 	addiu	v1,v1,4
9d0051a0:	24420002 	addiu	v0,v0,2
9d0051a4:	71676002 	mul	t4,t3,a3
9d0051a8:	ac6cfffc 	sw	t4,-4(v1)
9d0051ac:	7cc2810a 	lhx	s0,v0(a2)
9d0051b0:	24630004 	addiu	v1,v1,4
9d0051b4:	24420002 	addiu	v0,v0,2
9d0051b8:	7207c002 	mul	t8,s0,a3
9d0051bc:	ac78fffc 	sw	t8,-4(v1)
9d0051c0:	7cc2c90a 	lhx	t9,v0(a2)
9d0051c4:	24630004 	addiu	v1,v1,4
9d0051c8:	24420002 	addiu	v0,v0,2
9d0051cc:	73274802 	mul	t1,t9,a3
9d0051d0:	ac69fffc 	sw	t1,-4(v1)
9d0051d4:	7cc2410a 	lhx	t0,v0(a2)
9d0051d8:	24630004 	addiu	v1,v1,4
9d0051dc:	24420002 	addiu	v0,v0,2
9d0051e0:	71075002 	mul	t2,t0,a3
9d0051e4:	ac6afffc 	sw	t2,-4(v1)
9d0051e8:	7cc2590a 	lhx	t3,v0(a2)
9d0051ec:	24630004 	addiu	v1,v1,4
9d0051f0:	24420002 	addiu	v0,v0,2
9d0051f4:	71676002 	mul	t4,t3,a3
9d0051f8:	ac6cfffc 	sw	t4,-4(v1)
9d0051fc:	7cc2810a 	lhx	s0,v0(a2)
9d005200:	24420002 	addiu	v0,v0,2
9d005204:	24630004 	addiu	v1,v1,4
9d005208:	7207c002 	mul	t8,s0,a3
9d00520c:	11a20023 	beq	t5,v0,9d00529c <matrix_mul_const+0x18c>
9d005210:	ac78fffc 	sw	t8,-4(v1)
9d005214:	24580004 	addiu	t8,v0,4
9d005218:	244c0006 	addiu	t4,v0,6
9d00521c:	244b0008 	addiu	t3,v0,8
9d005220:	244a000a 	addiu	t2,v0,10
9d005224:	2449000c 	addiu	t1,v0,12
9d005228:	2448000e 	addiu	t0,v0,14
9d00522c:	24590002 	addiu	t9,v0,2
9d005230:	7cc2810a 	lhx	s0,v0(a2)
9d005234:	7cd9c90a 	lhx	t9,t9(a2)
9d005238:	7cd8c10a 	lhx	t8,t8(a2)
9d00523c:	7ccc610a 	lhx	t4,t4(a2)
9d005240:	7ccb590a 	lhx	t3,t3(a2)
9d005244:	7cca510a 	lhx	t2,t2(a2)
9d005248:	7cc9490a 	lhx	t1,t1(a2)
9d00524c:	7cc8410a 	lhx	t0,t0(a2)
9d005250:	72078002 	mul	s0,s0,a3
9d005254:	24420010 	addiu	v0,v0,16
9d005258:	24630020 	addiu	v1,v1,32
9d00525c:	7327c802 	mul	t9,t9,a3
9d005260:	ac70ffe0 	sw	s0,-32(v1)
9d005264:	7307c002 	mul	t8,t8,a3
9d005268:	ac79ffe4 	sw	t9,-28(v1)
9d00526c:	71876002 	mul	t4,t4,a3
9d005270:	ac78ffe8 	sw	t8,-24(v1)
9d005274:	71675802 	mul	t3,t3,a3
9d005278:	ac6cffec 	sw	t4,-20(v1)
9d00527c:	71475002 	mul	t2,t2,a3
9d005280:	ac6bfff0 	sw	t3,-16(v1)
9d005284:	71274802 	mul	t1,t1,a3
9d005288:	ac6afff4 	sw	t2,-12(v1)
9d00528c:	71074002 	mul	t0,t0,a3
9d005290:	ac69fff8 	sw	t1,-8(v1)
9d005294:	15a2ffdf 	bne	t5,v0,9d005214 <matrix_mul_const+0x104>
9d005298:	ac68fffc 	sw	t0,-4(v1)
9d00529c:	25ce0001 	addiu	t6,t6,1
9d0052a0:	00af2821 	addu	a1,a1,t7
9d0052a4:	15c4ffa1 	bne	t6,a0,9d00512c <matrix_mul_const+0x1c>
9d0052a8:	00cd3021 	addu	a2,a2,t5
9d0052ac:	8fb00004 	lw	s0,4(sp)
9d0052b0:	27bd0008 	addiu	sp,sp,8
9d0052b4:	03e00008 	jr	ra
9d0052b8:	00000000 	nop

9d0052bc <matrix_add_const>:
9d0052bc:	108000b2 	beqz	a0,9d005588 <matrix_add_const+0x2cc>
9d0052c0:	7c063620 	seh	a2,a2
9d0052c4:	2499fffe 	addiu	t9,a0,-2
9d0052c8:	00191042 	srl	v0,t9,0x1
9d0052cc:	27bdffe0 	addiu	sp,sp,-32
9d0052d0:	24590001 	addiu	t9,v0,1
9d0052d4:	00006821 	move	t5,zero
9d0052d8:	afb2000c 	sw	s2,12(sp)
9d0052dc:	afb10008 	sw	s1,8(sp)
9d0052e0:	afb00004 	sw	s0,4(sp)
9d0052e4:	afb6001c 	sw	s6,28(sp)
9d0052e8:	afb50018 	sw	s5,24(sp)
9d0052ec:	afb40014 	sw	s4,20(sp)
9d0052f0:	afb30010 	sw	s3,16(sp)
9d0052f4:	00007021 	move	t6,zero
9d0052f8:	30ccffff 	andi	t4,a2,0xffff
9d0052fc:	0004c040 	sll	t8,a0,0x1
9d005300:	00a05821 	move	t3,a1
9d005304:	24100002 	li	s0,2
9d005308:	24110001 	li	s1,1
9d00530c:	00199040 	sll	s2,t9,0x1
9d005310:	10000014 	b	9d005364 <matrix_add_const+0xa8>
9d005314:	2c8f0003 	sltiu	t7,a0,3
9d005318:	00804821 	move	t1,a0
9d00531c:	24080001 	li	t0,1
9d005320:	1089000c 	beq	a0,t1,9d005354 <matrix_add_const+0x98>
9d005324:	0089a023 	subu	s4,a0,t1
9d005328:	268afffe 	addiu	t2,s4,-2
9d00532c:	000aa842 	srl	s5,t2,0x1
9d005330:	26aa0001 	addiu	t2,s5,1
9d005334:	1691001f 	bne	s4,s1,9d0053b4 <matrix_add_const+0xf8>
9d005338:	000aa840 	sll	s5,t2,0x1
9d00533c:	010d4021 	addu	t0,t0,t5
9d005340:	0008a040 	sll	s4,t0,0x1
9d005344:	00b45021 	addu	t2,a1,s4
9d005348:	95550000 	lhu	s5,0(t2)
9d00534c:	01951021 	addu	v0,t4,s5
9d005350:	a5420000 	sh	v0,0(t2)
9d005354:	25ce0001 	addiu	t6,t6,1
9d005358:	01785821 	addu	t3,t3,t8
9d00535c:	11c40082 	beq	t6,a0,9d005568 <matrix_add_const+0x2ac>
9d005360:	01a46821 	addu	t5,t5,a0
9d005364:	7d630040 	ext	v1,t3,0x1,0x1
9d005368:	0083382b 	sltu	a3,a0,v1
9d00536c:	0087180b 	movn	v1,a0,a3
9d005370:	11e0000b 	beqz	t7,9d0053a0 <matrix_add_const+0xe4>
9d005374:	00604821 	move	t1,v1
9d005378:	95660000 	lhu	a2,0(t3)
9d00537c:	01861021 	addu	v0,t4,a2
9d005380:	1490ffe5 	bne	a0,s0,9d005318 <matrix_add_const+0x5c>
9d005384:	a5620000 	sh	v0,0(t3)
9d005388:	95630002 	lhu	v1,2(t3)
9d00538c:	24090002 	li	t1,2
9d005390:	24080002 	li	t0,2
9d005394:	01833821 	addu	a3,t4,v1
9d005398:	1000ffe1 	b	9d005320 <matrix_add_const+0x64>
9d00539c:	a5670002 	sh	a3,2(t3)
9d0053a0:	1460007b 	bnez	v1,9d005590 <matrix_add_const+0x2d4>
9d0053a4:	0080a021 	move	s4,a0
9d0053a8:	00004021 	move	t0,zero
9d0053ac:	03205021 	move	t2,t9
9d0053b0:	0240a821 	move	s5,s2
9d0053b4:	012d4821 	addu	t1,t1,t5
9d0053b8:	00099840 	sll	s3,t1,0x1
9d0053bc:	00b31821 	addu	v1,a1,s3
9d0053c0:	8c670000 	lw	a3,0(v1)
9d0053c4:	00001021 	move	v0,zero
9d0053c8:	7d827804 	ins	v0,t4,0x0,0x10
9d0053cc:	24090001 	li	t1,1
9d0053d0:	7d82fc04 	ins	v0,t4,0x10,0x10
9d0053d4:	2553ffff 	addiu	s3,t2,-1
9d0053d8:	24660004 	addiu	a2,v1,4
9d0053dc:	012ab02b 	sltu	s6,t1,t2
9d0053e0:	7c473a90 	addq.ph	a3,v0,a3
9d0053e4:	32730007 	andi	s3,s3,0x7
9d0053e8:	ac670000 	sw	a3,0(v1)
9d0053ec:	12c00058 	beqz	s6,9d005550 <matrix_add_const+0x294>
9d0053f0:	00c03821 	move	a3,a2
9d0053f4:	5260003a 	beqzl	s3,9d0054e0 <matrix_add_const+0x224>
9d0053f8:	8cd60000 	lw	s6,0(a2)
9d0053fc:	1269002f 	beq	s3,t1,9d0054bc <matrix_add_const+0x200>
9d005400:	24160002 	li	s6,2
9d005404:	12760027 	beq	s3,s6,9d0054a4 <matrix_add_const+0x1e8>
9d005408:	24160003 	li	s6,3
9d00540c:	1276001f 	beq	s3,s6,9d00548c <matrix_add_const+0x1d0>
9d005410:	24160004 	li	s6,4
9d005414:	12760017 	beq	s3,s6,9d005474 <matrix_add_const+0x1b8>
9d005418:	24160005 	li	s6,5
9d00541c:	1276000f 	beq	s3,s6,9d00545c <matrix_add_const+0x1a0>
9d005420:	24160006 	li	s6,6
9d005424:	52760008 	beql	s3,s6,9d005448 <matrix_add_const+0x18c>
9d005428:	8cc30000 	lw	v1,0(a2)
9d00542c:	8c730004 	lw	s3,4(v1)
9d005430:	24660008 	addiu	a2,v1,8
9d005434:	24090002 	li	t1,2
9d005438:	7c533a90 	addq.ph	a3,v0,s3
9d00543c:	ac670004 	sw	a3,4(v1)
9d005440:	00c03821 	move	a3,a2
9d005444:	8cc30000 	lw	v1,0(a2)
9d005448:	25290001 	addiu	t1,t1,1
9d00544c:	24c60004 	addiu	a2,a2,4
9d005450:	7c43b290 	addq.ph	s6,v0,v1
9d005454:	24e70004 	addiu	a3,a3,4
9d005458:	acf6fffc 	sw	s6,-4(a3)
9d00545c:	8cd30000 	lw	s3,0(a2)
9d005460:	25290001 	addiu	t1,t1,1
9d005464:	24c60004 	addiu	a2,a2,4
9d005468:	7c531a90 	addq.ph	v1,v0,s3
9d00546c:	24e70004 	addiu	a3,a3,4
9d005470:	ace3fffc 	sw	v1,-4(a3)
9d005474:	8cd60000 	lw	s6,0(a2)
9d005478:	25290001 	addiu	t1,t1,1
9d00547c:	24c60004 	addiu	a2,a2,4
9d005480:	7c569a90 	addq.ph	s3,v0,s6
9d005484:	24e70004 	addiu	a3,a3,4
9d005488:	acf3fffc 	sw	s3,-4(a3)
9d00548c:	8cc30000 	lw	v1,0(a2)
9d005490:	25290001 	addiu	t1,t1,1
9d005494:	24c60004 	addiu	a2,a2,4
9d005498:	7c43b290 	addq.ph	s6,v0,v1
9d00549c:	24e70004 	addiu	a3,a3,4
9d0054a0:	acf6fffc 	sw	s6,-4(a3)
9d0054a4:	8cd30000 	lw	s3,0(a2)
9d0054a8:	25290001 	addiu	t1,t1,1
9d0054ac:	24c60004 	addiu	a2,a2,4
9d0054b0:	7c531a90 	addq.ph	v1,v0,s3
9d0054b4:	24e70004 	addiu	a3,a3,4
9d0054b8:	ace3fffc 	sw	v1,-4(a3)
9d0054bc:	8cd60000 	lw	s6,0(a2)
9d0054c0:	25290001 	addiu	t1,t1,1
9d0054c4:	012a982b 	sltu	s3,t1,t2
9d0054c8:	7c561a90 	addq.ph	v1,v0,s6
9d0054cc:	24c60004 	addiu	a2,a2,4
9d0054d0:	ace30000 	sw	v1,0(a3)
9d0054d4:	1260001e 	beqz	s3,9d005550 <matrix_add_const+0x294>
9d0054d8:	24e70004 	addiu	a3,a3,4
9d0054dc:	8cd60000 	lw	s6,0(a2)
9d0054e0:	25290008 	addiu	t1,t1,8
9d0054e4:	012a982b 	sltu	s3,t1,t2
9d0054e8:	7c561a90 	addq.ph	v1,v0,s6
9d0054ec:	ace30000 	sw	v1,0(a3)
9d0054f0:	8cd60004 	lw	s6,4(a2)
9d0054f4:	24e70020 	addiu	a3,a3,32
9d0054f8:	24c60020 	addiu	a2,a2,32
9d0054fc:	7c561a90 	addq.ph	v1,v0,s6
9d005500:	ace3ffe4 	sw	v1,-28(a3)
9d005504:	8cd6ffe8 	lw	s6,-24(a2)
9d005508:	7c561a90 	addq.ph	v1,v0,s6
9d00550c:	ace3ffe8 	sw	v1,-24(a3)
9d005510:	8cd6ffec 	lw	s6,-20(a2)
9d005514:	7c561a90 	addq.ph	v1,v0,s6
9d005518:	ace3ffec 	sw	v1,-20(a3)
9d00551c:	8cd6fff0 	lw	s6,-16(a2)
9d005520:	7c561a90 	addq.ph	v1,v0,s6
9d005524:	ace3fff0 	sw	v1,-16(a3)
9d005528:	8cd6fff4 	lw	s6,-12(a2)
9d00552c:	7c561a90 	addq.ph	v1,v0,s6
9d005530:	ace3fff4 	sw	v1,-12(a3)
9d005534:	8cd6fff8 	lw	s6,-8(a2)
9d005538:	7c561a90 	addq.ph	v1,v0,s6
9d00553c:	ace3fff8 	sw	v1,-8(a3)
9d005540:	8cd6fffc 	lw	s6,-4(a2)
9d005544:	7c561a90 	addq.ph	v1,v0,s6
9d005548:	1660ffe4 	bnez	s3,9d0054dc <matrix_add_const+0x220>
9d00554c:	ace3fffc 	sw	v1,-4(a3)
9d005550:	1695ff7a 	bne	s4,s5,9d00533c <matrix_add_const+0x80>
9d005554:	01154021 	addu	t0,t0,s5
9d005558:	25ce0001 	addiu	t6,t6,1
9d00555c:	01785821 	addu	t3,t3,t8
9d005560:	15c4ff80 	bne	t6,a0,9d005364 <matrix_add_const+0xa8>
9d005564:	01a46821 	addu	t5,t5,a0
9d005568:	8fb6001c 	lw	s6,28(sp)
9d00556c:	8fb50018 	lw	s5,24(sp)
9d005570:	8fb40014 	lw	s4,20(sp)
9d005574:	8fb30010 	lw	s3,16(sp)
9d005578:	8fb2000c 	lw	s2,12(sp)
9d00557c:	8fb10008 	lw	s1,8(sp)
9d005580:	8fb00004 	lw	s0,4(sp)
9d005584:	27bd0020 	addiu	sp,sp,32
9d005588:	03e00008 	jr	ra
9d00558c:	00000000 	nop
9d005590:	95730000 	lhu	s3,0(t3)
9d005594:	24090001 	li	t1,1
9d005598:	24080001 	li	t0,1
9d00559c:	0193b021 	addu	s6,t4,s3
9d0055a0:	1000ff5f 	b	9d005320 <matrix_add_const+0x64>
9d0055a4:	a5760000 	sh	s6,0(t3)

9d0055a8 <matrix_mul_vect>:
9d0055a8:	10800064 	beqz	a0,9d00573c <matrix_mul_vect+0x194>
9d0055ac:	00000000 	nop
9d0055b0:	27bdfff0 	addiu	sp,sp,-16
9d0055b4:	0000c821 	move	t9,zero
9d0055b8:	00047040 	sll	t6,a0,0x1
9d0055bc:	afb2000c 	sw	s2,12(sp)
9d0055c0:	afb10008 	sw	s1,8(sp)
9d0055c4:	afb00004 	sw	s0,4(sp)
9d0055c8:	84c30000 	lh	v1,0(a2)
9d0055cc:	84e90000 	lh	t1,0(a3)
9d0055d0:	25c8fffe 	addiu	t0,t6,-2
9d0055d4:	24020002 	li	v0,2
9d0055d8:	00690018 	mult	v1,t1
9d0055dc:	104e004d 	beq	v0,t6,9d005714 <matrix_mul_vect+0x16c>
9d0055e0:	7d0b1040 	ext	t3,t0,0x1,0x3
9d0055e4:	1160002a 	beqz	t3,9d005690 <matrix_mul_vect+0xe8>
9d0055e8:	240c0001 	li	t4,1
9d0055ec:	516c0024 	beql	t3,t4,9d005680 <matrix_mul_vect+0xd8>
9d0055f0:	7cc2910a 	lhx	s2,v0(a2)
9d0055f4:	1162001d 	beq	t3,v0,9d00566c <matrix_mul_vect+0xc4>
9d0055f8:	240d0003 	li	t5,3
9d0055fc:	116d0017 	beq	t3,t5,9d00565c <matrix_mul_vect+0xb4>
9d005600:	240f0004 	li	t7,4
9d005604:	116f0011 	beq	t3,t7,9d00564c <matrix_mul_vect+0xa4>
9d005608:	24100005 	li	s0,5
9d00560c:	1170000b 	beq	t3,s0,9d00563c <matrix_mul_vect+0x94>
9d005610:	24110006 	li	s1,6
9d005614:	51710006 	beql	t3,s1,9d005630 <matrix_mul_vect+0x88>
9d005618:	7cc2490a 	lhx	t1,v0(a2)
9d00561c:	84d20002 	lh	s2,2(a2)
9d005620:	84f80002 	lh	t8,2(a3)
9d005624:	24020004 	li	v0,4
9d005628:	72580000 	madd	s2,t8
9d00562c:	7cc2490a 	lhx	t1,v0(a2)
9d005630:	7ce2190a 	lhx	v1,v0(a3)
9d005634:	24420002 	addiu	v0,v0,2
9d005638:	71230000 	madd	t1,v1
9d00563c:	7cc2410a 	lhx	t0,v0(a2)
9d005640:	7ce2510a 	lhx	t2,v0(a3)
9d005644:	24420002 	addiu	v0,v0,2
9d005648:	710a0000 	madd	t0,t2
9d00564c:	7cc2590a 	lhx	t3,v0(a2)
9d005650:	7ce2610a 	lhx	t4,v0(a3)
9d005654:	24420002 	addiu	v0,v0,2
9d005658:	716c0000 	madd	t3,t4
9d00565c:	7cc2690a 	lhx	t5,v0(a2)
9d005660:	7ce2790a 	lhx	t7,v0(a3)
9d005664:	24420002 	addiu	v0,v0,2
9d005668:	71af0000 	madd	t5,t7
9d00566c:	7cc2810a 	lhx	s0,v0(a2)
9d005670:	7ce2890a 	lhx	s1,v0(a3)
9d005674:	24420002 	addiu	v0,v0,2
9d005678:	72110000 	madd	s0,s1
9d00567c:	7cc2910a 	lhx	s2,v0(a2)
9d005680:	7ce2c10a 	lhx	t8,v0(a3)
9d005684:	24420002 	addiu	v0,v0,2
9d005688:	104e0022 	beq	v0,t6,9d005714 <matrix_mul_vect+0x16c>
9d00568c:	72580000 	madd	s2,t8
9d005690:	7cc2490a 	lhx	t1,v0(a2)
9d005694:	7ce2510a 	lhx	t2,v0(a3)
9d005698:	24430002 	addiu	v1,v0,2
9d00569c:	7cc3410a 	lhx	t0,v1(a2)
9d0056a0:	7ce3190a 	lhx	v1,v1(a3)
9d0056a4:	244b0004 	addiu	t3,v0,4
9d0056a8:	7ccb910a 	lhx	s2,t3(a2)
9d0056ac:	7ceb690a 	lhx	t5,t3(a3)
9d0056b0:	244c0006 	addiu	t4,v0,6
9d0056b4:	7ccc890a 	lhx	s1,t4(a2)
9d0056b8:	7cec610a 	lhx	t4,t4(a3)
9d0056bc:	244f0008 	addiu	t7,v0,8
9d0056c0:	7ccf810a 	lhx	s0,t7(a2)
9d0056c4:	7cef590a 	lhx	t3,t7(a3)
9d0056c8:	712a0000 	madd	t1,t2
9d0056cc:	2449000a 	addiu	t1,v0,10
9d0056d0:	7cc9c10a 	lhx	t8,t1(a2)
9d0056d4:	7ce9510a 	lhx	t2,t1(a3)
9d0056d8:	2449000c 	addiu	t1,v0,12
9d0056dc:	7cc9790a 	lhx	t7,t1(a2)
9d0056e0:	7ce9490a 	lhx	t1,t1(a3)
9d0056e4:	71030000 	madd	t0,v1
9d0056e8:	2448000e 	addiu	t0,v0,14
9d0056ec:	7cc8190a 	lhx	v1,t0(a2)
9d0056f0:	7ce8410a 	lhx	t0,t0(a3)
9d0056f4:	24420010 	addiu	v0,v0,16
9d0056f8:	724d0000 	madd	s2,t5
9d0056fc:	722c0000 	madd	s1,t4
9d005700:	720b0000 	madd	s0,t3
9d005704:	730a0000 	madd	t8,t2
9d005708:	71e90000 	madd	t7,t1
9d00570c:	144effe0 	bne	v0,t6,9d005690 <matrix_mul_vect+0xe8>
9d005710:	70680000 	madd	v1,t0
9d005714:	00001012 	mflo	v0
9d005718:	27390001 	addiu	t9,t9,1
9d00571c:	aca20000 	sw	v0,0(a1)
9d005720:	00ce3021 	addu	a2,a2,t6
9d005724:	1724ffa8 	bne	t9,a0,9d0055c8 <matrix_mul_vect+0x20>
9d005728:	24a50004 	addiu	a1,a1,4
9d00572c:	8fb2000c 	lw	s2,12(sp)
9d005730:	8fb10008 	lw	s1,8(sp)
9d005734:	8fb00004 	lw	s0,4(sp)
9d005738:	27bd0010 	addiu	sp,sp,16
9d00573c:	03e00008 	jr	ra
9d005740:	00000000 	nop

9d005744 <matrix_mul_matrix>:
9d005744:	10800084 	beqz	a0,9d005958 <matrix_mul_matrix+0x214>
9d005748:	00000000 	nop
9d00574c:	27bdffe0 	addiu	sp,sp,-32
9d005750:	00006821 	move	t5,zero
9d005754:	00044040 	sll	t0,a0,0x1
9d005758:	afb6001c 	sw	s6,28(sp)
9d00575c:	afb50018 	sw	s5,24(sp)
9d005760:	afb40014 	sw	s4,20(sp)
9d005764:	afb30010 	sw	s3,16(sp)
9d005768:	afb2000c 	sw	s2,12(sp)
9d00576c:	afb10008 	sw	s1,8(sp)
9d005770:	afb00004 	sw	s0,4(sp)
9d005774:	00047080 	sll	t6,a0,0x2
9d005778:	00a06021 	move	t4,a1
9d00577c:	01805821 	move	t3,t4
9d005780:	00005021 	move	t2,zero
9d005784:	00ea1021 	addu	v0,a3,t2
9d005788:	844f0000 	lh	t7,0(v0)
9d00578c:	84c50000 	lh	a1,0(a2)
9d005790:	2509fffe 	addiu	t1,t0,-2
9d005794:	24030002 	li	v1,2
9d005798:	00af0018 	mult	a1,t7
9d00579c:	7d311040 	ext	s1,t1,0x1,0x3
9d0057a0:	1103005c 	beq	t0,v1,9d005914 <matrix_mul_matrix+0x1d0>
9d0057a4:	00481021 	addu	v0,v0,t0
9d0057a8:	12200031 	beqz	s1,9d005870 <matrix_mul_matrix+0x12c>
9d0057ac:	24120001 	li	s2,1
9d0057b0:	5232002a 	beql	s1,s2,9d00585c <matrix_mul_matrix+0x118>
9d0057b4:	7cc3c10a 	lhx	t8,v1(a2)
9d0057b8:	12230022 	beq	s1,v1,9d005844 <matrix_mul_matrix+0x100>
9d0057bc:	24130003 	li	s3,3
9d0057c0:	1233001b 	beq	s1,s3,9d005830 <matrix_mul_matrix+0xec>
9d0057c4:	24140004 	li	s4,4
9d0057c8:	12340014 	beq	s1,s4,9d00581c <matrix_mul_matrix+0xd8>
9d0057cc:	24150005 	li	s5,5
9d0057d0:	1235000d 	beq	s1,s5,9d005808 <matrix_mul_matrix+0xc4>
9d0057d4:	24160006 	li	s6,6
9d0057d8:	52360007 	beql	s1,s6,9d0057f8 <matrix_mul_matrix+0xb4>
9d0057dc:	7cc3790a 	lhx	t7,v1(a2)
9d0057e0:	84590000 	lh	t9,0(v0)
9d0057e4:	84d80002 	lh	t8,2(a2)
9d0057e8:	24030004 	li	v1,4
9d0057ec:	00481021 	addu	v0,v0,t0
9d0057f0:	73190000 	madd	t8,t9
9d0057f4:	7cc3790a 	lhx	t7,v1(a2)
9d0057f8:	84450000 	lh	a1,0(v0)
9d0057fc:	24630002 	addiu	v1,v1,2
9d005800:	00481021 	addu	v0,v0,t0
9d005804:	71e50000 	madd	t7,a1
9d005808:	7cc3490a 	lhx	t1,v1(a2)
9d00580c:	84500000 	lh	s0,0(v0)
9d005810:	24630002 	addiu	v1,v1,2
9d005814:	00481021 	addu	v0,v0,t0
9d005818:	71300000 	madd	t1,s0
9d00581c:	7cc3890a 	lhx	s1,v1(a2)
9d005820:	84520000 	lh	s2,0(v0)
9d005824:	24630002 	addiu	v1,v1,2
9d005828:	00481021 	addu	v0,v0,t0
9d00582c:	72320000 	madd	s1,s2
9d005830:	7cc3990a 	lhx	s3,v1(a2)
9d005834:	84540000 	lh	s4,0(v0)
9d005838:	24630002 	addiu	v1,v1,2
9d00583c:	00481021 	addu	v0,v0,t0
9d005840:	72740000 	madd	s3,s4
9d005844:	7cc3a90a 	lhx	s5,v1(a2)
9d005848:	84560000 	lh	s6,0(v0)
9d00584c:	24630002 	addiu	v1,v1,2
9d005850:	00481021 	addu	v0,v0,t0
9d005854:	72b60000 	madd	s5,s6
9d005858:	7cc3c10a 	lhx	t8,v1(a2)
9d00585c:	84590000 	lh	t9,0(v0)
9d005860:	24630002 	addiu	v1,v1,2
9d005864:	00481021 	addu	v0,v0,t0
9d005868:	1103002a 	beq	t0,v1,9d005914 <matrix_mul_matrix+0x1d0>
9d00586c:	73190000 	madd	t8,t9
9d005870:	7cc3790a 	lhx	t7,v1(a2)
9d005874:	84490000 	lh	t1,0(v0)
9d005878:	00488821 	addu	s1,v0,t0
9d00587c:	24650002 	addiu	a1,v1,2
9d005880:	7cc5a10a 	lhx	s4,a1(a2)
9d005884:	86350000 	lh	s5,0(s1)
9d005888:	02289021 	addu	s2,s1,t0
9d00588c:	24700004 	addiu	s0,v1,4
9d005890:	86510000 	lh	s1,0(s2)
9d005894:	7cd0810a 	lhx	s0,s0(a2)
9d005898:	24730006 	addiu	s3,v1,6
9d00589c:	0248b021 	addu	s6,s2,t0
9d0058a0:	7cd3c90a 	lhx	t9,s3(a2)
9d0058a4:	86d20000 	lh	s2,0(s6)
9d0058a8:	02c81021 	addu	v0,s6,t0
9d0058ac:	71e90000 	madd	t7,t1
9d0058b0:	24780008 	addiu	t8,v1,8
9d0058b4:	84530000 	lh	s3,0(v0)
9d0058b8:	7cd8c10a 	lhx	t8,t8(a2)
9d0058bc:	00482821 	addu	a1,v0,t0
9d0058c0:	246f000a 	addiu	t7,v1,10
9d0058c4:	7ccf790a 	lhx	t7,t7(a2)
9d0058c8:	2469000c 	addiu	t1,v1,12
9d0058cc:	7cc9490a 	lhx	t1,t1(a2)
9d0058d0:	72950000 	madd	s4,s5
9d0058d4:	84b50000 	lh	s5,0(a1)
9d0058d8:	00a8a021 	addu	s4,a1,t0
9d0058dc:	86960000 	lh	s6,0(s4)
9d0058e0:	2465000e 	addiu	a1,v1,14
9d0058e4:	02881021 	addu	v0,s4,t0
9d0058e8:	84540000 	lh	s4,0(v0)
9d0058ec:	7cc5290a 	lhx	a1,a1(a2)
9d0058f0:	24630010 	addiu	v1,v1,16
9d0058f4:	00481021 	addu	v0,v0,t0
9d0058f8:	72110000 	madd	s0,s1
9d0058fc:	73320000 	madd	t9,s2
9d005900:	73130000 	madd	t8,s3
9d005904:	71f50000 	madd	t7,s5
9d005908:	71360000 	madd	t1,s6
9d00590c:	1503ffd8 	bne	t0,v1,9d005870 <matrix_mul_matrix+0x12c>
9d005910:	70b40000 	madd	a1,s4
9d005914:	00001812 	mflo	v1
9d005918:	254a0002 	addiu	t2,t2,2
9d00591c:	ad630000 	sw	v1,0(t3)
9d005920:	150aff98 	bne	t0,t2,9d005784 <matrix_mul_matrix+0x40>
9d005924:	256b0004 	addiu	t3,t3,4
9d005928:	25ad0001 	addiu	t5,t5,1
9d00592c:	00c83021 	addu	a2,a2,t0
9d005930:	15a4ff92 	bne	t5,a0,9d00577c <matrix_mul_matrix+0x38>
9d005934:	018e6021 	addu	t4,t4,t6
9d005938:	8fb6001c 	lw	s6,28(sp)
9d00593c:	8fb50018 	lw	s5,24(sp)
9d005940:	8fb40014 	lw	s4,20(sp)
9d005944:	8fb30010 	lw	s3,16(sp)
9d005948:	8fb2000c 	lw	s2,12(sp)
9d00594c:	8fb10008 	lw	s1,8(sp)
9d005950:	8fb00004 	lw	s0,4(sp)
9d005954:	27bd0020 	addiu	sp,sp,32
9d005958:	03e00008 	jr	ra
9d00595c:	00000000 	nop

9d005960 <matrix_mul_matrix_bitextract>:
9d005960:	10800074 	beqz	a0,9d005b34 <matrix_mul_matrix_bitextract+0x1d4>
9d005964:	00000000 	nop
9d005968:	27bdffe8 	addiu	sp,sp,-24
9d00596c:	0000c021 	move	t8,zero
9d005970:	00045840 	sll	t3,a0,0x1
9d005974:	afb40014 	sw	s4,20(sp)
9d005978:	afb30010 	sw	s3,16(sp)
9d00597c:	afb2000c 	sw	s2,12(sp)
9d005980:	afb10008 	sw	s1,8(sp)
9d005984:	afb00004 	sw	s0,4(sp)
9d005988:	00c06021 	move	t4,a2
9d00598c:	0004c880 	sll	t9,a0,0x2
9d005990:	00a07821 	move	t7,a1
9d005994:	01e07021 	move	t6,t7
9d005998:	00006821 	move	t5,zero
9d00599c:	00ed1021 	addu	v0,a3,t5
9d0059a0:	84460000 	lh	a2,0(v0)
9d0059a4:	85850000 	lh	a1,0(t4)
9d0059a8:	2568fffe 	addiu	t0,t3,-2
9d0059ac:	24030002 	li	v1,2
9d0059b0:	70a64802 	mul	t1,a1,a2
9d0059b4:	7d0a0840 	ext	t2,t0,0x1,0x2
9d0059b8:	004b1021 	addu	v0,v0,t3
9d0059bc:	7d303140 	ext	s0,t1,0x5,0x7
9d0059c0:	7d311880 	ext	s1,t1,0x2,0x4
9d0059c4:	1163004d 	beq	t3,v1,9d005afc <matrix_mul_matrix_bitextract+0x19c>
9d0059c8:	7211a002 	mul	s4,s0,s1
9d0059cc:	11400024 	beqz	t2,9d005a60 <matrix_mul_matrix_bitextract+0x100>
9d0059d0:	24120001 	li	s2,1
9d0059d4:	51520018 	beql	t2,s2,9d005a38 <matrix_mul_matrix_bitextract+0xd8>
9d0059d8:	7d83290a 	lhx	a1,v1(t4)
9d0059dc:	5143000c 	beql	t2,v1,9d005a10 <matrix_mul_matrix_bitextract+0xb0>
9d0059e0:	7d83510a 	lhx	t2,v1(t4)
9d0059e4:	84450000 	lh	a1,0(v0)
9d0059e8:	85930002 	lh	s3,2(t4)
9d0059ec:	24030004 	li	v1,4
9d0059f0:	004b1021 	addu	v0,v0,t3
9d0059f4:	72654002 	mul	t0,s3,a1
9d0059f8:	02800013 	mtlo	s4
9d0059fc:	7d063140 	ext	a2,t0,0x5,0x7
9d005a00:	7d091880 	ext	t1,t0,0x2,0x4
9d005a04:	70c90000 	madd	a2,t1
9d005a08:	0000a012 	mflo	s4
9d005a0c:	7d83510a 	lhx	t2,v1(t4)
9d005a10:	84500000 	lh	s0,0(v0)
9d005a14:	24630002 	addiu	v1,v1,2
9d005a18:	004b1021 	addu	v0,v0,t3
9d005a1c:	71508802 	mul	s1,t2,s0
9d005a20:	02800013 	mtlo	s4
9d005a24:	7e323140 	ext	s2,s1,0x5,0x7
9d005a28:	7e331880 	ext	s3,s1,0x2,0x4
9d005a2c:	72530000 	madd	s2,s3
9d005a30:	0000a012 	mflo	s4
9d005a34:	7d83290a 	lhx	a1,v1(t4)
9d005a38:	84480000 	lh	t0,0(v0)
9d005a3c:	24630002 	addiu	v1,v1,2
9d005a40:	004b1021 	addu	v0,v0,t3
9d005a44:	70a84802 	mul	t1,a1,t0
9d005a48:	02800013 	mtlo	s4
9d005a4c:	7d263140 	ext	a2,t1,0x5,0x7
9d005a50:	7d2a1880 	ext	t2,t1,0x2,0x4
9d005a54:	70ca0000 	madd	a2,t2
9d005a58:	11630028 	beq	t3,v1,9d005afc <matrix_mul_matrix_bitextract+0x19c>
9d005a5c:	0000a012 	mflo	s4
9d005a60:	7d83810a 	lhx	s0,v1(t4)
9d005a64:	84510000 	lh	s1,0(v0)
9d005a68:	004b9021 	addu	s2,v0,t3
9d005a6c:	24730002 	addiu	s3,v1,2
9d005a70:	72118802 	mul	s1,s0,s1
9d005a74:	864a0000 	lh	t2,0(s2)
9d005a78:	7d93810a 	lhx	s0,s3(t4)
9d005a7c:	024b4021 	addu	t0,s2,t3
9d005a80:	24650004 	addiu	a1,v1,4
9d005a84:	7d85490a 	lhx	t1,a1(t4)
9d005a88:	85130000 	lh	s3,0(t0)
9d005a8c:	010b1021 	addu	v0,t0,t3
9d005a90:	24660006 	addiu	a2,v1,6
9d005a94:	7d86290a 	lhx	a1,a2(t4)
9d005a98:	84460000 	lh	a2,0(v0)
9d005a9c:	24630008 	addiu	v1,v1,8
9d005aa0:	004b1021 	addu	v0,v0,t3
9d005aa4:	720a5002 	mul	t2,s0,t2
9d005aa8:	7e323140 	ext	s2,s1,0x5,0x7
9d005aac:	7e311880 	ext	s1,s1,0x2,0x4
9d005ab0:	02800013 	mtlo	s4
9d005ab4:	7d503140 	ext	s0,t2,0x5,0x7
9d005ab8:	72510000 	madd	s2,s1
9d005abc:	7d521880 	ext	s2,t2,0x2,0x4
9d005ac0:	0000a012 	mflo	s4
9d005ac4:	71334002 	mul	t0,t1,s3
9d005ac8:	02800013 	mtlo	s4
9d005acc:	7d093140 	ext	t1,t0,0x5,0x7
9d005ad0:	7d111880 	ext	s1,t0,0x2,0x4
9d005ad4:	72120000 	madd	s0,s2
9d005ad8:	00009812 	mflo	s3
9d005adc:	70a63002 	mul	a2,a1,a2
9d005ae0:	02600013 	mtlo	s3
9d005ae4:	7cc53140 	ext	a1,a2,0x5,0x7
9d005ae8:	7cca1880 	ext	t2,a2,0x2,0x4
9d005aec:	71310000 	madd	t1,s1
9d005af0:	70aa0000 	madd	a1,t2
9d005af4:	1563ffda 	bne	t3,v1,9d005a60 <matrix_mul_matrix_bitextract+0x100>
9d005af8:	0000a012 	mflo	s4
9d005afc:	25ad0002 	addiu	t5,t5,2
9d005b00:	add40000 	sw	s4,0(t6)
9d005b04:	156dffa5 	bne	t3,t5,9d00599c <matrix_mul_matrix_bitextract+0x3c>
9d005b08:	25ce0004 	addiu	t6,t6,4
9d005b0c:	27180001 	addiu	t8,t8,1
9d005b10:	018b6021 	addu	t4,t4,t3
9d005b14:	1704ff9f 	bne	t8,a0,9d005994 <matrix_mul_matrix_bitextract+0x34>
9d005b18:	01f97821 	addu	t7,t7,t9
9d005b1c:	8fb40014 	lw	s4,20(sp)
9d005b20:	8fb30010 	lw	s3,16(sp)
9d005b24:	8fb2000c 	lw	s2,12(sp)
9d005b28:	8fb10008 	lw	s1,8(sp)
9d005b2c:	8fb00004 	lw	s0,4(sp)
9d005b30:	27bd0018 	addiu	sp,sp,24
9d005b34:	03e00008 	jr	ra
9d005b38:	00000000 	nop

9d005b3c <barebones_clock>:
9d005b3c:	03e00008 	jr	ra
9d005b40:	40024800 	mfc0	v0,c0_count

9d005b44 <start_time>:
9d005b44:	40024800 	mfc0	v0,c0_count
9d005b48:	3c038000 	lui	v1,0x8000
9d005b4c:	03e00008 	jr	ra
9d005b50:	ac620034 	sw	v0,52(v1)

9d005b54 <stop_time>:
9d005b54:	40024800 	mfc0	v0,c0_count
9d005b58:	3c038000 	lui	v1,0x8000
9d005b5c:	03e00008 	jr	ra
9d005b60:	ac620030 	sw	v0,48(v1)

9d005b64 <get_time>:
9d005b64:	3c028000 	lui	v0,0x8000
9d005b68:	3c048000 	lui	a0,0x8000
9d005b6c:	8c430030 	lw	v1,48(v0)
9d005b70:	8c850034 	lw	a1,52(a0)
9d005b74:	03e00008 	jr	ra
9d005b78:	00651023 	subu	v0,v1,a1

9d005b7c <time_in_secs>:
9d005b7c:	3c0255e6 	lui	v0,0x55e6
9d005b80:	24433b89 	addiu	v1,v0,15241
9d005b84:	00830019 	multu	a0,v1
9d005b88:	00002010 	mfhi	a0
9d005b8c:	03e00008 	jr	ra
9d005b90:	00041642 	srl	v0,a0,0x19

9d005b94 <portable_init>:
9d005b94:	24020001 	li	v0,1
9d005b98:	03e00008 	jr	ra
9d005b9c:	a0820000 	sb	v0,0(a0)

9d005ba0 <portable_fini>:
9d005ba0:	03e00008 	jr	ra
9d005ba4:	a0800000 	sb	zero,0(a0)

9d005ba8 <core_bench_state>:
9d005ba8:	27bdff88 	addiu	sp,sp,-120
9d005bac:	afb30060 	sw	s3,96(sp)
9d005bb0:	afbf0074 	sw	ra,116(sp)
9d005bb4:	afb70070 	sw	s7,112(sp)
9d005bb8:	afb6006c 	sw	s6,108(sp)
9d005bbc:	afb50068 	sw	s5,104(sp)
9d005bc0:	afb40064 	sw	s4,100(sp)
9d005bc4:	afb2005c 	sw	s2,92(sp)
9d005bc8:	afb10058 	sw	s1,88(sp)
9d005bcc:	afb00054 	sw	s0,84(sp)
9d005bd0:	90a30000 	lbu	v1,0(a1)
9d005bd4:	00a01021 	move	v0,a1
9d005bd8:	87af0088 	lh	t7,136(sp)
9d005bdc:	97a5008c 	lhu	a1,140(sp)
9d005be0:	7c069e20 	seh	s3,a2
9d005be4:	7c073e20 	seh	a3,a3
9d005be8:	afa00010 	sw	zero,16(sp)
9d005bec:	afa00030 	sw	zero,48(sp)
9d005bf0:	afa00014 	sw	zero,20(sp)
9d005bf4:	afa00034 	sw	zero,52(sp)
9d005bf8:	afa00018 	sw	zero,24(sp)
9d005bfc:	afa00038 	sw	zero,56(sp)
9d005c00:	afa0001c 	sw	zero,28(sp)
9d005c04:	afa0003c 	sw	zero,60(sp)
9d005c08:	afa00020 	sw	zero,32(sp)
9d005c0c:	afa00040 	sw	zero,64(sp)
9d005c10:	afa00024 	sw	zero,36(sp)
9d005c14:	afa00044 	sw	zero,68(sp)
9d005c18:	afa00028 	sw	zero,40(sp)
9d005c1c:	afa00048 	sw	zero,72(sp)
9d005c20:	afa0002c 	sw	zero,44(sp)
9d005c24:	10600159 	beqz	v1,9d00618c <core_bench_state+0x5e4>
9d005c28:	afa0004c 	sw	zero,76(sp)
9d005c2c:	3c0e9d01 	lui	t6,0x9d01
9d005c30:	00604021 	move	t0,v1
9d005c34:	00404821 	move	t1,v0
9d005c38:	0000a021 	move	s4,zero
9d005c3c:	00003021 	move	a2,zero
9d005c40:	0000f821 	move	ra,zero
9d005c44:	0000c821 	move	t9,zero
9d005c48:	00009021 	move	s2,zero
9d005c4c:	0000c021 	move	t8,zero
9d005c50:	0000a821 	move	s5,zero
9d005c54:	25cefebc 	addiu	t6,t6,-324
9d005c58:	2411002e 	li	s1,46
9d005c5c:	2417ffdf 	li	s7,-33
9d005c60:	24160045 	li	s6,69
9d005c64:	240d0001 	li	t5,1
9d005c68:	240c002c 	li	t4,44
9d005c6c:	27b00010 	addiu	s0,sp,16
9d005c70:	110c0014 	beq	t0,t4,9d005cc4 <core_bench_state+0x11c>
9d005c74:	00005821 	move	t3,zero
9d005c78:	00005821 	move	t3,zero
9d005c7c:	25290001 	addiu	t1,t1,1
9d005c80:	000b5080 	sll	t2,t3,0x2
9d005c84:	7dca500a 	lwx	t2,t2(t6)
9d005c88:	01400008 	jr	t2
9d005c8c:	00000000 	nop
9d005c90:	2508ffd0 	addiu	t0,t0,-48
9d005c94:	2d0a000a 	sltiu	t2,t0,10
9d005c98:	5540001b 	bnezl	t2,9d005d08 <core_bench_state+0x160>
9d005c9c:	91280000 	lbu	t0,0(t1)
9d005ca0:	26940001 	addiu	s4,s4,1
9d005ca4:	91280000 	lbu	t0,0(t1)
9d005ca8:	1100002e 	beqz	t0,9d005d64 <core_bench_state+0x1bc>
9d005cac:	240b0001 	li	t3,1
9d005cb0:	8fab0034 	lw	t3,52(sp)
9d005cb4:	256a0001 	addiu	t2,t3,1
9d005cb8:	150cffef 	bne	t0,t4,9d005c78 <core_bench_state+0xd0>
9d005cbc:	afaa0034 	sw	t2,52(sp)
9d005cc0:	00005821 	move	t3,zero
9d005cc4:	01205021 	move	t2,t1
9d005cc8:	000b4880 	sll	t1,t3,0x2
9d005ccc:	02095821 	addu	t3,s0,t1
9d005cd0:	91480001 	lbu	t0,1(t2)
9d005cd4:	25490001 	addiu	t1,t2,1
9d005cd8:	8d6a0020 	lw	t2,32(t3)
9d005cdc:	254a0001 	addiu	t2,t2,1
9d005ce0:	1500ffe3 	bnez	t0,9d005c70 <core_bench_state+0xc8>
9d005ce4:	ad6a0020 	sw	t2,32(t3)
9d005ce8:	10000024 	b	9d005d7c <core_bench_state+0x1d4>
9d005cec:	00442021 	addu	a0,v0,a0
9d005cf0:	250bffd0 	addiu	t3,t0,-48
9d005cf4:	2d68000a 	sltiu	t0,t3,10
9d005cf8:	1100ffea 	beqz	t0,9d005ca4 <core_bench_state+0xfc>
9d005cfc:	27180001 	addiu	t8,t8,1
9d005d00:	240b0007 	li	t3,7
9d005d04:	91280000 	lbu	t0,0(t1)
9d005d08:	11000016 	beqz	t0,9d005d64 <core_bench_state+0x1bc>
9d005d0c:	01205021 	move	t2,t1
9d005d10:	150cffdb 	bne	t0,t4,9d005c80 <core_bench_state+0xd8>
9d005d14:	25290001 	addiu	t1,t1,1
9d005d18:	000b4880 	sll	t1,t3,0x2
9d005d1c:	02095821 	addu	t3,s0,t1
9d005d20:	91480001 	lbu	t0,1(t2)
9d005d24:	25490001 	addiu	t1,t2,1
9d005d28:	8d6a0020 	lw	t2,32(t3)
9d005d2c:	254a0001 	addiu	t2,t2,1
9d005d30:	1500ffcf 	bnez	t0,9d005c70 <core_bench_state+0xc8>
9d005d34:	ad6a0020 	sw	t2,32(t3)
9d005d38:	10000010 	b	9d005d7c <core_bench_state+0x1d4>
9d005d3c:	00442021 	addu	a0,v0,a0
9d005d40:	01175024 	and	t2,t0,s7
9d005d44:	11560067 	beq	t2,s6,9d005ee4 <core_bench_state+0x33c>
9d005d48:	2508ffd0 	addiu	t0,t0,-48
9d005d4c:	2d0a000a 	sltiu	t2,t0,10
9d005d50:	1540ffed 	bnez	t2,9d005d08 <core_bench_state+0x160>
9d005d54:	91280000 	lbu	t0,0(t1)
9d005d58:	1500ffd5 	bnez	t0,9d005cb0 <core_bench_state+0x108>
9d005d5c:	26520001 	addiu	s2,s2,1
9d005d60:	240b0001 	li	t3,1
9d005d64:	000b4880 	sll	t1,t3,0x2
9d005d68:	02095821 	addu	t3,s0,t1
9d005d6c:	8d680020 	lw	t0,32(t3)
9d005d70:	250a0001 	addiu	t2,t0,1
9d005d74:	ad6a0020 	sw	t2,32(t3)
9d005d78:	00442021 	addu	a0,v0,a0
9d005d7c:	0044602b 	sltu	t4,v0,a0
9d005d80:	afb40014 	sw	s4,20(sp)
9d005d84:	afa60010 	sw	a2,16(sp)
9d005d88:	afb90018 	sw	t9,24(sp)
9d005d8c:	afb50020 	sw	s5,32(sp)
9d005d90:	afb20024 	sw	s2,36(sp)
9d005d94:	afbf001c 	sw	ra,28(sp)
9d005d98:	118000f8 	beqz	t4,9d00617c <core_bench_state+0x5d4>
9d005d9c:	afb80028 	sw	t8,40(sp)
9d005da0:	00401821 	move	v1,v0
9d005da4:	2414002c 	li	s4,44
9d005da8:	90780000 	lbu	t8,0(v1)
9d005dac:	13140002 	beq	t8,s4,9d005db8 <core_bench_state+0x210>
9d005db0:	03139026 	xor	s2,t8,s3
9d005db4:	a0720000 	sb	s2,0(v1)
9d005db8:	006f1821 	addu	v1,v1,t7
9d005dbc:	0064a82b 	sltu	s5,v1,a0
9d005dc0:	56a0fffa 	bnezl	s5,9d005dac <core_bench_state+0x204>
9d005dc4:	90780000 	lbu	t8,0(v1)
9d005dc8:	90430000 	lbu	v1,0(v0)
9d005dcc:	5060008b 	beqzl	v1,9d005ffc <core_bench_state+0x454>
9d005dd0:	240c002c 	li	t4,44
9d005dd4:	8fb30014 	lw	s3,20(sp)
9d005dd8:	8fb80010 	lw	t8,16(sp)
9d005ddc:	8fbf001c 	lw	ra,28(sp)
9d005de0:	8fae0018 	lw	t6,24(sp)
9d005de4:	8fb20024 	lw	s2,36(sp)
9d005de8:	8fb90028 	lw	t9,40(sp)
9d005dec:	8fb40020 	lw	s4,32(sp)
9d005df0:	3c0d9d01 	lui	t5,0x9d01
9d005df4:	00403021 	move	a2,v0
9d005df8:	25adfedc 	addiu	t5,t5,-292
9d005dfc:	2411002e 	li	s1,46
9d005e00:	2416ffdf 	li	s6,-33
9d005e04:	24150045 	li	s5,69
9d005e08:	240b0001 	li	t3,1
9d005e0c:	240a002c 	li	t2,44
9d005e10:	106a0044 	beq	v1,t2,9d005f24 <core_bench_state+0x37c>
9d005e14:	00004821 	move	t1,zero
9d005e18:	00004821 	move	t1,zero
9d005e1c:	24c60001 	addiu	a2,a2,1
9d005e20:	0009b880 	sll	s7,t1,0x2
9d005e24:	7db7400a 	lwx	t0,s7(t5)
9d005e28:	01000008 	jr	t0
9d005e2c:	00000000 	nop
9d005e30:	111100c3 	beq	t0,s1,9d006140 <core_bench_state+0x598>
9d005e34:	2508ffd0 	addiu	t0,t0,-48
9d005e38:	2d0a000a 	sltiu	t2,t0,10
9d005e3c:	5540ffb2 	bnezl	t2,9d005d08 <core_bench_state+0x160>
9d005e40:	91280000 	lbu	t0,0(t1)
9d005e44:	1000ff97 	b	9d005ca4 <core_bench_state+0xfc>
9d005e48:	26b50001 	addiu	s5,s5,1
9d005e4c:	250bffd5 	addiu	t3,t0,-43
9d005e50:	316800fd 	andi	t0,t3,0xfd
9d005e54:	11000021 	beqz	t0,9d005edc <core_bench_state+0x334>
9d005e58:	240b0006 	li	t3,6
9d005e5c:	1000ff91 	b	9d005ca4 <core_bench_state+0xfc>
9d005e60:	27ff0001 	addiu	ra,ra,1
9d005e64:	250bffd0 	addiu	t3,t0,-48
9d005e68:	2d6a000a 	sltiu	t2,t3,10
9d005e6c:	15400009 	bnez	t2,9d005e94 <core_bench_state+0x2ec>
9d005e70:	240b0004 	li	t3,4
9d005e74:	250bffd5 	addiu	t3,t0,-43
9d005e78:	316a00fd 	andi	t2,t3,0xfd
9d005e7c:	114000b9 	beqz	t2,9d006164 <core_bench_state+0x5bc>
9d005e80:	240b0002 	li	t3,2
9d005e84:	111100bb 	beq	t0,s1,9d006174 <core_bench_state+0x5cc>
9d005e88:	240b0005 	li	t3,5
9d005e8c:	26940001 	addiu	s4,s4,1
9d005e90:	240b0001 	li	t3,1
9d005e94:	24c60001 	addiu	a2,a2,1
9d005e98:	91280000 	lbu	t0,0(t1)
9d005e9c:	1100ffb1 	beqz	t0,9d005d64 <core_bench_state+0x1bc>
9d005ea0:	01205021 	move	t2,t1
9d005ea4:	156dff9a 	bne	t3,t5,9d005d10 <core_bench_state+0x168>
9d005ea8:	00000000 	nop
9d005eac:	1000ff81 	b	9d005cb4 <core_bench_state+0x10c>
9d005eb0:	8fab0034 	lw	t3,52(sp)
9d005eb4:	250affd0 	addiu	t2,t0,-48
9d005eb8:	2d4b000a 	sltiu	t3,t2,10
9d005ebc:	11600003 	beqz	t3,9d005ecc <core_bench_state+0x324>
9d005ec0:	240b0004 	li	t3,4
9d005ec4:	1000ff8f 	b	9d005d04 <core_bench_state+0x15c>
9d005ec8:	27390001 	addiu	t9,t9,1
9d005ecc:	111100a1 	beq	t0,s1,9d006154 <core_bench_state+0x5ac>
9d005ed0:	240b0005 	li	t3,5
9d005ed4:	1000ff73 	b	9d005ca4 <core_bench_state+0xfc>
9d005ed8:	27390001 	addiu	t9,t9,1
9d005edc:	1000ff89 	b	9d005d04 <core_bench_state+0x15c>
9d005ee0:	27ff0001 	addiu	ra,ra,1
9d005ee4:	240b0003 	li	t3,3
9d005ee8:	1000ff86 	b	9d005d04 <core_bench_state+0x15c>
9d005eec:	26520001 	addiu	s2,s2,1
9d005ef0:	2463ffd0 	addiu	v1,v1,-48
9d005ef4:	2c77000a 	sltiu	s7,v1,10
9d005ef8:	56e0001b 	bnezl	s7,9d005f68 <core_bench_state+0x3c0>
9d005efc:	90c30000 	lbu	v1,0(a2)
9d005f00:	26730001 	addiu	s3,s3,1
9d005f04:	90c30000 	lbu	v1,0(a2)
9d005f08:	1060002e 	beqz	v1,9d005fc4 <core_bench_state+0x41c>
9d005f0c:	24090001 	li	t1,1
9d005f10:	8fa80034 	lw	t0,52(sp)
9d005f14:	25090001 	addiu	t1,t0,1
9d005f18:	146affbf 	bne	v1,t2,9d005e18 <core_bench_state+0x270>
9d005f1c:	afa90034 	sw	t1,52(sp)
9d005f20:	00004821 	move	t1,zero
9d005f24:	00c04021 	move	t0,a2
9d005f28:	00093080 	sll	a2,t1,0x2
9d005f2c:	02064821 	addu	t1,s0,a2
9d005f30:	8d370020 	lw	s7,32(t1)
9d005f34:	91030001 	lbu	v1,1(t0)
9d005f38:	25060001 	addiu	a2,t0,1
9d005f3c:	26e80001 	addiu	t0,s7,1
9d005f40:	1460ffb3 	bnez	v1,9d005e10 <core_bench_state+0x268>
9d005f44:	ad280020 	sw	t0,32(t1)
9d005f48:	10000024 	b	9d005fdc <core_bench_state+0x434>
9d005f4c:	afb30014 	sw	s3,20(sp)
9d005f50:	2469ffd0 	addiu	t1,v1,-48
9d005f54:	2d28000a 	sltiu	t0,t1,10
9d005f58:	1100ffea 	beqz	t0,9d005f04 <core_bench_state+0x35c>
9d005f5c:	27390001 	addiu	t9,t9,1
9d005f60:	24090007 	li	t1,7
9d005f64:	90c30000 	lbu	v1,0(a2)
9d005f68:	10600016 	beqz	v1,9d005fc4 <core_bench_state+0x41c>
9d005f6c:	00c04021 	move	t0,a2
9d005f70:	146affab 	bne	v1,t2,9d005e20 <core_bench_state+0x278>
9d005f74:	24c60001 	addiu	a2,a2,1
9d005f78:	00093080 	sll	a2,t1,0x2
9d005f7c:	02064821 	addu	t1,s0,a2
9d005f80:	8d370020 	lw	s7,32(t1)
9d005f84:	91030001 	lbu	v1,1(t0)
9d005f88:	25060001 	addiu	a2,t0,1
9d005f8c:	26e80001 	addiu	t0,s7,1
9d005f90:	1460ff9f 	bnez	v1,9d005e10 <core_bench_state+0x268>
9d005f94:	ad280020 	sw	t0,32(t1)
9d005f98:	10000010 	b	9d005fdc <core_bench_state+0x434>
9d005f9c:	afb30014 	sw	s3,20(sp)
9d005fa0:	0076b824 	and	s7,v1,s6
9d005fa4:	12f5005e 	beq	s7,s5,9d006120 <core_bench_state+0x578>
9d005fa8:	2463ffd0 	addiu	v1,v1,-48
9d005fac:	2c68000a 	sltiu	t0,v1,10
9d005fb0:	1500ffed 	bnez	t0,9d005f68 <core_bench_state+0x3c0>
9d005fb4:	90c30000 	lbu	v1,0(a2)
9d005fb8:	1460ffd5 	bnez	v1,9d005f10 <core_bench_state+0x368>
9d005fbc:	26520001 	addiu	s2,s2,1
9d005fc0:	24090001 	li	t1,1
9d005fc4:	00096880 	sll	t5,t1,0x2
9d005fc8:	020d8821 	addu	s1,s0,t5
9d005fcc:	8e360020 	lw	s6,32(s1)
9d005fd0:	26d50001 	addiu	s5,s6,1
9d005fd4:	ae350020 	sw	s5,32(s1)
9d005fd8:	afb30014 	sw	s3,20(sp)
9d005fdc:	afb80010 	sw	t8,16(sp)
9d005fe0:	afae0018 	sw	t6,24(sp)
9d005fe4:	afb40020 	sw	s4,32(sp)
9d005fe8:	afb20024 	sw	s2,36(sp)
9d005fec:	afbf001c 	sw	ra,28(sp)
9d005ff0:	1180000a 	beqz	t4,9d00601c <core_bench_state+0x474>
9d005ff4:	afb90028 	sw	t9,40(sp)
9d005ff8:	240c002c 	li	t4,44
9d005ffc:	90580000 	lbu	t8,0(v0)
9d006000:	130c0002 	beq	t8,t4,9d00600c <core_bench_state+0x464>
9d006004:	0307f826 	xor	ra,t8,a3
9d006008:	a05f0000 	sb	ra,0(v0)
9d00600c:	004f1021 	addu	v0,v0,t7
9d006010:	0044582b 	sltu	t3,v0,a0
9d006014:	5560fffa 	bnezl	t3,9d006000 <core_bench_state+0x458>
9d006018:	90580000 	lbu	t8,0(v0)
9d00601c:	0000a021 	move	s4,zero
9d006020:	24130020 	li	s3,32
9d006024:	27b20030 	addiu	s2,sp,48
9d006028:	0f401b07 	jal	9d006c1c <crcu32>
9d00602c:	7e54200a 	lwx	a0,s4(s2)
9d006030:	7e14200a 	lwx	a0,s4(s0)
9d006034:	00402821 	move	a1,v0
9d006038:	0f401b07 	jal	9d006c1c <crcu32>
9d00603c:	26940004 	addiu	s4,s4,4
9d006040:	1693fff9 	bne	s4,s3,9d006028 <core_bench_state+0x480>
9d006044:	00402821 	move	a1,v0
9d006048:	8fbf0074 	lw	ra,116(sp)
9d00604c:	8fb70070 	lw	s7,112(sp)
9d006050:	8fb6006c 	lw	s6,108(sp)
9d006054:	8fb50068 	lw	s5,104(sp)
9d006058:	8fb40064 	lw	s4,100(sp)
9d00605c:	8fb30060 	lw	s3,96(sp)
9d006060:	8fb2005c 	lw	s2,92(sp)
9d006064:	8fb10058 	lw	s1,88(sp)
9d006068:	8fb00054 	lw	s0,84(sp)
9d00606c:	03e00008 	jr	ra
9d006070:	27bd0078 	addiu	sp,sp,120
9d006074:	1071002f 	beq	v1,s1,9d006134 <core_bench_state+0x58c>
9d006078:	2477ffd0 	addiu	s7,v1,-48
9d00607c:	2ee3000a 	sltiu	v1,s7,10
9d006080:	5460ffb9 	bnezl	v1,9d005f68 <core_bench_state+0x3c0>
9d006084:	90c30000 	lbu	v1,0(a2)
9d006088:	1000ff9e 	b	9d005f04 <core_bench_state+0x35c>
9d00608c:	26940001 	addiu	s4,s4,1
9d006090:	2477ffd0 	addiu	s7,v1,-48
9d006094:	2ee9000a 	sltiu	t1,s7,10
9d006098:	1120001d 	beqz	t1,9d006110 <core_bench_state+0x568>
9d00609c:	24090004 	li	t1,4
9d0060a0:	1000ffb0 	b	9d005f64 <core_bench_state+0x3bc>
9d0060a4:	25ce0001 	addiu	t6,t6,1
9d0060a8:	2469ffd5 	addiu	t1,v1,-43
9d0060ac:	312800fd 	andi	t0,t1,0xfd
9d0060b0:	1100001e 	beqz	t0,9d00612c <core_bench_state+0x584>
9d0060b4:	24090006 	li	t1,6
9d0060b8:	1000ff92 	b	9d005f04 <core_bench_state+0x35c>
9d0060bc:	27ff0001 	addiu	ra,ra,1
9d0060c0:	2477ffd0 	addiu	s7,v1,-48
9d0060c4:	2ee8000a 	sltiu	t0,s7,10
9d0060c8:	15000009 	bnez	t0,9d0060f0 <core_bench_state+0x548>
9d0060cc:	24090004 	li	t1,4
9d0060d0:	2469ffd5 	addiu	t1,v1,-43
9d0060d4:	313700fd 	andi	s7,t1,0xfd
9d0060d8:	12e00020 	beqz	s7,9d00615c <core_bench_state+0x5b4>
9d0060dc:	24090002 	li	t1,2
9d0060e0:	10710022 	beq	v1,s1,9d00616c <core_bench_state+0x5c4>
9d0060e4:	24090005 	li	t1,5
9d0060e8:	26730001 	addiu	s3,s3,1
9d0060ec:	24090001 	li	t1,1
9d0060f0:	27180001 	addiu	t8,t8,1
9d0060f4:	90c30000 	lbu	v1,0(a2)
9d0060f8:	1060ffb2 	beqz	v1,9d005fc4 <core_bench_state+0x41c>
9d0060fc:	00c04021 	move	t0,a2
9d006100:	152bff9b 	bne	t1,t3,9d005f70 <core_bench_state+0x3c8>
9d006104:	00000000 	nop
9d006108:	1000ff82 	b	9d005f14 <core_bench_state+0x36c>
9d00610c:	8fa80034 	lw	t0,52(sp)
9d006110:	1071000e 	beq	v1,s1,9d00614c <core_bench_state+0x5a4>
9d006114:	24090005 	li	t1,5
9d006118:	1000ff7a 	b	9d005f04 <core_bench_state+0x35c>
9d00611c:	25ce0001 	addiu	t6,t6,1
9d006120:	24090003 	li	t1,3
9d006124:	1000ff8f 	b	9d005f64 <core_bench_state+0x3bc>
9d006128:	26520001 	addiu	s2,s2,1
9d00612c:	1000ff8d 	b	9d005f64 <core_bench_state+0x3bc>
9d006130:	27ff0001 	addiu	ra,ra,1
9d006134:	24090005 	li	t1,5
9d006138:	1000ff8a 	b	9d005f64 <core_bench_state+0x3bc>
9d00613c:	26940001 	addiu	s4,s4,1
9d006140:	240b0005 	li	t3,5
9d006144:	1000feef 	b	9d005d04 <core_bench_state+0x15c>
9d006148:	26b50001 	addiu	s5,s5,1
9d00614c:	1000ff85 	b	9d005f64 <core_bench_state+0x3bc>
9d006150:	25ce0001 	addiu	t6,t6,1
9d006154:	1000feeb 	b	9d005d04 <core_bench_state+0x15c>
9d006158:	27390001 	addiu	t9,t9,1
9d00615c:	1000ffe5 	b	9d0060f4 <core_bench_state+0x54c>
9d006160:	27180001 	addiu	t8,t8,1
9d006164:	1000ff4c 	b	9d005e98 <core_bench_state+0x2f0>
9d006168:	24c60001 	addiu	a2,a2,1
9d00616c:	1000ffe1 	b	9d0060f4 <core_bench_state+0x54c>
9d006170:	27180001 	addiu	t8,t8,1
9d006174:	1000ff48 	b	9d005e98 <core_bench_state+0x2f0>
9d006178:	24c60001 	addiu	a2,a2,1
9d00617c:	1460ff16 	bnez	v1,9d005dd8 <core_bench_state+0x230>
9d006180:	8fb30014 	lw	s3,20(sp)
9d006184:	1000ffa6 	b	9d006020 <core_bench_state+0x478>
9d006188:	0000a021 	move	s4,zero
9d00618c:	00442021 	addu	a0,v0,a0
9d006190:	0044602b 	sltu	t4,v0,a0
9d006194:	1580ff02 	bnez	t4,9d005da0 <core_bench_state+0x1f8>
9d006198:	27b00010 	addiu	s0,sp,16
9d00619c:	1000ffa0 	b	9d006020 <core_bench_state+0x478>
9d0061a0:	0000a021 	move	s4,zero

9d0061a4 <core_init_state>:
9d0061a4:	00007821 	move	t7,zero
9d0061a8:	00003821 	move	a3,zero
9d0061ac:	27bdfff0 	addiu	sp,sp,-16
9d0061b0:	00efc021 	addu	t8,a3,t7
9d0061b4:	2488ffff 	addiu	t0,a0,-1
9d0061b8:	afb2000c 	sw	s2,12(sp)
9d0061bc:	27120001 	addiu	s2,t8,1
9d0061c0:	24a50001 	addiu	a1,a1,1
9d0061c4:	3c099d01 	lui	t1,0x9d01
9d0061c8:	3c0e9d01 	lui	t6,0x9d01
9d0061cc:	3c0d9d01 	lui	t5,0x9d01
9d0061d0:	3c0c9d01 	lui	t4,0x9d01
9d0061d4:	3c0b9d01 	lui	t3,0x9d01
9d0061d8:	0248182b 	sltu	v1,s2,t0
9d0061dc:	afb10008 	sw	s1,8(sp)
9d0061e0:	afb00004 	sw	s0,4(sp)
9d0061e4:	00001021 	move	v0,zero
9d0061e8:	30a5ffff 	andi	a1,a1,0xffff
9d0061ec:	240a002c 	li	t2,44
9d0061f0:	2529fefc 	addiu	t1,t1,-260
9d0061f4:	25ceff60 	addiu	t6,t6,-160
9d0061f8:	25adff50 	addiu	t5,t5,-176
9d0061fc:	258cff40 	addiu	t4,t4,-192
9d006200:	1060007b 	beqz	v1,9d0063f0 <core_init_state+0x24c>
9d006204:	256bff30 	addiu	t3,t3,-208
9d006208:	51e00066 	beqzl	t7,9d0063a4 <core_init_state+0x200>
9d00620c:	30b20007 	andi	s2,a1,0x7
9d006210:	90510000 	lbu	s1,0(v0)
9d006214:	25f9ffff 	addiu	t9,t7,-1
9d006218:	00c78021 	addu	s0,a2,a3
9d00621c:	24030001 	li	v1,1
9d006220:	33390007 	andi	t9,t9,0x7
9d006224:	106f005b 	beq	v1,t7,9d006394 <core_init_state+0x1f0>
9d006228:	a2110000 	sb	s1,0(s0)
9d00622c:	53200031 	beqzl	t9,9d0062f4 <core_init_state+0x150>
9d006230:	7c43898a 	lbux	s1,v1(v0)
9d006234:	13230028 	beq	t9,v1,9d0062d8 <core_init_state+0x134>
9d006238:	24110002 	li	s1,2
9d00623c:	13310021 	beq	t9,s1,9d0062c4 <core_init_state+0x120>
9d006240:	24100003 	li	s0,3
9d006244:	1330001a 	beq	t9,s0,9d0062b0 <core_init_state+0x10c>
9d006248:	24110004 	li	s1,4
9d00624c:	13310013 	beq	t9,s1,9d00629c <core_init_state+0xf8>
9d006250:	24100005 	li	s0,5
9d006254:	1330000c 	beq	t9,s0,9d006288 <core_init_state+0xe4>
9d006258:	24110006 	li	s1,6
9d00625c:	53310006 	beql	t9,s1,9d006278 <core_init_state+0xd4>
9d006260:	7c43898a 	lbux	s1,v1(v0)
9d006264:	90500001 	lbu	s0,1(v0)
9d006268:	00c7c821 	addu	t9,a2,a3
9d00626c:	24030002 	li	v1,2
9d006270:	a3300001 	sb	s0,1(t9)
9d006274:	7c43898a 	lbux	s1,v1(v0)
9d006278:	00678021 	addu	s0,v1,a3
9d00627c:	00d0c821 	addu	t9,a2,s0
9d006280:	a3310000 	sb	s1,0(t9)
9d006284:	24630001 	addiu	v1,v1,1
9d006288:	7c43898a 	lbux	s1,v1(v0)
9d00628c:	00678021 	addu	s0,v1,a3
9d006290:	00d0c821 	addu	t9,a2,s0
9d006294:	a3310000 	sb	s1,0(t9)
9d006298:	24630001 	addiu	v1,v1,1
9d00629c:	7c43898a 	lbux	s1,v1(v0)
9d0062a0:	00678021 	addu	s0,v1,a3
9d0062a4:	00d0c821 	addu	t9,a2,s0
9d0062a8:	a3310000 	sb	s1,0(t9)
9d0062ac:	24630001 	addiu	v1,v1,1
9d0062b0:	7c43898a 	lbux	s1,v1(v0)
9d0062b4:	00678021 	addu	s0,v1,a3
9d0062b8:	00d0c821 	addu	t9,a2,s0
9d0062bc:	a3310000 	sb	s1,0(t9)
9d0062c0:	24630001 	addiu	v1,v1,1
9d0062c4:	7c43898a 	lbux	s1,v1(v0)
9d0062c8:	00678021 	addu	s0,v1,a3
9d0062cc:	00d0c821 	addu	t9,a2,s0
9d0062d0:	a3310000 	sb	s1,0(t9)
9d0062d4:	24630001 	addiu	v1,v1,1
9d0062d8:	7c43898a 	lbux	s1,v1(v0)
9d0062dc:	00678021 	addu	s0,v1,a3
9d0062e0:	00d0c821 	addu	t9,a2,s0
9d0062e4:	24630001 	addiu	v1,v1,1
9d0062e8:	106f002a 	beq	v1,t7,9d006394 <core_init_state+0x1f0>
9d0062ec:	a3310000 	sb	s1,0(t9)
9d0062f0:	7c43898a 	lbux	s1,v1(v0)
9d0062f4:	00678021 	addu	s0,v1,a3
9d0062f8:	00d0c821 	addu	t9,a2,s0
9d0062fc:	a3310000 	sb	s1,0(t9)
9d006300:	24710001 	addiu	s1,v1,1
9d006304:	7c51818a 	lbux	s0,s1(v0)
9d006308:	0227c821 	addu	t9,s1,a3
9d00630c:	00d98821 	addu	s1,a2,t9
9d006310:	a2300000 	sb	s0,0(s1)
9d006314:	24790002 	addiu	t9,v1,2
9d006318:	7c59818a 	lbux	s0,t9(v0)
9d00631c:	03278821 	addu	s1,t9,a3
9d006320:	00d1c821 	addu	t9,a2,s1
9d006324:	a3300000 	sb	s0,0(t9)
9d006328:	24710003 	addiu	s1,v1,3
9d00632c:	7c51818a 	lbux	s0,s1(v0)
9d006330:	0227c821 	addu	t9,s1,a3
9d006334:	00d98821 	addu	s1,a2,t9
9d006338:	a2300000 	sb	s0,0(s1)
9d00633c:	24790004 	addiu	t9,v1,4
9d006340:	7c59818a 	lbux	s0,t9(v0)
9d006344:	03278821 	addu	s1,t9,a3
9d006348:	00d1c821 	addu	t9,a2,s1
9d00634c:	a3300000 	sb	s0,0(t9)
9d006350:	24710005 	addiu	s1,v1,5
9d006354:	7c51818a 	lbux	s0,s1(v0)
9d006358:	0227c821 	addu	t9,s1,a3
9d00635c:	00d98821 	addu	s1,a2,t9
9d006360:	a2300000 	sb	s0,0(s1)
9d006364:	24790006 	addiu	t9,v1,6
9d006368:	7c59818a 	lbux	s0,t9(v0)
9d00636c:	03278821 	addu	s1,t9,a3
9d006370:	00d1c821 	addu	t9,a2,s1
9d006374:	a3300000 	sb	s0,0(t9)
9d006378:	24710007 	addiu	s1,v1,7
9d00637c:	7c51818a 	lbux	s0,s1(v0)
9d006380:	0227c821 	addu	t9,s1,a3
9d006384:	00d98821 	addu	s1,a2,t9
9d006388:	24630008 	addiu	v1,v1,8
9d00638c:	146fffd8 	bne	v1,t7,9d0062f0 <core_init_state+0x14c>
9d006390:	a2300000 	sb	s0,0(s1)
9d006394:	00d8c021 	addu	t8,a2,t8
9d006398:	02403821 	move	a3,s2
9d00639c:	a30a0000 	sb	t2,0(t8)
9d0063a0:	30b20007 	andi	s2,a1,0x7
9d0063a4:	2642fffd 	addiu	v0,s2,-3
9d0063a8:	3043ffff 	andi	v1,v0,0xffff
9d0063ac:	2c700005 	sltiu	s0,v1,5
9d0063b0:	00037880 	sll	t7,v1,0x2
9d0063b4:	1200009e 	beqz	s0,9d006630 <core_init_state+0x48c>
9d0063b8:	7c05ce20 	seh	t9,a1
9d0063bc:	7d2f880a 	lwx	s1,t7(t1)
9d0063c0:	7f3808c0 	ext	t8,t9,0x3,0x2
9d0063c4:	02200008 	jr	s1
9d0063c8:	00189080 	sll	s2,t8,0x2
9d0063cc:	7db2100a 	lwx	v0,s2(t5)
9d0063d0:	24a50001 	addiu	a1,a1,1
9d0063d4:	240f0008 	li	t7,8
9d0063d8:	30a5ffff 	andi	a1,a1,0xffff
9d0063dc:	00efc021 	addu	t8,a3,t7
9d0063e0:	27120001 	addiu	s2,t8,1
9d0063e4:	0248182b 	sltu	v1,s2,t0
9d0063e8:	1460ff87 	bnez	v1,9d006208 <core_init_state+0x64>
9d0063ec:	00000000 	nop
9d0063f0:	00c74021 	addu	t0,a2,a3
9d0063f4:	00081023 	negu	v0,t0
9d0063f8:	00877823 	subu	t7,a0,a3
9d0063fc:	30500003 	andi	s0,v0,0x3
9d006400:	01f0502b 	sltu	t2,t7,s0
9d006404:	01ea800b 	movn	s0,t7,t2
9d006408:	2df10007 	sltiu	s1,t7,7
9d00640c:	00e4c82b 	sltu	t9,a3,a0
9d006410:	01f1800b 	movn	s0,t7,s1
9d006414:	13200077 	beqz	t9,9d0065f4 <core_init_state+0x450>
9d006418:	00e07021 	move	t6,a3
9d00641c:	1200001d 	beqz	s0,9d006494 <core_init_state+0x2f0>
9d006420:	24090001 	li	t1,1
9d006424:	a1000000 	sb	zero,0(t0)
9d006428:	12090088 	beq	s0,t1,9d00664c <core_init_state+0x4a8>
9d00642c:	24e20001 	addiu	v0,a3,1
9d006430:	00c22821 	addu	a1,a2,v0
9d006434:	240d0002 	li	t5,2
9d006438:	a0a00000 	sb	zero,0(a1)
9d00643c:	120d0083 	beq	s0,t5,9d00664c <core_init_state+0x4a8>
9d006440:	24e20002 	addiu	v0,a3,2
9d006444:	00c26021 	addu	t4,a2,v0
9d006448:	240b0003 	li	t3,3
9d00644c:	a1800000 	sb	zero,0(t4)
9d006450:	120b007e 	beq	s0,t3,9d00664c <core_init_state+0x4a8>
9d006454:	24e20003 	addiu	v0,a3,3
9d006458:	00c2c021 	addu	t8,a2,v0
9d00645c:	24120004 	li	s2,4
9d006460:	a3000000 	sb	zero,0(t8)
9d006464:	12120079 	beq	s0,s2,9d00664c <core_init_state+0x4a8>
9d006468:	24e20004 	addiu	v0,a3,4
9d00646c:	00c21821 	addu	v1,a2,v0
9d006470:	24080006 	li	t0,6
9d006474:	a0600000 	sb	zero,0(v1)
9d006478:	16080074 	bne	s0,t0,9d00664c <core_init_state+0x4a8>
9d00647c:	24e20005 	addiu	v0,a3,5
9d006480:	00c25021 	addu	t2,a2,v0
9d006484:	a1400000 	sb	zero,0(t2)
9d006488:	24e70006 	addiu	a3,a3,6
9d00648c:	11f0005a 	beq	t7,s0,9d0065f8 <core_init_state+0x454>
9d006490:	8fb2000c 	lw	s2,12(sp)
9d006494:	01f05023 	subu	t2,t7,s0
9d006498:	2551fffc 	addiu	s1,t2,-4
9d00649c:	25efffff 	addiu	t7,t7,-1
9d0064a0:	01f02823 	subu	a1,t7,s0
9d0064a4:	0011c882 	srl	t9,s1,0x2
9d0064a8:	27290001 	addiu	t1,t9,1
9d0064ac:	2cad0003 	sltiu	t5,a1,3
9d0064b0:	020e8021 	addu	s0,s0,t6
9d0064b4:	24050001 	li	a1,1
9d0064b8:	00d07021 	addu	t6,a2,s0
9d0064bc:	00a9602b 	sltu	t4,a1,t1
9d0064c0:	15a00040 	bnez	t5,9d0065c4 <core_init_state+0x420>
9d0064c4:	00095880 	sll	t3,t1,0x2
9d0064c8:	00009021 	move	s2,zero
9d0064cc:	33380007 	andi	t8,t9,0x7
9d0064d0:	add20000 	sw	s2,0(t6)
9d0064d4:	11800039 	beqz	t4,9d0065bc <core_init_state+0x418>
9d0064d8:	25c30004 	addiu	v1,t6,4
9d0064dc:	5300002b 	beqzl	t8,9d00658c <core_init_state+0x3e8>
9d0064e0:	24a50008 	addiu	a1,a1,8
9d0064e4:	13050022 	beq	t8,a1,9d006570 <core_init_state+0x3cc>
9d0064e8:	24020002 	li	v0,2
9d0064ec:	1302001c 	beq	t8,v0,9d006560 <core_init_state+0x3bc>
9d0064f0:	24080003 	li	t0,3
9d0064f4:	13080016 	beq	t8,t0,9d006550 <core_init_state+0x3ac>
9d0064f8:	24110004 	li	s1,4
9d0064fc:	13110010 	beq	t8,s1,9d006540 <core_init_state+0x39c>
9d006500:	240f0005 	li	t7,5
9d006504:	130f000a 	beq	t8,t7,9d006530 <core_init_state+0x38c>
9d006508:	24190006 	li	t9,6
9d00650c:	13190005 	beq	t8,t9,9d006524 <core_init_state+0x380>
9d006510:	00006821 	move	t5,zero
9d006514:	00002821 	move	a1,zero
9d006518:	ac650000 	sw	a1,0(v1)
9d00651c:	24050002 	li	a1,2
9d006520:	25c30008 	addiu	v1,t6,8
9d006524:	ac6d0000 	sw	t5,0(v1)
9d006528:	24a50001 	addiu	a1,a1,1
9d00652c:	24630004 	addiu	v1,v1,4
9d006530:	00008021 	move	s0,zero
9d006534:	ac700000 	sw	s0,0(v1)
9d006538:	24a50001 	addiu	a1,a1,1
9d00653c:	24630004 	addiu	v1,v1,4
9d006540:	00007021 	move	t6,zero
9d006544:	ac6e0000 	sw	t6,0(v1)
9d006548:	24a50001 	addiu	a1,a1,1
9d00654c:	24630004 	addiu	v1,v1,4
9d006550:	00006021 	move	t4,zero
9d006554:	ac6c0000 	sw	t4,0(v1)
9d006558:	24a50001 	addiu	a1,a1,1
9d00655c:	24630004 	addiu	v1,v1,4
9d006560:	0000c021 	move	t8,zero
9d006564:	ac780000 	sw	t8,0(v1)
9d006568:	24a50001 	addiu	a1,a1,1
9d00656c:	24630004 	addiu	v1,v1,4
9d006570:	24a50001 	addiu	a1,a1,1
9d006574:	00001021 	move	v0,zero
9d006578:	00a9902b 	sltu	s2,a1,t1
9d00657c:	ac620000 	sw	v0,0(v1)
9d006580:	1240000e 	beqz	s2,9d0065bc <core_init_state+0x418>
9d006584:	24630004 	addiu	v1,v1,4
9d006588:	24a50008 	addiu	a1,a1,8
9d00658c:	00004021 	move	t0,zero
9d006590:	00a9882b 	sltu	s1,a1,t1
9d006594:	ac680000 	sw	t0,0(v1)
9d006598:	ac680004 	sw	t0,4(v1)
9d00659c:	ac680008 	sw	t0,8(v1)
9d0065a0:	ac68000c 	sw	t0,12(v1)
9d0065a4:	ac680010 	sw	t0,16(v1)
9d0065a8:	ac680014 	sw	t0,20(v1)
9d0065ac:	ac680018 	sw	t0,24(v1)
9d0065b0:	ac68001c 	sw	t0,28(v1)
9d0065b4:	1620fff4 	bnez	s1,9d006588 <core_init_state+0x3e4>
9d0065b8:	24630020 	addiu	v1,v1,32
9d0065bc:	116a000d 	beq	t3,t2,9d0065f4 <core_init_state+0x450>
9d0065c0:	00eb3821 	addu	a3,a3,t3
9d0065c4:	24e90001 	addiu	t1,a3,1
9d0065c8:	24ef0002 	addiu	t7,a3,2
9d0065cc:	00c7c821 	addu	t9,a2,a3
9d0065d0:	0124682b 	sltu	t5,t1,a0
9d0065d4:	00c98021 	addu	s0,a2,t1
9d0065d8:	01e4202b 	sltu	a0,t7,a0
9d0065dc:	11a00005 	beqz	t5,9d0065f4 <core_init_state+0x450>
9d0065e0:	a3200000 	sb	zero,0(t9)
9d0065e4:	10800003 	beqz	a0,9d0065f4 <core_init_state+0x450>
9d0065e8:	a2000000 	sb	zero,0(s0)
9d0065ec:	00cf3021 	addu	a2,a2,t7
9d0065f0:	a0c00000 	sb	zero,0(a2)
9d0065f4:	8fb2000c 	lw	s2,12(sp)
9d0065f8:	8fb10008 	lw	s1,8(sp)
9d0065fc:	8fb00004 	lw	s0,4(sp)
9d006600:	03e00008 	jr	ra
9d006604:	27bd0010 	addiu	sp,sp,16
9d006608:	24a50001 	addiu	a1,a1,1
9d00660c:	240f0008 	li	t7,8
9d006610:	7d92100a 	lwx	v0,s2(t4)
9d006614:	1000ff71 	b	9d0063dc <core_init_state+0x238>
9d006618:	30a5ffff 	andi	a1,a1,0xffff
9d00661c:	24a50001 	addiu	a1,a1,1
9d006620:	7d72100a 	lwx	v0,s2(t3)
9d006624:	240f0008 	li	t7,8
9d006628:	1000ff6c 	b	9d0063dc <core_init_state+0x238>
9d00662c:	30a5ffff 	andi	a1,a1,0xffff
9d006630:	7f2308c0 	ext	v1,t9,0x3,0x2
9d006634:	00038080 	sll	s0,v1,0x2
9d006638:	24a50001 	addiu	a1,a1,1
9d00663c:	240f0004 	li	t7,4
9d006640:	7dd0100a 	lwx	v0,s0(t6)
9d006644:	1000ff65 	b	9d0063dc <core_init_state+0x238>
9d006648:	30a5ffff 	andi	a1,a1,0xffff
9d00664c:	1000ff8f 	b	9d00648c <core_init_state+0x2e8>
9d006650:	00403821 	move	a3,v0

9d006654 <core_state_transition>:
9d006654:	8c990000 	lw	t9,0(a0)
9d006658:	93230000 	lbu	v1,0(t9)
9d00665c:	10600019 	beqz	v1,9d0066c4 <core_state_transition+0x70>
9d006660:	00001021 	move	v0,zero
9d006664:	2402002c 	li	v0,44
9d006668:	10620087 	beq	v1,v0,9d006888 <core_state_transition+0x234>
9d00666c:	00001021 	move	v0,zero
9d006670:	3c089d01 	lui	t0,0x9d01
9d006674:	240a002c 	li	t2,44
9d006678:	27260001 	addiu	a2,t9,1
9d00667c:	2508ff10 	addiu	t0,t0,-240
9d006680:	240b002e 	li	t3,46
9d006684:	240dffdf 	li	t5,-33
9d006688:	240c0045 	li	t4,69
9d00668c:	24090001 	li	t1,1
9d006690:	00023880 	sll	a3,v0,0x2
9d006694:	7d07700a 	lwx	t6,a3(t0)
9d006698:	01c00008 	jr	t6
9d00669c:	00000000 	nop
9d0066a0:	2463ffd0 	addiu	v1,v1,-48
9d0066a4:	2c6f000a 	sltiu	t7,v1,10
9d0066a8:	55e00011 	bnezl	t7,9d0066f0 <core_state_transition+0x9c>
9d0066ac:	90c30000 	lbu	v1,0(a2)
9d0066b0:	8ca90004 	lw	t1,4(a1)
9d0066b4:	00c0c821 	move	t9,a2
9d0066b8:	252a0001 	addiu	t2,t1,1
9d0066bc:	acaa0004 	sw	t2,4(a1)
9d0066c0:	24020001 	li	v0,1
9d0066c4:	03e00008 	jr	ra
9d0066c8:	ac990000 	sw	t9,0(a0)
9d0066cc:	2478ffd0 	addiu	t8,v1,-48
9d0066d0:	2f19000a 	sltiu	t9,t8,10
9d0066d4:	53200052 	beqzl	t9,9d006820 <core_state_transition+0x1cc>
9d0066d8:	8cab0018 	lw	t3,24(a1)
9d0066dc:	8ca70018 	lw	a3,24(a1)
9d0066e0:	24020007 	li	v0,7
9d0066e4:	24ee0001 	addiu	t6,a3,1
9d0066e8:	acae0018 	sw	t6,24(a1)
9d0066ec:	90c30000 	lbu	v1,0(a2)
9d0066f0:	1060fff4 	beqz	v1,9d0066c4 <core_state_transition+0x70>
9d0066f4:	00c0c821 	move	t9,a2
9d0066f8:	146affe5 	bne	v1,t2,9d006690 <core_state_transition+0x3c>
9d0066fc:	24c60001 	addiu	a2,a2,1
9d006700:	27390001 	addiu	t9,t9,1
9d006704:	03e00008 	jr	ra
9d006708:	ac990000 	sw	t9,0(a0)
9d00670c:	006d7824 	and	t7,v1,t5
9d006710:	11ec0047 	beq	t7,t4,9d006830 <core_state_transition+0x1dc>
9d006714:	2463ffd0 	addiu	v1,v1,-48
9d006718:	2c78000a 	sltiu	t8,v1,10
9d00671c:	5700fff4 	bnezl	t8,9d0066f0 <core_state_transition+0x9c>
9d006720:	90c30000 	lbu	v1,0(a2)
9d006724:	8cad0014 	lw	t5,20(a1)
9d006728:	00c0c821 	move	t9,a2
9d00672c:	25a20001 	addiu	v0,t5,1
9d006730:	1000ffe3 	b	9d0066c0 <core_state_transition+0x6c>
9d006734:	aca20014 	sw	v0,20(a1)
9d006738:	106b0046 	beq	v1,t3,9d006854 <core_state_transition+0x200>
9d00673c:	246effd0 	addiu	t6,v1,-48
9d006740:	2dcf000a 	sltiu	t7,t6,10
9d006744:	55e0ffea 	bnezl	t7,9d0066f0 <core_state_transition+0x9c>
9d006748:	90c30000 	lbu	v1,0(a2)
9d00674c:	8ca80010 	lw	t0,16(a1)
9d006750:	00c0c821 	move	t9,a2
9d006754:	25090001 	addiu	t1,t0,1
9d006758:	1000ffd9 	b	9d0066c0 <core_state_transition+0x6c>
9d00675c:	aca90010 	sw	t1,16(a1)
9d006760:	2462ffd5 	addiu	v0,v1,-43
9d006764:	305900fd 	andi	t9,v0,0xfd
9d006768:	53200036 	beqzl	t9,9d006844 <core_state_transition+0x1f0>
9d00676c:	8ca7000c 	lw	a3,12(a1)
9d006770:	8caa000c 	lw	t2,12(a1)
9d006774:	00c0c821 	move	t9,a2
9d006778:	254b0001 	addiu	t3,t2,1
9d00677c:	1000ffd0 	b	9d0066c0 <core_state_transition+0x6c>
9d006780:	acab000c 	sw	t3,12(a1)
9d006784:	246fffd0 	addiu	t7,v1,-48
9d006788:	2df8000a 	sltiu	t8,t7,10
9d00678c:	1300001d 	beqz	t8,9d006804 <core_state_transition+0x1b0>
9d006790:	24020004 	li	v0,4
9d006794:	8cae0008 	lw	t6,8(a1)
9d006798:	25cf0001 	addiu	t7,t6,1
9d00679c:	1000ffd3 	b	9d0066ec <core_state_transition+0x98>
9d0067a0:	acaf0008 	sw	t7,8(a1)
9d0067a4:	2462ffd0 	addiu	v0,v1,-48
9d0067a8:	2c58000a 	sltiu	t8,v0,10
9d0067ac:	1700000b 	bnez	t8,9d0067dc <core_state_transition+0x188>
9d0067b0:	24020004 	li	v0,4
9d0067b4:	2479ffd5 	addiu	t9,v1,-43
9d0067b8:	332700fd 	andi	a3,t9,0xfd
9d0067bc:	50e0002a 	beqzl	a3,9d006868 <core_state_transition+0x214>
9d0067c0:	8ca30000 	lw	v1,0(a1)
9d0067c4:	106b0005 	beq	v1,t3,9d0067dc <core_state_transition+0x188>
9d0067c8:	24020005 	li	v0,5
9d0067cc:	8cae0004 	lw	t6,4(a1)
9d0067d0:	24020001 	li	v0,1
9d0067d4:	25cf0001 	addiu	t7,t6,1
9d0067d8:	acaf0004 	sw	t7,4(a1)
9d0067dc:	8ca30000 	lw	v1,0(a1)
9d0067e0:	24780001 	addiu	t8,v1,1
9d0067e4:	acb80000 	sw	t8,0(a1)
9d0067e8:	90c30000 	lbu	v1,0(a2)
9d0067ec:	1060ffb5 	beqz	v1,9d0066c4 <core_state_transition+0x70>
9d0067f0:	00c0c821 	move	t9,a2
9d0067f4:	1449ffc0 	bne	v0,t1,9d0066f8 <core_state_transition+0xa4>
9d0067f8:	00000000 	nop
9d0067fc:	1000ffb1 	b	9d0066c4 <core_state_transition+0x70>
9d006800:	24020001 	li	v0,1
9d006804:	506b001c 	beql	v1,t3,9d006878 <core_state_transition+0x224>
9d006808:	8ca30008 	lw	v1,8(a1)
9d00680c:	8cac0008 	lw	t4,8(a1)
9d006810:	00c0c821 	move	t9,a2
9d006814:	258d0001 	addiu	t5,t4,1
9d006818:	1000ffa9 	b	9d0066c0 <core_state_transition+0x6c>
9d00681c:	acad0008 	sw	t5,8(a1)
9d006820:	00c0c821 	move	t9,a2
9d006824:	256c0001 	addiu	t4,t3,1
9d006828:	1000ffa5 	b	9d0066c0 <core_state_transition+0x6c>
9d00682c:	acac0018 	sw	t4,24(a1)
9d006830:	8cb90014 	lw	t9,20(a1)
9d006834:	24020003 	li	v0,3
9d006838:	27270001 	addiu	a3,t9,1
9d00683c:	1000ffab 	b	9d0066ec <core_state_transition+0x98>
9d006840:	aca70014 	sw	a3,20(a1)
9d006844:	24020006 	li	v0,6
9d006848:	24ee0001 	addiu	t6,a3,1
9d00684c:	1000ffa7 	b	9d0066ec <core_state_transition+0x98>
9d006850:	acae000c 	sw	t6,12(a1)
9d006854:	8ca30010 	lw	v1,16(a1)
9d006858:	24020005 	li	v0,5
9d00685c:	24780001 	addiu	t8,v1,1
9d006860:	1000ffa2 	b	9d0066ec <core_state_transition+0x98>
9d006864:	acb80010 	sw	t8,16(a1)
9d006868:	24020002 	li	v0,2
9d00686c:	24780001 	addiu	t8,v1,1
9d006870:	1000ffdd 	b	9d0067e8 <core_state_transition+0x194>
9d006874:	acb80000 	sw	t8,0(a1)
9d006878:	24020005 	li	v0,5
9d00687c:	24670001 	addiu	a3,v1,1
9d006880:	1000ff9a 	b	9d0066ec <core_state_transition+0x98>
9d006884:	aca70008 	sw	a3,8(a1)
9d006888:	1000ff9e 	b	9d006704 <core_state_transition+0xb0>
9d00688c:	27390001 	addiu	t9,t9,1

9d006890 <get_seed_32>:
9d006890:	00041880 	sll	v1,a0,0x2
9d006894:	2c840006 	sltiu	a0,a0,6
9d006898:	1080001a 	beqz	a0,9d006904 <get_seed_32+0x74>
9d00689c:	00000000 	nop
9d0068a0:	3c029d01 	lui	v0,0x9d01
9d0068a4:	2445ff70 	addiu	a1,v0,-144
9d0068a8:	7ca3300a 	lwx	a2,v1(a1)
9d0068ac:	00c00008 	jr	a2
9d0068b0:	00000000 	nop
9d0068b4:	3c078000 	lui	a3,0x8000
9d0068b8:	8ce20020 	lw	v0,32(a3)
9d0068bc:	03e00008 	jr	ra
9d0068c0:	00000000 	nop
9d0068c4:	3c0b8000 	lui	t3,0x8000
9d0068c8:	8d62002c 	lw	v0,44(t3)
9d0068cc:	03e00008 	jr	ra
9d0068d0:	00000000 	nop
9d0068d4:	3c0a8000 	lui	t2,0x8000
9d0068d8:	8d420028 	lw	v0,40(t2)
9d0068dc:	03e00008 	jr	ra
9d0068e0:	00000000 	nop
9d0068e4:	3c098000 	lui	t1,0x8000
9d0068e8:	8d220010 	lw	v0,16(t1)
9d0068ec:	03e00008 	jr	ra
9d0068f0:	00000000 	nop
9d0068f4:	3c088000 	lui	t0,0x8000
9d0068f8:	8d020024 	lw	v0,36(t0)
9d0068fc:	03e00008 	jr	ra
9d006900:	00000000 	nop
9d006904:	03e00008 	jr	ra
9d006908:	00001021 	move	v0,zero

9d00690c <crcu8>:
9d00690c:	30a5ffff 	andi	a1,a1,0xffff
9d006910:	308300ff 	andi	v1,a0,0xff
9d006914:	38a44002 	xori	a0,a1,0x4002
9d006918:	00651026 	xor	v0,v1,a1
9d00691c:	00043042 	srl	a2,a0,0x1
9d006920:	30470001 	andi	a3,v0,0x1
9d006924:	00054842 	srl	t1,a1,0x1
9d006928:	34c88000 	ori	t0,a2,0x8000
9d00692c:	0127400a 	movz	t0,t1,a3
9d006930:	00035042 	srl	t2,v1,0x1
9d006934:	390b4002 	xori	t3,t0,0x4002
9d006938:	010a6026 	xor	t4,t0,t2
9d00693c:	000b6842 	srl	t5,t3,0x1
9d006940:	318e0001 	andi	t6,t4,0x1
9d006944:	0008c042 	srl	t8,t0,0x1
9d006948:	35af8000 	ori	t7,t5,0x8000
9d00694c:	030e780a 	movz	t7,t8,t6
9d006950:	000ac842 	srl	t9,t2,0x1
9d006954:	39e54002 	xori	a1,t7,0x4002
9d006958:	01f91826 	xor	v1,t7,t9
9d00695c:	00052042 	srl	a0,a1,0x1
9d006960:	30620001 	andi	v0,v1,0x1
9d006964:	000f3842 	srl	a3,t7,0x1
9d006968:	34868000 	ori	a2,a0,0x8000
9d00696c:	00e2300a 	movz	a2,a3,v0
9d006970:	00194042 	srl	t0,t9,0x1
9d006974:	38c94002 	xori	t1,a2,0x4002
9d006978:	00c85026 	xor	t2,a2,t0
9d00697c:	00095842 	srl	t3,t1,0x1
9d006980:	314c0001 	andi	t4,t2,0x1
9d006984:	00067042 	srl	t6,a2,0x1
9d006988:	356d8000 	ori	t5,t3,0x8000
9d00698c:	01cc680a 	movz	t5,t6,t4
9d006990:	00087842 	srl	t7,t0,0x1
9d006994:	39b84002 	xori	t8,t5,0x4002
9d006998:	01afc826 	xor	t9,t5,t7
9d00699c:	00182842 	srl	a1,t8,0x1
9d0069a0:	33230001 	andi	v1,t9,0x1
9d0069a4:	000d2042 	srl	a0,t5,0x1
9d0069a8:	34a78000 	ori	a3,a1,0x8000
9d0069ac:	0083380a 	movz	a3,a0,v1
9d0069b0:	000f4042 	srl	t0,t7,0x1
9d0069b4:	38e64002 	xori	a2,a3,0x4002
9d0069b8:	00e81026 	xor	v0,a3,t0
9d0069bc:	00064842 	srl	t1,a2,0x1
9d0069c0:	304a0001 	andi	t2,v0,0x1
9d0069c4:	00076042 	srl	t4,a3,0x1
9d0069c8:	352b8000 	ori	t3,t1,0x8000
9d0069cc:	018a580a 	movz	t3,t4,t2
9d0069d0:	00086842 	srl	t5,t0,0x1
9d0069d4:	396f4002 	xori	t7,t3,0x4002
9d0069d8:	016d7026 	xor	t6,t3,t5
9d0069dc:	000fc042 	srl	t8,t7,0x1
9d0069e0:	31d90001 	andi	t9,t6,0x1
9d0069e4:	37058000 	ori	a1,t8,0x8000
9d0069e8:	000b1842 	srl	v1,t3,0x1
9d0069ec:	0079280a 	movz	a1,v1,t9
9d0069f0:	000d3842 	srl	a3,t5,0x1
9d0069f4:	38a44002 	xori	a0,a1,0x4002
9d0069f8:	00a74026 	xor	t0,a1,a3
9d0069fc:	00043042 	srl	a2,a0,0x1
9d006a00:	31090001 	andi	t1,t0,0x1
9d006a04:	34c28000 	ori	v0,a2,0x8000
9d006a08:	00055042 	srl	t2,a1,0x1
9d006a0c:	03e00008 	jr	ra
9d006a10:	0149100a 	movz	v0,t2,t1

9d006a14 <crcu16>:
9d006a14:	30a3ffff 	andi	v1,a1,0xffff
9d006a18:	3084ffff 	andi	a0,a0,0xffff
9d006a1c:	38654002 	xori	a1,v1,0x4002
9d006a20:	00831026 	xor	v0,a0,v1
9d006a24:	00053042 	srl	a2,a1,0x1
9d006a28:	30470001 	andi	a3,v0,0x1
9d006a2c:	00034842 	srl	t1,v1,0x1
9d006a30:	34c88000 	ori	t0,a2,0x8000
9d006a34:	0127400a 	movz	t0,t1,a3
9d006a38:	7c8a3040 	ext	t2,a0,0x1,0x7
9d006a3c:	390b4002 	xori	t3,t0,0x4002
9d006a40:	010a6026 	xor	t4,t0,t2
9d006a44:	000b6842 	srl	t5,t3,0x1
9d006a48:	318e0001 	andi	t6,t4,0x1
9d006a4c:	0008c042 	srl	t8,t0,0x1
9d006a50:	35af8000 	ori	t7,t5,0x8000
9d006a54:	030e780a 	movz	t7,t8,t6
9d006a58:	000ac842 	srl	t9,t2,0x1
9d006a5c:	39e34002 	xori	v1,t7,0x4002
9d006a60:	01f92826 	xor	a1,t7,t9
9d006a64:	00033042 	srl	a2,v1,0x1
9d006a68:	30a20001 	andi	v0,a1,0x1
9d006a6c:	000f4042 	srl	t0,t7,0x1
9d006a70:	34c78000 	ori	a3,a2,0x8000
9d006a74:	0102380a 	movz	a3,t0,v0
9d006a78:	00194842 	srl	t1,t9,0x1
9d006a7c:	38ea4002 	xori	t2,a3,0x4002
9d006a80:	00e95826 	xor	t3,a3,t1
9d006a84:	000a6042 	srl	t4,t2,0x1
9d006a88:	316d0001 	andi	t5,t3,0x1
9d006a8c:	00077842 	srl	t7,a3,0x1
9d006a90:	358e8000 	ori	t6,t4,0x8000
9d006a94:	01ed700a 	movz	t6,t7,t5
9d006a98:	0009c042 	srl	t8,t1,0x1
9d006a9c:	39d94002 	xori	t9,t6,0x4002
9d006aa0:	01d81826 	xor	v1,t6,t8
9d006aa4:	00192842 	srl	a1,t9,0x1
9d006aa8:	30620001 	andi	v0,v1,0x1
9d006aac:	000e3842 	srl	a3,t6,0x1
9d006ab0:	34a68000 	ori	a2,a1,0x8000
9d006ab4:	00e2300a 	movz	a2,a3,v0
9d006ab8:	00184042 	srl	t0,t8,0x1
9d006abc:	38c94002 	xori	t1,a2,0x4002
9d006ac0:	00c85026 	xor	t2,a2,t0
9d006ac4:	00095842 	srl	t3,t1,0x1
9d006ac8:	314c0001 	andi	t4,t2,0x1
9d006acc:	00067042 	srl	t6,a2,0x1
9d006ad0:	356d8000 	ori	t5,t3,0x8000
9d006ad4:	01cc680a 	movz	t5,t6,t4
9d006ad8:	00087842 	srl	t7,t0,0x1
9d006adc:	39b94002 	xori	t9,t5,0x4002
9d006ae0:	01afc026 	xor	t8,t5,t7
9d006ae4:	00191842 	srl	v1,t9,0x1
9d006ae8:	33020001 	andi	v0,t8,0x1
9d006aec:	000d3042 	srl	a2,t5,0x1
9d006af0:	34658000 	ori	a1,v1,0x8000
9d006af4:	00c2280a 	movz	a1,a2,v0
9d006af8:	000f3842 	srl	a3,t7,0x1
9d006afc:	38a84002 	xori	t0,a1,0x4002
9d006b00:	00a74826 	xor	t1,a1,a3
9d006b04:	00085042 	srl	t2,t0,0x1
9d006b08:	312b0001 	andi	t3,t1,0x1
9d006b0c:	00056842 	srl	t5,a1,0x1
9d006b10:	354c8000 	ori	t4,t2,0x8000
9d006b14:	01ab600a 	movz	t4,t5,t3
9d006b18:	00047202 	srl	t6,a0,0x8
9d006b1c:	398f4002 	xori	t7,t4,0x4002
9d006b20:	018e2026 	xor	a0,t4,t6
9d006b24:	000fc042 	srl	t8,t7,0x1
9d006b28:	30990001 	andi	t9,a0,0x1
9d006b2c:	37038000 	ori	v1,t8,0x8000
9d006b30:	000c1042 	srl	v0,t4,0x1
9d006b34:	0079100b 	movn	v0,v1,t9
9d006b38:	000e2842 	srl	a1,t6,0x1
9d006b3c:	38464002 	xori	a2,v0,0x4002
9d006b40:	00453826 	xor	a3,v0,a1
9d006b44:	00064042 	srl	t0,a2,0x1
9d006b48:	30e90001 	andi	t1,a3,0x1
9d006b4c:	350a8000 	ori	t2,t0,0x8000
9d006b50:	00025842 	srl	t3,v0,0x1
9d006b54:	0149580b 	movn	t3,t2,t1
9d006b58:	00056042 	srl	t4,a1,0x1
9d006b5c:	396d4002 	xori	t5,t3,0x4002
9d006b60:	016c7026 	xor	t6,t3,t4
9d006b64:	000d7842 	srl	t7,t5,0x1
9d006b68:	31c40001 	andi	a0,t6,0x1
9d006b6c:	000bc842 	srl	t9,t3,0x1
9d006b70:	35f88000 	ori	t8,t7,0x8000
9d006b74:	0324c00a 	movz	t8,t9,a0
9d006b78:	000c1842 	srl	v1,t4,0x1
9d006b7c:	3b054002 	xori	a1,t8,0x4002
9d006b80:	03031026 	xor	v0,t8,v1
9d006b84:	00053042 	srl	a2,a1,0x1
9d006b88:	30470001 	andi	a3,v0,0x1
9d006b8c:	00184842 	srl	t1,t8,0x1
9d006b90:	34c88000 	ori	t0,a2,0x8000
9d006b94:	0127400a 	movz	t0,t1,a3
9d006b98:	00035042 	srl	t2,v1,0x1
9d006b9c:	390b4002 	xori	t3,t0,0x4002
9d006ba0:	010a6026 	xor	t4,t0,t2
9d006ba4:	000b7842 	srl	t7,t3,0x1
9d006ba8:	318d0001 	andi	t5,t4,0x1
9d006bac:	00082042 	srl	a0,t0,0x1
9d006bb0:	35f88000 	ori	t8,t7,0x8000
9d006bb4:	008dc00a 	movz	t8,a0,t5
9d006bb8:	000a7042 	srl	t6,t2,0x1
9d006bbc:	3b194002 	xori	t9,t8,0x4002
9d006bc0:	030e1826 	xor	v1,t8,t6
9d006bc4:	00192842 	srl	a1,t9,0x1
9d006bc8:	30620001 	andi	v0,v1,0x1
9d006bcc:	00183842 	srl	a3,t8,0x1
9d006bd0:	34a68000 	ori	a2,a1,0x8000
9d006bd4:	00e2300a 	movz	a2,a3,v0
9d006bd8:	000e4042 	srl	t0,t6,0x1
9d006bdc:	38c94002 	xori	t1,a2,0x4002
9d006be0:	00c85026 	xor	t2,a2,t0
9d006be4:	00095842 	srl	t3,t1,0x1
9d006be8:	314c0001 	andi	t4,t2,0x1
9d006bec:	356d8000 	ori	t5,t3,0x8000
9d006bf0:	00067042 	srl	t6,a2,0x1
9d006bf4:	01cc680a 	movz	t5,t6,t4
9d006bf8:	00087842 	srl	t7,t0,0x1
9d006bfc:	39b84002 	xori	t8,t5,0x4002
9d006c00:	01af2026 	xor	a0,t5,t7
9d006c04:	0018c842 	srl	t9,t8,0x1
9d006c08:	30830001 	andi	v1,a0,0x1
9d006c0c:	37228000 	ori	v0,t9,0x8000
9d006c10:	000d2842 	srl	a1,t5,0x1
9d006c14:	03e00008 	jr	ra
9d006c18:	00a3100a 	movz	v0,a1,v1

9d006c1c <crcu32>:
9d006c1c:	30a3ffff 	andi	v1,a1,0xffff
9d006c20:	38654002 	xori	a1,v1,0x4002
9d006c24:	00831026 	xor	v0,a0,v1
9d006c28:	00053042 	srl	a2,a1,0x1
9d006c2c:	30470001 	andi	a3,v0,0x1
9d006c30:	00034842 	srl	t1,v1,0x1
9d006c34:	34c88000 	ori	t0,a2,0x8000
9d006c38:	0127400a 	movz	t0,t1,a3
9d006c3c:	7c8a3040 	ext	t2,a0,0x1,0x7
9d006c40:	390b4002 	xori	t3,t0,0x4002
9d006c44:	010a6026 	xor	t4,t0,t2
9d006c48:	000b6842 	srl	t5,t3,0x1
9d006c4c:	318e0001 	andi	t6,t4,0x1
9d006c50:	0008c042 	srl	t8,t0,0x1
9d006c54:	35af8000 	ori	t7,t5,0x8000
9d006c58:	030e780a 	movz	t7,t8,t6
9d006c5c:	000ac842 	srl	t9,t2,0x1
9d006c60:	39e34002 	xori	v1,t7,0x4002
9d006c64:	01f92826 	xor	a1,t7,t9
9d006c68:	00033042 	srl	a2,v1,0x1
9d006c6c:	30a20001 	andi	v0,a1,0x1
9d006c70:	000f4042 	srl	t0,t7,0x1
9d006c74:	34c78000 	ori	a3,a2,0x8000
9d006c78:	0102380a 	movz	a3,t0,v0
9d006c7c:	00194842 	srl	t1,t9,0x1
9d006c80:	38ea4002 	xori	t2,a3,0x4002
9d006c84:	00e95826 	xor	t3,a3,t1
9d006c88:	000a6042 	srl	t4,t2,0x1
9d006c8c:	316d0001 	andi	t5,t3,0x1
9d006c90:	00077842 	srl	t7,a3,0x1
9d006c94:	358e8000 	ori	t6,t4,0x8000
9d006c98:	01ed700a 	movz	t6,t7,t5
9d006c9c:	0009c042 	srl	t8,t1,0x1
9d006ca0:	39d94002 	xori	t9,t6,0x4002
9d006ca4:	01d81826 	xor	v1,t6,t8
9d006ca8:	00192842 	srl	a1,t9,0x1
9d006cac:	30620001 	andi	v0,v1,0x1
9d006cb0:	000e3842 	srl	a3,t6,0x1
9d006cb4:	34a68000 	ori	a2,a1,0x8000
9d006cb8:	00e2300a 	movz	a2,a3,v0
9d006cbc:	00184042 	srl	t0,t8,0x1
9d006cc0:	38c94002 	xori	t1,a2,0x4002
9d006cc4:	00c85026 	xor	t2,a2,t0
9d006cc8:	00095842 	srl	t3,t1,0x1
9d006ccc:	314c0001 	andi	t4,t2,0x1
9d006cd0:	00067042 	srl	t6,a2,0x1
9d006cd4:	356d8000 	ori	t5,t3,0x8000
9d006cd8:	01cc680a 	movz	t5,t6,t4
9d006cdc:	00087842 	srl	t7,t0,0x1
9d006ce0:	39b94002 	xori	t9,t5,0x4002
9d006ce4:	01afc026 	xor	t8,t5,t7
9d006ce8:	00191842 	srl	v1,t9,0x1
9d006cec:	33020001 	andi	v0,t8,0x1
9d006cf0:	000d3042 	srl	a2,t5,0x1
9d006cf4:	34658000 	ori	a1,v1,0x8000
9d006cf8:	00c2280a 	movz	a1,a2,v0
9d006cfc:	000f3842 	srl	a3,t7,0x1
9d006d00:	38a84002 	xori	t0,a1,0x4002
9d006d04:	00a74826 	xor	t1,a1,a3
9d006d08:	00085042 	srl	t2,t0,0x1
9d006d0c:	312b0001 	andi	t3,t1,0x1
9d006d10:	00056842 	srl	t5,a1,0x1
9d006d14:	354c8000 	ori	t4,t2,0x8000
9d006d18:	01ab600a 	movz	t4,t5,t3
9d006d1c:	7c8e3a00 	ext	t6,a0,0x8,0x8
9d006d20:	398f4002 	xori	t7,t4,0x4002
9d006d24:	018ec026 	xor	t8,t4,t6
9d006d28:	000fc842 	srl	t9,t7,0x1
9d006d2c:	33030001 	andi	v1,t8,0x1
9d006d30:	37258000 	ori	a1,t9,0x8000
9d006d34:	000c1042 	srl	v0,t4,0x1
9d006d38:	00a3100b 	movn	v0,a1,v1
9d006d3c:	000e3042 	srl	a2,t6,0x1
9d006d40:	38474002 	xori	a3,v0,0x4002
9d006d44:	00464026 	xor	t0,v0,a2
9d006d48:	00074842 	srl	t1,a3,0x1
9d006d4c:	310a0001 	andi	t2,t0,0x1
9d006d50:	352b8000 	ori	t3,t1,0x8000
9d006d54:	00026042 	srl	t4,v0,0x1
9d006d58:	016a600b 	movn	t4,t3,t2
9d006d5c:	00066842 	srl	t5,a2,0x1
9d006d60:	398e4002 	xori	t6,t4,0x4002
9d006d64:	018d7826 	xor	t7,t4,t5
9d006d68:	000ec042 	srl	t8,t6,0x1
9d006d6c:	31f90001 	andi	t9,t7,0x1
9d006d70:	000c1842 	srl	v1,t4,0x1
9d006d74:	37068000 	ori	a2,t8,0x8000
9d006d78:	0079300a 	movz	a2,v1,t9
9d006d7c:	000d4042 	srl	t0,t5,0x1
9d006d80:	38c54002 	xori	a1,a2,0x4002
9d006d84:	00c81026 	xor	v0,a2,t0
9d006d88:	00053842 	srl	a3,a1,0x1
9d006d8c:	30490001 	andi	t1,v0,0x1
9d006d90:	00065842 	srl	t3,a2,0x1
9d006d94:	34ea8000 	ori	t2,a3,0x8000
9d006d98:	0169500a 	movz	t2,t3,t1
9d006d9c:	00086042 	srl	t4,t0,0x1
9d006da0:	394d4002 	xori	t5,t2,0x4002
9d006da4:	014c7026 	xor	t6,t2,t4
9d006da8:	000dc842 	srl	t9,t5,0x1
9d006dac:	31cf0001 	andi	t7,t6,0x1
9d006db0:	000a1842 	srl	v1,t2,0x1
9d006db4:	37268000 	ori	a2,t9,0x8000
9d006db8:	006f300a 	movz	a2,v1,t7
9d006dbc:	000cc042 	srl	t8,t4,0x1
9d006dc0:	38c84002 	xori	t0,a2,0x4002
9d006dc4:	00d82826 	xor	a1,a2,t8
9d006dc8:	00083842 	srl	a3,t0,0x1
9d006dcc:	30a20001 	andi	v0,a1,0x1
9d006dd0:	00065042 	srl	t2,a2,0x1
9d006dd4:	34e98000 	ori	t1,a3,0x8000
9d006dd8:	0142480a 	movz	t1,t2,v0
9d006ddc:	00185842 	srl	t3,t8,0x1
9d006de0:	392c4002 	xori	t4,t1,0x4002
9d006de4:	012b6826 	xor	t5,t1,t3
9d006de8:	000c7042 	srl	t6,t4,0x1
9d006dec:	31af0001 	andi	t7,t5,0x1
9d006df0:	0009c842 	srl	t9,t1,0x1
9d006df4:	35d88000 	ori	t8,t6,0x8000
9d006df8:	032fc00a 	movz	t8,t9,t7
9d006dfc:	000b3042 	srl	a2,t3,0x1
9d006e00:	3b084002 	xori	t0,t8,0x4002
9d006e04:	03061826 	xor	v1,t8,a2
9d006e08:	00082842 	srl	a1,t0,0x1
9d006e0c:	30670001 	andi	a3,v1,0x1
9d006e10:	00184842 	srl	t1,t8,0x1
9d006e14:	34a28000 	ori	v0,a1,0x8000
9d006e18:	0127100a 	movz	v0,t1,a3
9d006e1c:	00042402 	srl	a0,a0,0x10
9d006e20:	384a4002 	xori	t2,v0,0x4002
9d006e24:	00445826 	xor	t3,v0,a0
9d006e28:	000a6042 	srl	t4,t2,0x1
9d006e2c:	316d0001 	andi	t5,t3,0x1
9d006e30:	358e8000 	ori	t6,t4,0x8000
9d006e34:	00027842 	srl	t7,v0,0x1
9d006e38:	01cd780b 	movn	t7,t6,t5
9d006e3c:	7c983040 	ext	t8,a0,0x1,0x7
9d006e40:	39f94002 	xori	t9,t7,0x4002
9d006e44:	01f83026 	xor	a2,t7,t8
9d006e48:	00194042 	srl	t0,t9,0x1
9d006e4c:	30c30001 	andi	v1,a2,0x1
9d006e50:	35058000 	ori	a1,t0,0x8000
9d006e54:	000f1042 	srl	v0,t7,0x1
9d006e58:	00a3100b 	movn	v0,a1,v1
9d006e5c:	00184842 	srl	t1,t8,0x1
9d006e60:	38474002 	xori	a3,v0,0x4002
9d006e64:	00495026 	xor	t2,v0,t1
9d006e68:	00075842 	srl	t3,a3,0x1
9d006e6c:	314c0001 	andi	t4,t2,0x1
9d006e70:	00027042 	srl	t6,v0,0x1
9d006e74:	356d8000 	ori	t5,t3,0x8000
9d006e78:	01cc680a 	movz	t5,t6,t4
9d006e7c:	00097842 	srl	t7,t1,0x1
9d006e80:	39b84002 	xori	t8,t5,0x4002
9d006e84:	01afc826 	xor	t9,t5,t7
9d006e88:	00183042 	srl	a2,t8,0x1
9d006e8c:	33280001 	andi	t0,t9,0x1
9d006e90:	000d1842 	srl	v1,t5,0x1
9d006e94:	34c58000 	ori	a1,a2,0x8000
9d006e98:	0068280a 	movz	a1,v1,t0
9d006e9c:	000f4842 	srl	t1,t7,0x1
9d006ea0:	38a74002 	xori	a3,a1,0x4002
9d006ea4:	00a91026 	xor	v0,a1,t1
9d006ea8:	00075042 	srl	t2,a3,0x1
9d006eac:	304b0001 	andi	t3,v0,0x1
9d006eb0:	00056842 	srl	t5,a1,0x1
9d006eb4:	354c8000 	ori	t4,t2,0x8000
9d006eb8:	01ab600a 	movz	t4,t5,t3
9d006ebc:	00097042 	srl	t6,t1,0x1
9d006ec0:	398f4002 	xori	t7,t4,0x4002
9d006ec4:	018ec026 	xor	t8,t4,t6
9d006ec8:	000fc842 	srl	t9,t7,0x1
9d006ecc:	33080001 	andi	t0,t8,0x1
9d006ed0:	000c3042 	srl	a2,t4,0x1
9d006ed4:	37298000 	ori	t1,t9,0x8000
9d006ed8:	00c8480a 	movz	t1,a2,t0
9d006edc:	000e1842 	srl	v1,t6,0x1
9d006ee0:	39254002 	xori	a1,t1,0x4002
9d006ee4:	01233826 	xor	a3,t1,v1
9d006ee8:	00051042 	srl	v0,a1,0x1
9d006eec:	30ea0001 	andi	t2,a3,0x1
9d006ef0:	00096042 	srl	t4,t1,0x1
9d006ef4:	344b8000 	ori	t3,v0,0x8000
9d006ef8:	018a580a 	movz	t3,t4,t2
9d006efc:	00036842 	srl	t5,v1,0x1
9d006f00:	396e4002 	xori	t6,t3,0x4002
9d006f04:	016d7826 	xor	t7,t3,t5
9d006f08:	000ec042 	srl	t8,t6,0x1
9d006f0c:	31f90001 	andi	t9,t7,0x1
9d006f10:	000b4842 	srl	t1,t3,0x1
9d006f14:	37088000 	ori	t0,t8,0x8000
9d006f18:	0139400a 	movz	t0,t1,t9
9d006f1c:	00043202 	srl	a2,a0,0x8
9d006f20:	39034002 	xori	v1,t0,0x4002
9d006f24:	01062026 	xor	a0,t0,a2
9d006f28:	00032842 	srl	a1,v1,0x1
9d006f2c:	30870001 	andi	a3,a0,0x1
9d006f30:	34aa8000 	ori	t2,a1,0x8000
9d006f34:	00081042 	srl	v0,t0,0x1
9d006f38:	0147100b 	movn	v0,t2,a3
9d006f3c:	00065842 	srl	t3,a2,0x1
9d006f40:	384e4002 	xori	t6,v0,0x4002
9d006f44:	004b6026 	xor	t4,v0,t3
9d006f48:	000e7842 	srl	t7,t6,0x1
9d006f4c:	318d0001 	andi	t5,t4,0x1
9d006f50:	35f88000 	ori	t8,t7,0x8000
9d006f54:	0002c842 	srl	t9,v0,0x1
9d006f58:	030dc80b 	movn	t9,t8,t5
9d006f5c:	000b4042 	srl	t0,t3,0x1
9d006f60:	3b294002 	xori	t1,t9,0x4002
9d006f64:	03281826 	xor	v1,t9,t0
9d006f68:	00093042 	srl	a2,t1,0x1
9d006f6c:	30640001 	andi	a0,v1,0x1
9d006f70:	00193842 	srl	a3,t9,0x1
9d006f74:	34c58000 	ori	a1,a2,0x8000
9d006f78:	00e4280a 	movz	a1,a3,a0
9d006f7c:	00085042 	srl	t2,t0,0x1
9d006f80:	38ab4002 	xori	t3,a1,0x4002
9d006f84:	00aa1026 	xor	v0,a1,t2
9d006f88:	000b6042 	srl	t4,t3,0x1
9d006f8c:	304d0001 	andi	t5,v0,0x1
9d006f90:	00057842 	srl	t7,a1,0x1
9d006f94:	358e8000 	ori	t6,t4,0x8000
9d006f98:	01ed700a 	movz	t6,t7,t5
9d006f9c:	000ac042 	srl	t8,t2,0x1
9d006fa0:	39d94002 	xori	t9,t6,0x4002
9d006fa4:	01d84026 	xor	t0,t6,t8
9d006fa8:	00194842 	srl	t1,t9,0x1
9d006fac:	31030001 	andi	v1,t0,0x1
9d006fb0:	000e3042 	srl	a2,t6,0x1
9d006fb4:	35258000 	ori	a1,t1,0x8000
9d006fb8:	00c3280a 	movz	a1,a2,v1
9d006fbc:	00182042 	srl	a0,t8,0x1
9d006fc0:	38a74002 	xori	a3,a1,0x4002
9d006fc4:	00a45026 	xor	t2,a1,a0
9d006fc8:	00075842 	srl	t3,a3,0x1
9d006fcc:	31420001 	andi	v0,t2,0x1
9d006fd0:	00056842 	srl	t5,a1,0x1
9d006fd4:	356c8000 	ori	t4,t3,0x8000
9d006fd8:	01a2600a 	movz	t4,t5,v0
9d006fdc:	00047042 	srl	t6,a0,0x1
9d006fe0:	398f4002 	xori	t7,t4,0x4002
9d006fe4:	018ec026 	xor	t8,t4,t6
9d006fe8:	000fc842 	srl	t9,t7,0x1
9d006fec:	33080001 	andi	t0,t8,0x1
9d006ff0:	37298000 	ori	t1,t9,0x8000
9d006ff4:	000c1842 	srl	v1,t4,0x1
9d006ff8:	0068480a 	movz	t1,v1,t0
9d006ffc:	000e2842 	srl	a1,t6,0x1
9d007000:	39264002 	xori	a2,t1,0x4002
9d007004:	01252026 	xor	a0,t1,a1
9d007008:	00063842 	srl	a3,a2,0x1
9d00700c:	308a0001 	andi	t2,a0,0x1
9d007010:	34e28000 	ori	v0,a3,0x8000
9d007014:	00095842 	srl	t3,t1,0x1
9d007018:	03e00008 	jr	ra
9d00701c:	016a100a 	movz	v0,t3,t2

9d007020 <crc16>:
9d007020:	30a3ffff 	andi	v1,a1,0xffff
9d007024:	7c042620 	seh	a0,a0
9d007028:	38654002 	xori	a1,v1,0x4002
9d00702c:	00831026 	xor	v0,a0,v1
9d007030:	00053042 	srl	a2,a1,0x1
9d007034:	30470001 	andi	a3,v0,0x1
9d007038:	00034842 	srl	t1,v1,0x1
9d00703c:	34c88000 	ori	t0,a2,0x8000
9d007040:	0127400a 	movz	t0,t1,a3
9d007044:	7c8a3040 	ext	t2,a0,0x1,0x7
9d007048:	390b4002 	xori	t3,t0,0x4002
9d00704c:	010a6026 	xor	t4,t0,t2
9d007050:	000b6842 	srl	t5,t3,0x1
9d007054:	318e0001 	andi	t6,t4,0x1
9d007058:	0008c042 	srl	t8,t0,0x1
9d00705c:	35af8000 	ori	t7,t5,0x8000
9d007060:	030e780a 	movz	t7,t8,t6
9d007064:	000ac842 	srl	t9,t2,0x1
9d007068:	39e34002 	xori	v1,t7,0x4002
9d00706c:	01f92826 	xor	a1,t7,t9
9d007070:	00033042 	srl	a2,v1,0x1
9d007074:	30a20001 	andi	v0,a1,0x1
9d007078:	000f4042 	srl	t0,t7,0x1
9d00707c:	34c78000 	ori	a3,a2,0x8000
9d007080:	0102380a 	movz	a3,t0,v0
9d007084:	00194842 	srl	t1,t9,0x1
9d007088:	38ea4002 	xori	t2,a3,0x4002
9d00708c:	00e95826 	xor	t3,a3,t1
9d007090:	000a6042 	srl	t4,t2,0x1
9d007094:	316d0001 	andi	t5,t3,0x1
9d007098:	00077842 	srl	t7,a3,0x1
9d00709c:	358e8000 	ori	t6,t4,0x8000
9d0070a0:	01ed700a 	movz	t6,t7,t5
9d0070a4:	0009c042 	srl	t8,t1,0x1
9d0070a8:	39d94002 	xori	t9,t6,0x4002
9d0070ac:	01d81826 	xor	v1,t6,t8
9d0070b0:	00192842 	srl	a1,t9,0x1
9d0070b4:	30620001 	andi	v0,v1,0x1
9d0070b8:	000e3842 	srl	a3,t6,0x1
9d0070bc:	34a68000 	ori	a2,a1,0x8000
9d0070c0:	00e2300a 	movz	a2,a3,v0
9d0070c4:	00184042 	srl	t0,t8,0x1
9d0070c8:	38c94002 	xori	t1,a2,0x4002
9d0070cc:	00c85026 	xor	t2,a2,t0
9d0070d0:	00095842 	srl	t3,t1,0x1
9d0070d4:	314c0001 	andi	t4,t2,0x1
9d0070d8:	00067042 	srl	t6,a2,0x1
9d0070dc:	356d8000 	ori	t5,t3,0x8000
9d0070e0:	01cc680a 	movz	t5,t6,t4
9d0070e4:	00087842 	srl	t7,t0,0x1
9d0070e8:	39b94002 	xori	t9,t5,0x4002
9d0070ec:	01afc026 	xor	t8,t5,t7
9d0070f0:	00191842 	srl	v1,t9,0x1
9d0070f4:	33020001 	andi	v0,t8,0x1
9d0070f8:	000d3042 	srl	a2,t5,0x1
9d0070fc:	34658000 	ori	a1,v1,0x8000
9d007100:	00c2280a 	movz	a1,a2,v0
9d007104:	000f3842 	srl	a3,t7,0x1
9d007108:	38a84002 	xori	t0,a1,0x4002
9d00710c:	00a74826 	xor	t1,a1,a3
9d007110:	00085042 	srl	t2,t0,0x1
9d007114:	312b0001 	andi	t3,t1,0x1
9d007118:	00056842 	srl	t5,a1,0x1
9d00711c:	354c8000 	ori	t4,t2,0x8000
9d007120:	01ab600a 	movz	t4,t5,t3
9d007124:	7c8e3a00 	ext	t6,a0,0x8,0x8
9d007128:	398f4002 	xori	t7,t4,0x4002
9d00712c:	018e2026 	xor	a0,t4,t6
9d007130:	000fc042 	srl	t8,t7,0x1
9d007134:	30990001 	andi	t9,a0,0x1
9d007138:	37038000 	ori	v1,t8,0x8000
9d00713c:	000c1042 	srl	v0,t4,0x1
9d007140:	0079100b 	movn	v0,v1,t9
9d007144:	000e2842 	srl	a1,t6,0x1
9d007148:	38464002 	xori	a2,v0,0x4002
9d00714c:	00453826 	xor	a3,v0,a1
9d007150:	00064042 	srl	t0,a2,0x1
9d007154:	30e90001 	andi	t1,a3,0x1
9d007158:	350a8000 	ori	t2,t0,0x8000
9d00715c:	00025842 	srl	t3,v0,0x1
9d007160:	0149580b 	movn	t3,t2,t1
9d007164:	00056042 	srl	t4,a1,0x1
9d007168:	396d4002 	xori	t5,t3,0x4002
9d00716c:	016c7026 	xor	t6,t3,t4
9d007170:	000d7842 	srl	t7,t5,0x1
9d007174:	31c40001 	andi	a0,t6,0x1
9d007178:	000bc842 	srl	t9,t3,0x1
9d00717c:	35f88000 	ori	t8,t7,0x8000
9d007180:	0324c00a 	movz	t8,t9,a0
9d007184:	000c1842 	srl	v1,t4,0x1
9d007188:	3b054002 	xori	a1,t8,0x4002
9d00718c:	03031026 	xor	v0,t8,v1
9d007190:	00053042 	srl	a2,a1,0x1
9d007194:	30470001 	andi	a3,v0,0x1
9d007198:	00184842 	srl	t1,t8,0x1
9d00719c:	34c88000 	ori	t0,a2,0x8000
9d0071a0:	0127400a 	movz	t0,t1,a3
9d0071a4:	00035042 	srl	t2,v1,0x1
9d0071a8:	390b4002 	xori	t3,t0,0x4002
9d0071ac:	010a6026 	xor	t4,t0,t2
9d0071b0:	000b7842 	srl	t7,t3,0x1
9d0071b4:	318d0001 	andi	t5,t4,0x1
9d0071b8:	00082042 	srl	a0,t0,0x1
9d0071bc:	35f88000 	ori	t8,t7,0x8000
9d0071c0:	008dc00a 	movz	t8,a0,t5
9d0071c4:	000a7042 	srl	t6,t2,0x1
9d0071c8:	3b194002 	xori	t9,t8,0x4002
9d0071cc:	030e1826 	xor	v1,t8,t6
9d0071d0:	00192842 	srl	a1,t9,0x1
9d0071d4:	30620001 	andi	v0,v1,0x1
9d0071d8:	00183842 	srl	a3,t8,0x1
9d0071dc:	34a68000 	ori	a2,a1,0x8000
9d0071e0:	00e2300a 	movz	a2,a3,v0
9d0071e4:	000e4042 	srl	t0,t6,0x1
9d0071e8:	38c94002 	xori	t1,a2,0x4002
9d0071ec:	00c85026 	xor	t2,a2,t0
9d0071f0:	00095842 	srl	t3,t1,0x1
9d0071f4:	314c0001 	andi	t4,t2,0x1
9d0071f8:	356d8000 	ori	t5,t3,0x8000
9d0071fc:	00067042 	srl	t6,a2,0x1
9d007200:	01cc680a 	movz	t5,t6,t4
9d007204:	00087842 	srl	t7,t0,0x1
9d007208:	39b84002 	xori	t8,t5,0x4002
9d00720c:	01af2026 	xor	a0,t5,t7
9d007210:	0018c842 	srl	t9,t8,0x1
9d007214:	30830001 	andi	v1,a0,0x1
9d007218:	37228000 	ori	v0,t9,0x8000
9d00721c:	000d2842 	srl	a1,t5,0x1
9d007220:	03e00008 	jr	ra
9d007224:	00a3100a 	movz	v0,a1,v1

9d007228 <check_data_types>:
9d007228:	03e00008 	jr	ra
9d00722c:	00001021 	move	v0,zero

9d007230 <printi.constprop.5>:
9d007230:	27bdffe0 	addiu	sp,sp,-32
9d007234:	10800156 	beqz	a0,9d007790 <printi.constprop.5+0x560>
9d007238:	8faa0030 	lw	t2,48(sp)
9d00723c:	14c0010a 	bnez	a2,9d007668 <printi.constprop.5+0x438>
9d007240:	00807821 	move	t7,a0
9d007244:	00005821 	move	t3,zero
9d007248:	a3a0001d 	sb	zero,29(sp)
9d00724c:	00003021 	move	a2,zero
9d007250:	10800057 	beqz	a0,9d0073b0 <printi.constprop.5+0x180>
9d007254:	27a8001d 	addiu	t0,sp,29
9d007258:	8fa40034 	lw	a0,52(sp)
9d00725c:	27a8001d 	addiu	t0,sp,29
9d007260:	248dffc6 	addiu	t5,a0,-58
9d007264:	01e5001b 	divu	zero,t7,a1
9d007268:	2508ffff 	addiu	t0,t0,-1
9d00726c:	01007021 	move	t6,t0
9d007270:	00003010 	mfhi	a2
9d007274:	00cd6021 	addu	t4,a2,t5
9d007278:	28c9000a 	slti	t1,a2,10
9d00727c:	0189300a 	movz	a2,t4,t1
9d007280:	24cf0030 	addiu	t7,a2,48
9d007284:	00001012 	mflo	v0
9d007288:	10400047 	beqz	v0,9d0073a8 <printi.constprop.5+0x178>
9d00728c:	a10f0000 	sb	t7,0(t0)
9d007290:	0045001b 	divu	zero,v0,a1
9d007294:	2508ffff 	addiu	t0,t0,-1
9d007298:	0000c010 	mfhi	t8
9d00729c:	030d1821 	addu	v1,t8,t5
9d0072a0:	2b04000a 	slti	a0,t8,10
9d0072a4:	0064c00a 	movz	t8,v1,a0
9d0072a8:	27060030 	addiu	a2,t8,48
9d0072ac:	0000c812 	mflo	t9
9d0072b0:	1320003d 	beqz	t9,9d0073a8 <printi.constprop.5+0x178>
9d0072b4:	a1060000 	sb	a2,0(t0)
9d0072b8:	0325001b 	divu	zero,t9,a1
9d0072bc:	25c8fffe 	addiu	t0,t6,-2
9d0072c0:	00007810 	mfhi	t7
9d0072c4:	01ed6021 	addu	t4,t7,t5
9d0072c8:	29e9000a 	slti	t1,t7,10
9d0072cc:	0189780a 	movz	t7,t4,t1
9d0072d0:	25f80030 	addiu	t8,t7,48
9d0072d4:	00001012 	mflo	v0
9d0072d8:	10400033 	beqz	v0,9d0073a8 <printi.constprop.5+0x178>
9d0072dc:	a1d8fffe 	sb	t8,-2(t6)
9d0072e0:	0045001b 	divu	zero,v0,a1
9d0072e4:	25c8fffd 	addiu	t0,t6,-3
9d0072e8:	0000c810 	mfhi	t9
9d0072ec:	032d2021 	addu	a0,t9,t5
9d0072f0:	2b26000a 	slti	a2,t9,10
9d0072f4:	0086c80a 	movz	t9,a0,a2
9d0072f8:	272f0030 	addiu	t7,t9,48
9d0072fc:	00001812 	mflo	v1
9d007300:	10600029 	beqz	v1,9d0073a8 <printi.constprop.5+0x178>
9d007304:	a1cffffd 	sb	t7,-3(t6)
9d007308:	0065001b 	divu	zero,v1,a1
9d00730c:	25c8fffc 	addiu	t0,t6,-4
9d007310:	0000c010 	mfhi	t8
9d007314:	030d6021 	addu	t4,t8,t5
9d007318:	2b09000a 	slti	t1,t8,10
9d00731c:	0189c00a 	movz	t8,t4,t1
9d007320:	27190030 	addiu	t9,t8,48
9d007324:	00001012 	mflo	v0
9d007328:	1040001f 	beqz	v0,9d0073a8 <printi.constprop.5+0x178>
9d00732c:	a1d9fffc 	sb	t9,-4(t6)
9d007330:	0045001b 	divu	zero,v0,a1
9d007334:	25c8fffb 	addiu	t0,t6,-5
9d007338:	00001810 	mfhi	v1
9d00733c:	006d3021 	addu	a2,v1,t5
9d007340:	286f000a 	slti	t7,v1,10
9d007344:	00cf180a 	movz	v1,a2,t7
9d007348:	24780030 	addiu	t8,v1,48
9d00734c:	00002012 	mflo	a0
9d007350:	10800015 	beqz	a0,9d0073a8 <printi.constprop.5+0x178>
9d007354:	a1d8fffb 	sb	t8,-5(t6)
9d007358:	0085001b 	divu	zero,a0,a1
9d00735c:	25c8fffa 	addiu	t0,t6,-6
9d007360:	0000c810 	mfhi	t9
9d007364:	032d6021 	addu	t4,t9,t5
9d007368:	2b29000a 	slti	t1,t9,10
9d00736c:	0189c80a 	movz	t9,t4,t1
9d007370:	27230030 	addiu	v1,t9,48
9d007374:	00001012 	mflo	v0
9d007378:	1040000b 	beqz	v0,9d0073a8 <printi.constprop.5+0x178>
9d00737c:	a1c3fffa 	sb	v1,-6(t6)
9d007380:	0045001b 	divu	zero,v0,a1
9d007384:	25c8fff9 	addiu	t0,t6,-7
9d007388:	00002010 	mfhi	a0
9d00738c:	008d3021 	addu	a2,a0,t5
9d007390:	2898000a 	slti	t8,a0,10
9d007394:	00d8200a 	movz	a0,a2,t8
9d007398:	24990030 	addiu	t9,a0,48
9d00739c:	00007812 	mflo	t7
9d0073a0:	15e0ffb0 	bnez	t7,9d007264 <printi.constprop.5+0x34>
9d0073a4:	a1d9fff9 	sb	t9,-7(t6)
9d0073a8:	156000b8 	bnez	t3,9d00768c <printi.constprop.5+0x45c>
9d0073ac:	00003021 	move	a2,zero
9d0073b0:	58e000e2 	blezl	a3,9d00773c <printi.constprop.5+0x50c>
9d0073b4:	314a0001 	andi	t2,t2,0x1
9d0073b8:	910d0000 	lbu	t5,0(t0)
9d0073bc:	11a000e4 	beqz	t5,9d007750 <printi.constprop.5+0x520>
9d0073c0:	01001821 	move	v1,t0
9d0073c4:	00001021 	move	v0,zero
9d0073c8:	90780001 	lbu	t8,1(v1)
9d0073cc:	24420001 	addiu	v0,v0,1
9d0073d0:	13000017 	beqz	t8,9d007430 <printi.constprop.5+0x200>
9d0073d4:	0040c821 	move	t9,v0
9d0073d8:	90650002 	lbu	a1,2(v1)
9d0073dc:	10a00014 	beqz	a1,9d007430 <printi.constprop.5+0x200>
9d0073e0:	24420001 	addiu	v0,v0,1
9d0073e4:	906b0003 	lbu	t3,3(v1)
9d0073e8:	11600011 	beqz	t3,9d007430 <printi.constprop.5+0x200>
9d0073ec:	27220002 	addiu	v0,t9,2
9d0073f0:	906e0004 	lbu	t6,4(v1)
9d0073f4:	11c0000e 	beqz	t6,9d007430 <printi.constprop.5+0x200>
9d0073f8:	27220003 	addiu	v0,t9,3
9d0073fc:	906c0005 	lbu	t4,5(v1)
9d007400:	1180000b 	beqz	t4,9d007430 <printi.constprop.5+0x200>
9d007404:	27220004 	addiu	v0,t9,4
9d007408:	90690006 	lbu	t1,6(v1)
9d00740c:	11200008 	beqz	t1,9d007430 <printi.constprop.5+0x200>
9d007410:	27220005 	addiu	v0,t9,5
9d007414:	90640007 	lbu	a0,7(v1)
9d007418:	27220006 	addiu	v0,t9,6
9d00741c:	10800004 	beqz	a0,9d007430 <printi.constprop.5+0x200>
9d007420:	24630008 	addiu	v1,v1,8
9d007424:	906f0000 	lbu	t7,0(v1)
9d007428:	15e0ffe7 	bnez	t7,9d0073c8 <printi.constprop.5+0x198>
9d00742c:	27220007 	addiu	v0,t9,7
9d007430:	0047c02a 	slt	t8,v0,a3
9d007434:	170000c7 	bnez	t8,9d007754 <printi.constprop.5+0x524>
9d007438:	00002021 	move	a0,zero
9d00743c:	31470002 	andi	a3,t2,0x2
9d007440:	24190020 	li	t9,32
9d007444:	24050030 	li	a1,48
9d007448:	00a7c80b 	movn	t9,a1,a3
9d00744c:	314a0001 	andi	t2,t2,0x1
9d007450:	03207821 	move	t7,t9
9d007454:	15400080 	bnez	t2,9d007658 <printi.constprop.5+0x428>
9d007458:	00803821 	move	a3,a0
9d00745c:	58800028 	blezl	a0,9d007500 <printi.constprop.5+0x2d0>
9d007460:	00002021 	move	a0,zero
9d007464:	3c0dbf82 	lui	t5,0xbf82
9d007468:	3c0bbf82 	lui	t3,0xbf82
9d00746c:	8dae2210 	lw	t6,8720(t5)
9d007470:	31cc0200 	andi	t4,t6,0x200
9d007474:	5180001e 	beqzl	t4,9d0074f0 <printi.constprop.5+0x2c0>
9d007478:	24e7ffff 	addiu	a3,a3,-1
9d00747c:	8da92210 	lw	t1,8720(t5)
9d007480:	31230200 	andi	v1,t1,0x200
9d007484:	5060001a 	beqzl	v1,9d0074f0 <printi.constprop.5+0x2c0>
9d007488:	24e7ffff 	addiu	a3,a3,-1
9d00748c:	8da22210 	lw	v0,8720(t5)
9d007490:	30580200 	andi	t8,v0,0x200
9d007494:	53000016 	beqzl	t8,9d0074f0 <printi.constprop.5+0x2c0>
9d007498:	24e7ffff 	addiu	a3,a3,-1
9d00749c:	8daa2210 	lw	t2,8720(t5)
9d0074a0:	31590200 	andi	t9,t2,0x200
9d0074a4:	53200012 	beqzl	t9,9d0074f0 <printi.constprop.5+0x2c0>
9d0074a8:	24e7ffff 	addiu	a3,a3,-1
9d0074ac:	8da52210 	lw	a1,8720(t5)
9d0074b0:	30ae0200 	andi	t6,a1,0x200
9d0074b4:	51c0000e 	beqzl	t6,9d0074f0 <printi.constprop.5+0x2c0>
9d0074b8:	24e7ffff 	addiu	a3,a3,-1
9d0074bc:	8dac2210 	lw	t4,8720(t5)
9d0074c0:	31890200 	andi	t1,t4,0x200
9d0074c4:	5120000a 	beqzl	t1,9d0074f0 <printi.constprop.5+0x2c0>
9d0074c8:	24e7ffff 	addiu	a3,a3,-1
9d0074cc:	8da32210 	lw	v1,8720(t5)
9d0074d0:	30620200 	andi	v0,v1,0x200
9d0074d4:	50400006 	beqzl	v0,9d0074f0 <printi.constprop.5+0x2c0>
9d0074d8:	24e7ffff 	addiu	a3,a3,-1
9d0074dc:	8db82210 	lw	t8,8720(t5)
9d0074e0:	330a0200 	andi	t2,t8,0x200
9d0074e4:	1540ffe1 	bnez	t2,9d00746c <printi.constprop.5+0x23c>
9d0074e8:	00000000 	nop
9d0074ec:	24e7ffff 	addiu	a3,a3,-1
9d0074f0:	ad6f2220 	sw	t7,8736(t3)
9d0074f4:	14e0ffdd 	bnez	a3,9d00746c <printi.constprop.5+0x23c>
9d0074f8:	00000000 	nop
9d0074fc:	910d0000 	lbu	t5,0(t0)
9d007500:	11a00053 	beqz	t5,9d007650 <printi.constprop.5+0x420>
9d007504:	00c41021 	addu	v0,a2,a0
9d007508:	3c0bbf82 	lui	t3,0xbf82
9d00750c:	3c19bf82 	lui	t9,0xbf82
9d007510:	8d652210 	lw	a1,8720(t3)
9d007514:	30ae0200 	andi	t6,a1,0x200
9d007518:	11c0001d 	beqz	t6,9d007590 <printi.constprop.5+0x360>
9d00751c:	00000000 	nop
9d007520:	8d6c2210 	lw	t4,8720(t3)
9d007524:	31890200 	andi	t1,t4,0x200
9d007528:	11200019 	beqz	t1,9d007590 <printi.constprop.5+0x360>
9d00752c:	00000000 	nop
9d007530:	8d632210 	lw	v1,8720(t3)
9d007534:	30620200 	andi	v0,v1,0x200
9d007538:	10400015 	beqz	v0,9d007590 <printi.constprop.5+0x360>
9d00753c:	00000000 	nop
9d007540:	8d782210 	lw	t8,8720(t3)
9d007544:	330a0200 	andi	t2,t8,0x200
9d007548:	11400011 	beqz	t2,9d007590 <printi.constprop.5+0x360>
9d00754c:	00000000 	nop
9d007550:	8d652210 	lw	a1,8720(t3)
9d007554:	30ae0200 	andi	t6,a1,0x200
9d007558:	11c0000d 	beqz	t6,9d007590 <printi.constprop.5+0x360>
9d00755c:	00000000 	nop
9d007560:	8d6c2210 	lw	t4,8720(t3)
9d007564:	31890200 	andi	t1,t4,0x200
9d007568:	11200009 	beqz	t1,9d007590 <printi.constprop.5+0x360>
9d00756c:	00000000 	nop
9d007570:	8d632210 	lw	v1,8720(t3)
9d007574:	30620200 	andi	v0,v1,0x200
9d007578:	10400005 	beqz	v0,9d007590 <printi.constprop.5+0x360>
9d00757c:	00000000 	nop
9d007580:	8d782210 	lw	t8,8720(t3)
9d007584:	330a0200 	andi	t2,t8,0x200
9d007588:	1540ffe1 	bnez	t2,9d007510 <printi.constprop.5+0x2e0>
9d00758c:	00000000 	nop
9d007590:	af2d2220 	sw	t5,8736(t9)
9d007594:	25080001 	addiu	t0,t0,1
9d007598:	910d0000 	lbu	t5,0(t0)
9d00759c:	15a0ffdc 	bnez	t5,9d007510 <printi.constprop.5+0x2e0>
9d0075a0:	24840001 	addiu	a0,a0,1
9d0075a4:	18e0002a 	blez	a3,9d007650 <printi.constprop.5+0x420>
9d0075a8:	00c41021 	addu	v0,a2,a0
9d0075ac:	00e04021 	move	t0,a3
9d0075b0:	3c0dbf82 	lui	t5,0xbf82
9d0075b4:	3c0bbf82 	lui	t3,0xbf82
9d0075b8:	8db92210 	lw	t9,8720(t5)
9d0075bc:	33250200 	andi	a1,t9,0x200
9d0075c0:	50a0001e 	beqzl	a1,9d00763c <printi.constprop.5+0x40c>
9d0075c4:	2508ffff 	addiu	t0,t0,-1
9d0075c8:	8dae2210 	lw	t6,8720(t5)
9d0075cc:	31cc0200 	andi	t4,t6,0x200
9d0075d0:	5180001a 	beqzl	t4,9d00763c <printi.constprop.5+0x40c>
9d0075d4:	2508ffff 	addiu	t0,t0,-1
9d0075d8:	8da92210 	lw	t1,8720(t5)
9d0075dc:	31230200 	andi	v1,t1,0x200
9d0075e0:	50600016 	beqzl	v1,9d00763c <printi.constprop.5+0x40c>
9d0075e4:	2508ffff 	addiu	t0,t0,-1
9d0075e8:	8da22210 	lw	v0,8720(t5)
9d0075ec:	30580200 	andi	t8,v0,0x200
9d0075f0:	53000012 	beqzl	t8,9d00763c <printi.constprop.5+0x40c>
9d0075f4:	2508ffff 	addiu	t0,t0,-1
9d0075f8:	8daa2210 	lw	t2,8720(t5)
9d0075fc:	31590200 	andi	t9,t2,0x200
9d007600:	5320000e 	beqzl	t9,9d00763c <printi.constprop.5+0x40c>
9d007604:	2508ffff 	addiu	t0,t0,-1
9d007608:	8da52210 	lw	a1,8720(t5)
9d00760c:	30ae0200 	andi	t6,a1,0x200
9d007610:	51c0000a 	beqzl	t6,9d00763c <printi.constprop.5+0x40c>
9d007614:	2508ffff 	addiu	t0,t0,-1
9d007618:	8dac2210 	lw	t4,8720(t5)
9d00761c:	31890200 	andi	t1,t4,0x200
9d007620:	51200006 	beqzl	t1,9d00763c <printi.constprop.5+0x40c>
9d007624:	2508ffff 	addiu	t0,t0,-1
9d007628:	8da32210 	lw	v1,8720(t5)
9d00762c:	30620200 	andi	v0,v1,0x200
9d007630:	1440ffe1 	bnez	v0,9d0075b8 <printi.constprop.5+0x388>
9d007634:	00000000 	nop
9d007638:	2508ffff 	addiu	t0,t0,-1
9d00763c:	ad6f2220 	sw	t7,8736(t3)
9d007640:	1500ffdd 	bnez	t0,9d0075b8 <printi.constprop.5+0x388>
9d007644:	00000000 	nop
9d007648:	00872021 	addu	a0,a0,a3
9d00764c:	00c41021 	addu	v0,a2,a0
9d007650:	03e00008 	jr	ra
9d007654:	27bd0020 	addiu	sp,sp,32
9d007658:	15a0ffab 	bnez	t5,9d007508 <printi.constprop.5+0x2d8>
9d00765c:	00002021 	move	a0,zero
9d007660:	1000ffd0 	b	9d0075a4 <printi.constprop.5+0x374>
9d007664:	00000000 	nop
9d007668:	2403000a 	li	v1,10
9d00766c:	14a3fef6 	bne	a1,v1,9d007248 <printi.constprop.5+0x18>
9d007670:	00005821 	move	t3,zero
9d007674:	0481fef5 	bgez	a0,9d00724c <printi.constprop.5+0x1c>
9d007678:	a3a0001d 	sb	zero,29(sp)
9d00767c:	00047823 	negu	t7,a0
9d007680:	15e0fef5 	bnez	t7,9d007258 <printi.constprop.5+0x28>
9d007684:	240b0001 	li	t3,1
9d007688:	27a8001d 	addiu	t0,sp,29
9d00768c:	10e0003c 	beqz	a3,9d007780 <printi.constprop.5+0x550>
9d007690:	240b002d 	li	t3,45
9d007694:	31450002 	andi	a1,t2,0x2
9d007698:	50a0003a 	beqzl	a1,9d007784 <printi.constprop.5+0x554>
9d00769c:	a10bffff 	sb	t3,-1(t0)
9d0076a0:	3c0dbf82 	lui	t5,0xbf82
9d0076a4:	8dae2210 	lw	t6,8720(t5)
9d0076a8:	31c20200 	andi	v0,t6,0x200
9d0076ac:	1040001d 	beqz	v0,9d007724 <printi.constprop.5+0x4f4>
9d0076b0:	2403002d 	li	v1,45
9d0076b4:	8dac2210 	lw	t4,8720(t5)
9d0076b8:	31890200 	andi	t1,t4,0x200
9d0076bc:	5120001a 	beqzl	t1,9d007728 <printi.constprop.5+0x4f8>
9d0076c0:	24e7ffff 	addiu	a3,a3,-1
9d0076c4:	8da32210 	lw	v1,8720(t5)
9d0076c8:	30640200 	andi	a0,v1,0x200
9d0076cc:	50800015 	beqzl	a0,9d007724 <printi.constprop.5+0x4f4>
9d0076d0:	2403002d 	li	v1,45
9d0076d4:	8daf2210 	lw	t7,8720(t5)
9d0076d8:	31e60200 	andi	a2,t7,0x200
9d0076dc:	50c00011 	beqzl	a2,9d007724 <printi.constprop.5+0x4f4>
9d0076e0:	2403002d 	li	v1,45
9d0076e4:	8db82210 	lw	t8,8720(t5)
9d0076e8:	33190200 	andi	t9,t8,0x200
9d0076ec:	5320000d 	beqzl	t9,9d007724 <printi.constprop.5+0x4f4>
9d0076f0:	2403002d 	li	v1,45
9d0076f4:	8da52210 	lw	a1,8720(t5)
9d0076f8:	30ab0200 	andi	t3,a1,0x200
9d0076fc:	51600009 	beqzl	t3,9d007724 <printi.constprop.5+0x4f4>
9d007700:	2403002d 	li	v1,45
9d007704:	8dae2210 	lw	t6,8720(t5)
9d007708:	31c20200 	andi	v0,t6,0x200
9d00770c:	10400005 	beqz	v0,9d007724 <printi.constprop.5+0x4f4>
9d007710:	2403002d 	li	v1,45
9d007714:	8dac2210 	lw	t4,8720(t5)
9d007718:	31890200 	andi	t1,t4,0x200
9d00771c:	1520ffe1 	bnez	t1,9d0076a4 <printi.constprop.5+0x474>
9d007720:	00000000 	nop
9d007724:	24e7ffff 	addiu	a3,a3,-1
9d007728:	24060001 	li	a2,1
9d00772c:	ada32220 	sw	v1,8736(t5)
9d007730:	5ce0ff22 	bgtzl	a3,9d0073bc <printi.constprop.5+0x18c>
9d007734:	910d0000 	lbu	t5,0(t0)
9d007738:	314a0001 	andi	t2,t2,0x1
9d00773c:	15400071 	bnez	t2,9d007904 <printi.constprop.5+0x6d4>
9d007740:	910d0000 	lbu	t5,0(t0)
9d007744:	240f0020 	li	t7,32
9d007748:	1000ff6d 	b	9d007500 <printi.constprop.5+0x2d0>
9d00774c:	00002021 	move	a0,zero
9d007750:	00001021 	move	v0,zero
9d007754:	00e22023 	subu	a0,a3,v0
9d007758:	24190020 	li	t9,32
9d00775c:	31470002 	andi	a3,t2,0x2
9d007760:	24050030 	li	a1,48
9d007764:	00a7c80b 	movn	t9,a1,a3
9d007768:	314a0001 	andi	t2,t2,0x1
9d00776c:	03207821 	move	t7,t9
9d007770:	1540ffb9 	bnez	t2,9d007658 <printi.constprop.5+0x428>
9d007774:	00803821 	move	a3,a0
9d007778:	1000ff38 	b	9d00745c <printi.constprop.5+0x22c>
9d00777c:	00000000 	nop
9d007780:	a10bffff 	sb	t3,-1(t0)
9d007784:	00003021 	move	a2,zero
9d007788:	1000ff09 	b	9d0073b0 <printi.constprop.5+0x180>
9d00778c:	2508ffff 	addiu	t0,t0,-1
9d007790:	24060030 	li	a2,48
9d007794:	a3a60000 	sb	a2,0(sp)
9d007798:	18e0005d 	blez	a3,9d007910 <printi.constprop.5+0x6e0>
9d00779c:	a3a00001 	sb	zero,1(sp)
9d0077a0:	00001021 	move	v0,zero
9d0077a4:	24420001 	addiu	v0,v0,1
9d0077a8:	7fa2598a 	lbux	t3,v0(sp)
9d0077ac:	1160001d 	beqz	t3,9d007824 <printi.constprop.5+0x5f4>
9d0077b0:	0040c021 	move	t8,v0
9d0077b4:	24420001 	addiu	v0,v0,1
9d0077b8:	7fa2c98a 	lbux	t9,v0(sp)
9d0077bc:	1320001a 	beqz	t9,9d007828 <printi.constprop.5+0x5f8>
9d0077c0:	314f0002 	andi	t7,t2,0x2
9d0077c4:	27020002 	addiu	v0,t8,2
9d0077c8:	7fa2298a 	lbux	a1,v0(sp)
9d0077cc:	10a00017 	beqz	a1,9d00782c <printi.constprop.5+0x5fc>
9d0077d0:	24040030 	li	a0,48
9d0077d4:	27020003 	addiu	v0,t8,3
9d0077d8:	7fa2718a 	lbux	t6,v0(sp)
9d0077dc:	11c00014 	beqz	t6,9d007830 <printi.constprop.5+0x600>
9d0077e0:	240d0020 	li	t5,32
9d0077e4:	27020004 	addiu	v0,t8,4
9d0077e8:	7fa2618a 	lbux	t4,v0(sp)
9d0077ec:	11800011 	beqz	t4,9d007834 <printi.constprop.5+0x604>
9d0077f0:	0047302a 	slt	a2,v0,a3
9d0077f4:	27020005 	addiu	v0,t8,5
9d0077f8:	7fa2498a 	lbux	t1,v0(sp)
9d0077fc:	1120000d 	beqz	t1,9d007834 <printi.constprop.5+0x604>
9d007800:	0047302a 	slt	a2,v0,a3
9d007804:	27020006 	addiu	v0,t8,6
9d007808:	7fa2198a 	lbux	v1,v0(sp)
9d00780c:	10600009 	beqz	v1,9d007834 <printi.constprop.5+0x604>
9d007810:	0047302a 	slt	a2,v0,a3
9d007814:	27020007 	addiu	v0,t8,7
9d007818:	7fa2418a 	lbux	t0,v0(sp)
9d00781c:	5500ffe2 	bnezl	t0,9d0077a8 <printi.constprop.5+0x578>
9d007820:	24420001 	addiu	v0,v0,1
9d007824:	314f0002 	andi	t7,t2,0x2
9d007828:	24040030 	li	a0,48
9d00782c:	240d0020 	li	t5,32
9d007830:	0047302a 	slt	a2,v0,a3
9d007834:	008f680b 	movn	t5,a0,t7
9d007838:	00e23823 	subu	a3,a3,v0
9d00783c:	314a0001 	andi	t2,t2,0x1
9d007840:	0006380a 	movz	a3,zero,a2
9d007844:	15400089 	bnez	t2,9d007a6c <printi.constprop.5+0x83c>
9d007848:	01a02021 	move	a0,t5
9d00784c:	18e00087 	blez	a3,9d007a6c <printi.constprop.5+0x83c>
9d007850:	00e02821 	move	a1,a3
9d007854:	3c0bbf82 	lui	t3,0xbf82
9d007858:	3c18bf82 	lui	t8,0xbf82
9d00785c:	8d792210 	lw	t9,8720(t3)
9d007860:	332e0200 	andi	t6,t9,0x200
9d007864:	51c0001e 	beqzl	t6,9d0078e0 <printi.constprop.5+0x6b0>
9d007868:	24a5ffff 	addiu	a1,a1,-1
9d00786c:	8d6c2210 	lw	t4,8720(t3)
9d007870:	31890200 	andi	t1,t4,0x200
9d007874:	5120001a 	beqzl	t1,9d0078e0 <printi.constprop.5+0x6b0>
9d007878:	24a5ffff 	addiu	a1,a1,-1
9d00787c:	8d632210 	lw	v1,8720(t3)
9d007880:	30620200 	andi	v0,v1,0x200
9d007884:	50400016 	beqzl	v0,9d0078e0 <printi.constprop.5+0x6b0>
9d007888:	24a5ffff 	addiu	a1,a1,-1
9d00788c:	8d682210 	lw	t0,8720(t3)
9d007890:	31060200 	andi	a2,t0,0x200
9d007894:	50c00012 	beqzl	a2,9d0078e0 <printi.constprop.5+0x6b0>
9d007898:	24a5ffff 	addiu	a1,a1,-1
9d00789c:	8d6f2210 	lw	t7,8720(t3)
9d0078a0:	31ea0200 	andi	t2,t7,0x200
9d0078a4:	5140000e 	beqzl	t2,9d0078e0 <printi.constprop.5+0x6b0>
9d0078a8:	24a5ffff 	addiu	a1,a1,-1
9d0078ac:	8d6d2210 	lw	t5,8720(t3)
9d0078b0:	31b90200 	andi	t9,t5,0x200
9d0078b4:	5320000a 	beqzl	t9,9d0078e0 <printi.constprop.5+0x6b0>
9d0078b8:	24a5ffff 	addiu	a1,a1,-1
9d0078bc:	8d6e2210 	lw	t6,8720(t3)
9d0078c0:	31cc0200 	andi	t4,t6,0x200
9d0078c4:	51800006 	beqzl	t4,9d0078e0 <printi.constprop.5+0x6b0>
9d0078c8:	24a5ffff 	addiu	a1,a1,-1
9d0078cc:	8d692210 	lw	t1,8720(t3)
9d0078d0:	31230200 	andi	v1,t1,0x200
9d0078d4:	1460ffe1 	bnez	v1,9d00785c <printi.constprop.5+0x62c>
9d0078d8:	00000000 	nop
9d0078dc:	24a5ffff 	addiu	a1,a1,-1
9d0078e0:	af042220 	sw	a0,8736(t8)
9d0078e4:	14a0ffdd 	bnez	a1,9d00785c <printi.constprop.5+0x62c>
9d0078e8:	00000000 	nop
9d0078ec:	93ad0000 	lbu	t5,0(sp)
9d0078f0:	11a0ff57 	beqz	t5,9d007650 <printi.constprop.5+0x420>
9d0078f4:	00e01021 	move	v0,a3
9d0078f8:	00e07821 	move	t7,a3
9d0078fc:	10000007 	b	9d00791c <printi.constprop.5+0x6ec>
9d007900:	00003821 	move	a3,zero
9d007904:	00002021 	move	a0,zero
9d007908:	1000fefd 	b	9d007500 <printi.constprop.5+0x2d0>
9d00790c:	240f0020 	li	t7,32
9d007910:	00007821 	move	t7,zero
9d007914:	240d0030 	li	t5,48
9d007918:	24040020 	li	a0,32
9d00791c:	03a04021 	move	t0,sp
9d007920:	3c0bbf82 	lui	t3,0xbf82
9d007924:	3c18bf82 	lui	t8,0xbf82
9d007928:	8d622210 	lw	v0,8720(t3)
9d00792c:	30460200 	andi	a2,v0,0x200
9d007930:	10c0001d 	beqz	a2,9d0079a8 <printi.constprop.5+0x778>
9d007934:	00000000 	nop
9d007938:	8d6a2210 	lw	t2,8720(t3)
9d00793c:	31590200 	andi	t9,t2,0x200
9d007940:	13200019 	beqz	t9,9d0079a8 <printi.constprop.5+0x778>
9d007944:	00000000 	nop
9d007948:	8d6e2210 	lw	t6,8720(t3)
9d00794c:	31cc0200 	andi	t4,t6,0x200
9d007950:	11800015 	beqz	t4,9d0079a8 <printi.constprop.5+0x778>
9d007954:	00000000 	nop
9d007958:	8d692210 	lw	t1,8720(t3)
9d00795c:	31230200 	andi	v1,t1,0x200
9d007960:	10600011 	beqz	v1,9d0079a8 <printi.constprop.5+0x778>
9d007964:	00000000 	nop
9d007968:	8d652210 	lw	a1,8720(t3)
9d00796c:	30a20200 	andi	v0,a1,0x200
9d007970:	1040000d 	beqz	v0,9d0079a8 <printi.constprop.5+0x778>
9d007974:	00000000 	nop
9d007978:	8d662210 	lw	a2,8720(t3)
9d00797c:	30ca0200 	andi	t2,a2,0x200
9d007980:	11400009 	beqz	t2,9d0079a8 <printi.constprop.5+0x778>
9d007984:	00000000 	nop
9d007988:	8d792210 	lw	t9,8720(t3)
9d00798c:	332e0200 	andi	t6,t9,0x200
9d007990:	11c00005 	beqz	t6,9d0079a8 <printi.constprop.5+0x778>
9d007994:	00000000 	nop
9d007998:	8d6c2210 	lw	t4,8720(t3)
9d00799c:	31890200 	andi	t1,t4,0x200
9d0079a0:	1520ffe1 	bnez	t1,9d007928 <printi.constprop.5+0x6f8>
9d0079a4:	00000000 	nop
9d0079a8:	af0d2220 	sw	t5,8736(t8)
9d0079ac:	25080001 	addiu	t0,t0,1
9d0079b0:	910d0000 	lbu	t5,0(t0)
9d0079b4:	15a0ffdc 	bnez	t5,9d007928 <printi.constprop.5+0x6f8>
9d0079b8:	25ef0001 	addiu	t7,t7,1
9d0079bc:	18e0ff24 	blez	a3,9d007650 <printi.constprop.5+0x420>
9d0079c0:	01e01021 	move	v0,t7
9d0079c4:	00e03021 	move	a2,a3
9d0079c8:	3c0dbf82 	lui	t5,0xbf82
9d0079cc:	3c0bbf82 	lui	t3,0xbf82
9d0079d0:	8db82210 	lw	t8,8720(t5)
9d0079d4:	33030200 	andi	v1,t8,0x200
9d0079d8:	5060001e 	beqzl	v1,9d007a54 <printi.constprop.5+0x824>
9d0079dc:	24c6ffff 	addiu	a2,a2,-1
9d0079e0:	8da52210 	lw	a1,8720(t5)
9d0079e4:	30a20200 	andi	v0,a1,0x200
9d0079e8:	5040001a 	beqzl	v0,9d007a54 <printi.constprop.5+0x824>
9d0079ec:	24c6ffff 	addiu	a2,a2,-1
9d0079f0:	8daa2210 	lw	t2,8720(t5)
9d0079f4:	31590200 	andi	t9,t2,0x200
9d0079f8:	53200016 	beqzl	t9,9d007a54 <printi.constprop.5+0x824>
9d0079fc:	24c6ffff 	addiu	a2,a2,-1
9d007a00:	8dae2210 	lw	t6,8720(t5)
9d007a04:	31cc0200 	andi	t4,t6,0x200
9d007a08:	51800012 	beqzl	t4,9d007a54 <printi.constprop.5+0x824>
9d007a0c:	24c6ffff 	addiu	a2,a2,-1
9d007a10:	8da92210 	lw	t1,8720(t5)
9d007a14:	31280200 	andi	t0,t1,0x200
9d007a18:	5100000e 	beqzl	t0,9d007a54 <printi.constprop.5+0x824>
9d007a1c:	24c6ffff 	addiu	a2,a2,-1
9d007a20:	8db82210 	lw	t8,8720(t5)
9d007a24:	33030200 	andi	v1,t8,0x200
9d007a28:	5060000a 	beqzl	v1,9d007a54 <printi.constprop.5+0x824>
9d007a2c:	24c6ffff 	addiu	a2,a2,-1
9d007a30:	8da52210 	lw	a1,8720(t5)
9d007a34:	30a20200 	andi	v0,a1,0x200
9d007a38:	50400006 	beqzl	v0,9d007a54 <printi.constprop.5+0x824>
9d007a3c:	24c6ffff 	addiu	a2,a2,-1
9d007a40:	8daa2210 	lw	t2,8720(t5)
9d007a44:	31590200 	andi	t9,t2,0x200
9d007a48:	1720ffe1 	bnez	t9,9d0079d0 <printi.constprop.5+0x7a0>
9d007a4c:	00000000 	nop
9d007a50:	24c6ffff 	addiu	a2,a2,-1
9d007a54:	ad642220 	sw	a0,8736(t3)
9d007a58:	14c0ffdd 	bnez	a2,9d0079d0 <printi.constprop.5+0x7a0>
9d007a5c:	00000000 	nop
9d007a60:	01e71021 	addu	v0,t7,a3
9d007a64:	03e00008 	jr	ra
9d007a68:	27bd0020 	addiu	sp,sp,32
9d007a6c:	00007821 	move	t7,zero
9d007a70:	1000ffaa 	b	9d00791c <printi.constprop.5+0x6ec>
9d007a74:	240d0030 	li	t5,48

9d007a78 <print.constprop.4>:
9d007a78:	27bdff80 	addiu	sp,sp,-128
9d007a7c:	afbf007c 	sw	ra,124(sp)
9d007a80:	afbe0078 	sw	s8,120(sp)
9d007a84:	afb70074 	sw	s7,116(sp)
9d007a88:	afb60070 	sw	s6,112(sp)
9d007a8c:	afb5006c 	sw	s5,108(sp)
9d007a90:	afb40068 	sw	s4,104(sp)
9d007a94:	afb30064 	sw	s3,100(sp)
9d007a98:	afb20060 	sw	s2,96(sp)
9d007a9c:	afb1005c 	sw	s1,92(sp)
9d007aa0:	afb00058 	sw	s0,88(sp)
9d007aa4:	90930000 	lbu	s3,0(a0)
9d007aa8:	12600507 	beqz	s3,9d008ec8 <print.constprop.4+0x1450>
9d007aac:	afa50084 	sw	a1,132(sp)
9d007ab0:	3c029d01 	lui	v0,0x9d01
9d007ab4:	8c4504ec 	lw	a1,1260(v0)
9d007ab8:	0000b821 	move	s7,zero
9d007abc:	3c069d01 	lui	a2,0x9d01
9d007ac0:	afa50050 	sw	a1,80(sp)
9d007ac4:	24de046c 	addiu	s8,a2,1132
9d007ac8:	02e0b021 	move	s6,s7
9d007acc:	24080025 	li	t0,37
9d007ad0:	12680034 	beq	s3,t0,9d007ba4 <print.constprop.4+0x12c>
9d007ad4:	02603821 	move	a3,s3
9d007ad8:	3c0ebf82 	lui	t6,0xbf82
9d007adc:	8dd02210 	lw	s0,8720(t6)
9d007ae0:	32120200 	andi	s2,s0,0x200
9d007ae4:	5240001d 	beqzl	s2,9d007b5c <print.constprop.4+0xe4>
9d007ae8:	00808021 	move	s0,a0
9d007aec:	8dd92210 	lw	t9,8720(t6)
9d007af0:	332f0200 	andi	t7,t9,0x200
9d007af4:	51e00019 	beqzl	t7,9d007b5c <print.constprop.4+0xe4>
9d007af8:	00808021 	move	s0,a0
9d007afc:	8dc82210 	lw	t0,8720(t6)
9d007b00:	31170200 	andi	s7,t0,0x200
9d007b04:	52e00015 	beqzl	s7,9d007b5c <print.constprop.4+0xe4>
9d007b08:	00808021 	move	s0,a0
9d007b0c:	8dcb2210 	lw	t3,8720(t6)
9d007b10:	31690200 	andi	t1,t3,0x200
9d007b14:	51200011 	beqzl	t1,9d007b5c <print.constprop.4+0xe4>
9d007b18:	00808021 	move	s0,a0
9d007b1c:	8dd12210 	lw	s1,8720(t6)
9d007b20:	322d0200 	andi	t5,s1,0x200
9d007b24:	51a0000d 	beqzl	t5,9d007b5c <print.constprop.4+0xe4>
9d007b28:	00808021 	move	s0,a0
9d007b2c:	8dcc2210 	lw	t4,8720(t6)
9d007b30:	31850200 	andi	a1,t4,0x200
9d007b34:	50a00009 	beqzl	a1,9d007b5c <print.constprop.4+0xe4>
9d007b38:	00808021 	move	s0,a0
9d007b3c:	8dd82210 	lw	t8,8720(t6)
9d007b40:	33150200 	andi	s5,t8,0x200
9d007b44:	12a00005 	beqz	s5,9d007b5c <print.constprop.4+0xe4>
9d007b48:	00808021 	move	s0,a0
9d007b4c:	8dc62210 	lw	a2,8720(t6)
9d007b50:	30d40200 	andi	s4,a2,0x200
9d007b54:	1680ffe1 	bnez	s4,9d007adc <print.constprop.4+0x64>
9d007b58:	00000000 	nop
9d007b5c:	adc72220 	sw	a3,8736(t6)
9d007b60:	26d60001 	addiu	s6,s6,1
9d007b64:	92130001 	lbu	s3,1(s0)
9d007b68:	1660ffd8 	bnez	s3,9d007acc <print.constprop.4+0x54>
9d007b6c:	26040001 	addiu	a0,s0,1
9d007b70:	8fbf007c 	lw	ra,124(sp)
9d007b74:	02c01021 	move	v0,s6
9d007b78:	8fbe0078 	lw	s8,120(sp)
9d007b7c:	8fb70074 	lw	s7,116(sp)
9d007b80:	8fb60070 	lw	s6,112(sp)
9d007b84:	8fb5006c 	lw	s5,108(sp)
9d007b88:	8fb40068 	lw	s4,104(sp)
9d007b8c:	8fb30064 	lw	s3,100(sp)
9d007b90:	8fb20060 	lw	s2,96(sp)
9d007b94:	8fb1005c 	lw	s1,92(sp)
9d007b98:	8fb00058 	lw	s0,88(sp)
9d007b9c:	03e00008 	jr	ra
9d007ba0:	27bd0080 	addiu	sp,sp,128
9d007ba4:	908c0001 	lbu	t4,1(a0)
9d007ba8:	1180fff1 	beqz	t4,9d007b70 <print.constprop.4+0xf8>
9d007bac:	24900001 	addiu	s0,a0,1
9d007bb0:	119300e7 	beq	t4,s3,9d007f50 <print.constprop.4+0x4d8>
9d007bb4:	2403002d 	li	v1,45
9d007bb8:	118300e7 	beq	t4,v1,9d007f58 <print.constprop.4+0x4e0>
9d007bbc:	00005021 	move	t2,zero
9d007bc0:	24040030 	li	a0,48
9d007bc4:	15840024 	bne	t4,a0,9d007c58 <print.constprop.4+0x1e0>
9d007bc8:	2582ffd0 	addiu	v0,t4,-48
9d007bcc:	24090030 	li	t1,48
9d007bd0:	26100001 	addiu	s0,s0,1
9d007bd4:	920c0000 	lbu	t4,0(s0)
9d007bd8:	02005821 	move	t3,s0
9d007bdc:	1589001d 	bne	t4,t1,9d007c54 <print.constprop.4+0x1dc>
9d007be0:	354a0002 	ori	t2,t2,0x2
9d007be4:	26100001 	addiu	s0,s0,1
9d007be8:	920c0000 	lbu	t4,0(s0)
9d007bec:	15890019 	bne	t4,t1,9d007c54 <print.constprop.4+0x1dc>
9d007bf0:	354a0002 	ori	t2,t2,0x2
9d007bf4:	916c0002 	lbu	t4,2(t3)
9d007bf8:	25700002 	addiu	s0,t3,2
9d007bfc:	15890015 	bne	t4,t1,9d007c54 <print.constprop.4+0x1dc>
9d007c00:	354a0002 	ori	t2,t2,0x2
9d007c04:	916c0003 	lbu	t4,3(t3)
9d007c08:	25700003 	addiu	s0,t3,3
9d007c0c:	15890011 	bne	t4,t1,9d007c54 <print.constprop.4+0x1dc>
9d007c10:	354a0002 	ori	t2,t2,0x2
9d007c14:	916c0004 	lbu	t4,4(t3)
9d007c18:	25700004 	addiu	s0,t3,4
9d007c1c:	1589000d 	bne	t4,t1,9d007c54 <print.constprop.4+0x1dc>
9d007c20:	354a0002 	ori	t2,t2,0x2
9d007c24:	916c0005 	lbu	t4,5(t3)
9d007c28:	25700005 	addiu	s0,t3,5
9d007c2c:	15890009 	bne	t4,t1,9d007c54 <print.constprop.4+0x1dc>
9d007c30:	354a0002 	ori	t2,t2,0x2
9d007c34:	916c0006 	lbu	t4,6(t3)
9d007c38:	25700006 	addiu	s0,t3,6
9d007c3c:	15890005 	bne	t4,t1,9d007c54 <print.constprop.4+0x1dc>
9d007c40:	354a0002 	ori	t2,t2,0x2
9d007c44:	916c0007 	lbu	t4,7(t3)
9d007c48:	25700007 	addiu	s0,t3,7
9d007c4c:	1189ffe0 	beq	t4,t1,9d007bd0 <print.constprop.4+0x158>
9d007c50:	354a0002 	ori	t2,t2,0x2
9d007c54:	2582ffd0 	addiu	v0,t4,-48
9d007c58:	304d00ff 	andi	t5,v0,0xff
9d007c5c:	2dae000a 	sltiu	t6,t5,10
9d007c60:	11c00052 	beqz	t6,9d007dac <print.constprop.4+0x334>
9d007c64:	00003821 	move	a3,zero
9d007c68:	26100001 	addiu	s0,s0,1
9d007c6c:	920c0000 	lbu	t4,0(s0)
9d007c70:	00077840 	sll	t7,a3,0x1
9d007c74:	000788c0 	sll	s1,a3,0x3
9d007c78:	2592ffd0 	addiu	s2,t4,-48
9d007c7c:	01f1a021 	addu	s4,t7,s1
9d007c80:	02823821 	addu	a3,s4,v0
9d007c84:	325300ff 	andi	s3,s2,0xff
9d007c88:	0007c040 	sll	t8,a3,0x1
9d007c8c:	0007c8c0 	sll	t9,a3,0x3
9d007c90:	2e75000a 	sltiu	s5,s3,10
9d007c94:	0319f821 	addu	ra,t8,t9
9d007c98:	12a00044 	beqz	s5,9d007dac <print.constprop.4+0x334>
9d007c9c:	02001021 	move	v0,s0
9d007ca0:	26100001 	addiu	s0,s0,1
9d007ca4:	920c0000 	lbu	t4,0(s0)
9d007ca8:	03f23821 	addu	a3,ra,s2
9d007cac:	00072840 	sll	a1,a3,0x1
9d007cb0:	2597ffd0 	addiu	s7,t4,-48
9d007cb4:	32e600ff 	andi	a2,s7,0xff
9d007cb8:	2cc3000a 	sltiu	v1,a2,10
9d007cbc:	1060003b 	beqz	v1,9d007dac <print.constprop.4+0x334>
9d007cc0:	000740c0 	sll	t0,a3,0x3
9d007cc4:	904c0002 	lbu	t4,2(v0)
9d007cc8:	00a83821 	addu	a3,a1,t0
9d007ccc:	00f73821 	addu	a3,a3,s7
9d007cd0:	2589ffd0 	addiu	t1,t4,-48
9d007cd4:	312400ff 	andi	a0,t1,0xff
9d007cd8:	000780c0 	sll	s0,a3,0x3
9d007cdc:	00075840 	sll	t3,a3,0x1
9d007ce0:	2c8d000a 	sltiu	t5,a0,10
9d007ce4:	01707021 	addu	t6,t3,s0
9d007ce8:	11a00030 	beqz	t5,9d007dac <print.constprop.4+0x334>
9d007cec:	24500002 	addiu	s0,v0,2
9d007cf0:	904c0003 	lbu	t4,3(v0)
9d007cf4:	01c93821 	addu	a3,t6,t1
9d007cf8:	00077840 	sll	t7,a3,0x1
9d007cfc:	2591ffd0 	addiu	s1,t4,-48
9d007d00:	323200ff 	andi	s2,s1,0xff
9d007d04:	000798c0 	sll	s3,a3,0x3
9d007d08:	2e54000a 	sltiu	s4,s2,10
9d007d0c:	01f3a821 	addu	s5,t7,s3
9d007d10:	12800026 	beqz	s4,9d007dac <print.constprop.4+0x334>
9d007d14:	24500003 	addiu	s0,v0,3
9d007d18:	904c0004 	lbu	t4,4(v0)
9d007d1c:	02b13821 	addu	a3,s5,s1
9d007d20:	0007c040 	sll	t8,a3,0x1
9d007d24:	2599ffd0 	addiu	t9,t4,-48
9d007d28:	333f00ff 	andi	ra,t9,0xff
9d007d2c:	000728c0 	sll	a1,a3,0x3
9d007d30:	2ff7000a 	sltiu	s7,ra,10
9d007d34:	03053021 	addu	a2,t8,a1
9d007d38:	12e0001c 	beqz	s7,9d007dac <print.constprop.4+0x334>
9d007d3c:	24500004 	addiu	s0,v0,4
9d007d40:	904c0005 	lbu	t4,5(v0)
9d007d44:	00d93821 	addu	a3,a2,t9
9d007d48:	00071840 	sll	v1,a3,0x1
9d007d4c:	2589ffd0 	addiu	t1,t4,-48
9d007d50:	312400ff 	andi	a0,t1,0xff
9d007d54:	000740c0 	sll	t0,a3,0x3
9d007d58:	2c8b000a 	sltiu	t3,a0,10
9d007d5c:	00686821 	addu	t5,v1,t0
9d007d60:	11600012 	beqz	t3,9d007dac <print.constprop.4+0x334>
9d007d64:	24500005 	addiu	s0,v0,5
9d007d68:	904c0006 	lbu	t4,6(v0)
9d007d6c:	01a93821 	addu	a3,t5,t1
9d007d70:	00078040 	sll	s0,a3,0x1
9d007d74:	258effd0 	addiu	t6,t4,-48
9d007d78:	31cf00ff 	andi	t7,t6,0xff
9d007d7c:	000788c0 	sll	s1,a3,0x3
9d007d80:	2df2000a 	sltiu	s2,t7,10
9d007d84:	02119821 	addu	s3,s0,s1
9d007d88:	12400008 	beqz	s2,9d007dac <print.constprop.4+0x334>
9d007d8c:	24500006 	addiu	s0,v0,6
9d007d90:	904c0007 	lbu	t4,7(v0)
9d007d94:	24500007 	addiu	s0,v0,7
9d007d98:	2582ffd0 	addiu	v0,t4,-48
9d007d9c:	305400ff 	andi	s4,v0,0xff
9d007da0:	2e95000a 	sltiu	s5,s4,10
9d007da4:	16a0ffb0 	bnez	s5,9d007c68 <print.constprop.4+0x1f0>
9d007da8:	026e3821 	addu	a3,s3,t6
9d007dac:	24180073 	li	t8,115
9d007db0:	1198006d 	beq	t4,t8,9d007f68 <print.constprop.4+0x4f0>
9d007db4:	24190064 	li	t9,100
9d007db8:	11990342 	beq	t4,t9,9d008ac4 <print.constprop.4+0x104c>
9d007dbc:	241f0078 	li	ra,120
9d007dc0:	119f0353 	beq	t4,ra,9d008b10 <print.constprop.4+0x1098>
9d007dc4:	24050058 	li	a1,88
9d007dc8:	1185035d 	beq	t4,a1,9d008b40 <print.constprop.4+0x10c8>
9d007dcc:	24170075 	li	s7,117
9d007dd0:	11970369 	beq	t4,s7,9d008b78 <print.constprop.4+0x1100>
9d007dd4:	24060063 	li	a2,99
9d007dd8:	1186037a 	beq	t4,a2,9d008bc4 <print.constprop.4+0x114c>
9d007ddc:	8fa30084 	lw	v1,132(sp)
9d007de0:	240a0047 	li	t2,71
9d007de4:	118a0116 	beq	t4,t2,9d008240 <print.constprop.4+0x7c8>
9d007de8:	2d870048 	sltiu	a3,t4,72
9d007dec:	10e00341 	beqz	a3,9d008af4 <print.constprop.4+0x107c>
9d007df0:	2403002e 	li	v1,46
9d007df4:	1583010f 	bne	t4,v1,9d008234 <print.constprop.4+0x7bc>
9d007df8:	8fad0084 	lw	t5,132(sp)
9d007dfc:	920c0001 	lbu	t4,1(s0)
9d007e00:	00002821 	move	a1,zero
9d007e04:	8db30000 	lw	s3,0(t5)
9d007e08:	25ae0004 	addiu	t6,t5,4
9d007e0c:	26100002 	addiu	s0,s0,2
9d007e10:	02602021 	move	a0,s3
9d007e14:	2595ffd0 	addiu	s5,t4,-48
9d007e18:	0f403662 	jal	9d00d988 <__ltsf2>
9d007e1c:	afae0084 	sw	t6,132(sp)
9d007e20:	04400111 	bltz	v0,9d008268 <print.constprop.4+0x7f0>
9d007e24:	3c0fbf82 	lui	t7,0xbf82
9d007e28:	0f403746 	jal	9d00dd18 <__fixsfsi>
9d007e2c:	02602021 	move	a0,s3
9d007e30:	27b70018 	addiu	s7,sp,24
9d007e34:	3c0d6666 	lui	t5,0x6666
9d007e38:	afa2004c 	sw	v0,76(sp)
9d007e3c:	00402021 	move	a0,v0
9d007e40:	25ae6667 	addiu	t6,t5,26215
9d007e44:	02e03021 	move	a2,s7
9d007e48:	008e0018 	mult	a0,t6
9d007e4c:	00047fc3 	sra	t7,a0,0x1f
9d007e50:	24c50001 	addiu	a1,a2,1
9d007e54:	00a09021 	move	s2,a1
9d007e58:	00008810 	mfhi	s1
9d007e5c:	00111083 	sra	v0,s1,0x2
9d007e60:	004fa023 	subu	s4,v0,t7
9d007e64:	0014c840 	sll	t9,s4,0x1
9d007e68:	0014f8c0 	sll	ra,s4,0x3
9d007e6c:	033f5021 	addu	t2,t9,ra
9d007e70:	008a3823 	subu	a3,a0,t2
9d007e74:	03c71821 	addu	v1,s8,a3
9d007e78:	90690023 	lbu	t1,35(v1)
9d007e7c:	0014c7c3 	sra	t8,s4,0x1f
9d007e80:	1280012a 	beqz	s4,9d00832c <print.constprop.4+0x8b4>
9d007e84:	a0a9ffff 	sb	t1,-1(a1)
9d007e88:	028e0018 	mult	s4,t6
9d007e8c:	02802021 	move	a0,s4
9d007e90:	00a03021 	move	a2,a1
9d007e94:	24a50001 	addiu	a1,a1,1
9d007e98:	00008810 	mfhi	s1
9d007e9c:	00111083 	sra	v0,s1,0x2
9d007ea0:	00586023 	subu	t4,v0,t8
9d007ea4:	000c5840 	sll	t3,t4,0x1
9d007ea8:	000c68c0 	sll	t5,t4,0x3
9d007eac:	016d7821 	addu	t7,t3,t5
9d007eb0:	028fa023 	subu	s4,s4,t7
9d007eb4:	03d4c021 	addu	t8,s8,s4
9d007eb8:	93190023 	lbu	t9,35(t8)
9d007ebc:	000c47c3 	sra	t0,t4,0x1f
9d007ec0:	1180011a 	beqz	t4,9d00832c <print.constprop.4+0x8b4>
9d007ec4:	a0b9ffff 	sb	t9,-1(a1)
9d007ec8:	018e0018 	mult	t4,t6
9d007ecc:	01802021 	move	a0,t4
9d007ed0:	00a03021 	move	a2,a1
9d007ed4:	24a50001 	addiu	a1,a1,1
9d007ed8:	00003810 	mfhi	a3
9d007edc:	00071883 	sra	v1,a3,0x2
9d007ee0:	0068f823 	subu	ra,v1,t0
9d007ee4:	001f8840 	sll	s1,ra,0x1
9d007ee8:	001f48c0 	sll	t1,ra,0x3
9d007eec:	02291021 	addu	v0,s1,t1
9d007ef0:	01826023 	subu	t4,t4,v0
9d007ef4:	03cc4021 	addu	t0,s8,t4
9d007ef8:	910b0023 	lbu	t3,35(t0)
9d007efc:	001f57c3 	sra	t2,ra,0x1f
9d007f00:	13e0010a 	beqz	ra,9d00832c <print.constprop.4+0x8b4>
9d007f04:	a0abffff 	sb	t3,-1(a1)
9d007f08:	03ee0018 	mult	ra,t6
9d007f0c:	26450003 	addiu	a1,s2,3
9d007f10:	26460002 	addiu	a2,s2,2
9d007f14:	03e02021 	move	a0,ra
9d007f18:	00003810 	mfhi	a3
9d007f1c:	00071883 	sra	v1,a3,0x2
9d007f20:	006a9023 	subu	s2,v1,t2
9d007f24:	00126840 	sll	t5,s2,0x1
9d007f28:	001278c0 	sll	t7,s2,0x3
9d007f2c:	01afa021 	addu	s4,t5,t7
9d007f30:	03f4c023 	subu	t8,ra,s4
9d007f34:	03d8c821 	addu	t9,s8,t8
9d007f38:	933f0023 	lbu	ra,35(t9)
9d007f3c:	124000fb 	beqz	s2,9d00832c <print.constprop.4+0x8b4>
9d007f40:	a0bfffff 	sb	ra,-1(a1)
9d007f44:	00a03021 	move	a2,a1
9d007f48:	1000ffbf 	b	9d007e48 <print.constprop.4+0x3d0>
9d007f4c:	02402021 	move	a0,s2
9d007f50:	1000fee1 	b	9d007ad8 <print.constprop.4+0x60>
9d007f54:	02002021 	move	a0,s0
9d007f58:	240a0001 	li	t2,1
9d007f5c:	24900002 	addiu	s0,a0,2
9d007f60:	1000ff17 	b	9d007bc0 <print.constprop.4+0x148>
9d007f64:	908c0002 	lbu	t4,2(a0)
9d007f68:	8fa40084 	lw	a0,132(sp)
9d007f6c:	3c199d01 	lui	t9,0x9d01
9d007f70:	27370464 	addiu	s7,t9,1124
9d007f74:	8c880000 	lw	t0,0(a0)
9d007f78:	248b0004 	addiu	t3,a0,4
9d007f7c:	afab0084 	sw	t3,132(sp)
9d007f80:	10e002f6 	beqz	a3,9d008b5c <print.constprop.4+0x10e4>
9d007f84:	02e8400a 	movz	t0,s7,t0
9d007f88:	910f0000 	lbu	t7,0(t0)
9d007f8c:	11e000db 	beqz	t7,9d0082fc <print.constprop.4+0x884>
9d007f90:	01009821 	move	s3,t0
9d007f94:	00001021 	move	v0,zero
9d007f98:	926d0001 	lbu	t5,1(s3)
9d007f9c:	24420001 	addiu	v0,v0,1
9d007fa0:	11a00017 	beqz	t5,9d008000 <print.constprop.4+0x588>
9d007fa4:	00406021 	move	t4,v0
9d007fa8:	92650002 	lbu	a1,2(s3)
9d007fac:	10a00014 	beqz	a1,9d008000 <print.constprop.4+0x588>
9d007fb0:	24420001 	addiu	v0,v0,1
9d007fb4:	92780003 	lbu	t8,3(s3)
9d007fb8:	13000011 	beqz	t8,9d008000 <print.constprop.4+0x588>
9d007fbc:	25820002 	addiu	v0,t4,2
9d007fc0:	92720004 	lbu	s2,4(s3)
9d007fc4:	1240000e 	beqz	s2,9d008000 <print.constprop.4+0x588>
9d007fc8:	25820003 	addiu	v0,t4,3
9d007fcc:	92750005 	lbu	s5,5(s3)
9d007fd0:	12a0000b 	beqz	s5,9d008000 <print.constprop.4+0x588>
9d007fd4:	25820004 	addiu	v0,t4,4
9d007fd8:	92660006 	lbu	a2,6(s3)
9d007fdc:	10c00008 	beqz	a2,9d008000 <print.constprop.4+0x588>
9d007fe0:	25820005 	addiu	v0,t4,5
9d007fe4:	92740007 	lbu	s4,7(s3)
9d007fe8:	25820006 	addiu	v0,t4,6
9d007fec:	12800004 	beqz	s4,9d008000 <print.constprop.4+0x588>
9d007ff0:	26730008 	addiu	s3,s3,8
9d007ff4:	927f0000 	lbu	ra,0(s3)
9d007ff8:	17e0ffe7 	bnez	ra,9d007f98 <print.constprop.4+0x520>
9d007ffc:	25820007 	addiu	v0,t4,7
9d008000:	0047182a 	slt	v1,v0,a3
9d008004:	146000be 	bnez	v1,9d008300 <print.constprop.4+0x888>
9d008008:	00002021 	move	a0,zero
9d00800c:	31470002 	andi	a3,t2,0x2
9d008010:	24190030 	li	t9,48
9d008014:	24170020 	li	s7,32
9d008018:	02e7c80a 	movz	t9,s7,a3
9d00801c:	314a0001 	andi	t2,t2,0x1
9d008020:	03207021 	move	t6,t9
9d008024:	1540007f 	bnez	t2,9d008224 <print.constprop.4+0x7ac>
9d008028:	00809021 	move	s2,a0
9d00802c:	58800028 	blezl	a0,9d0080d0 <print.constprop.4+0x658>
9d008030:	00002021 	move	a0,zero
9d008034:	3c0bbf82 	lui	t3,0xbf82
9d008038:	3c09bf82 	lui	t1,0xbf82
9d00803c:	8d712210 	lw	s1,8720(t3)
9d008040:	322f0200 	andi	t7,s1,0x200
9d008044:	51e0001e 	beqzl	t7,9d0080c0 <print.constprop.4+0x648>
9d008048:	2652ffff 	addiu	s2,s2,-1
9d00804c:	8d6d2210 	lw	t5,8720(t3)
9d008050:	31ac0200 	andi	t4,t5,0x200
9d008054:	5180001a 	beqzl	t4,9d0080c0 <print.constprop.4+0x648>
9d008058:	2652ffff 	addiu	s2,s2,-1
9d00805c:	8d652210 	lw	a1,8720(t3)
9d008060:	30b80200 	andi	t8,a1,0x200
9d008064:	53000016 	beqzl	t8,9d0080c0 <print.constprop.4+0x648>
9d008068:	2652ffff 	addiu	s2,s2,-1
9d00806c:	8d752210 	lw	s5,8720(t3)
9d008070:	32a60200 	andi	a2,s5,0x200
9d008074:	50c00012 	beqzl	a2,9d0080c0 <print.constprop.4+0x648>
9d008078:	2652ffff 	addiu	s2,s2,-1
9d00807c:	8d742210 	lw	s4,8720(t3)
9d008080:	32930200 	andi	s3,s4,0x200
9d008084:	5260000e 	beqzl	s3,9d0080c0 <print.constprop.4+0x648>
9d008088:	2652ffff 	addiu	s2,s2,-1
9d00808c:	8d7f2210 	lw	ra,8720(t3)
9d008090:	33e20200 	andi	v0,ra,0x200
9d008094:	5040000a 	beqzl	v0,9d0080c0 <print.constprop.4+0x648>
9d008098:	2652ffff 	addiu	s2,s2,-1
9d00809c:	8d632210 	lw	v1,8720(t3)
9d0080a0:	30670200 	andi	a3,v1,0x200
9d0080a4:	50e00006 	beqzl	a3,9d0080c0 <print.constprop.4+0x648>
9d0080a8:	2652ffff 	addiu	s2,s2,-1
9d0080ac:	8d6a2210 	lw	t2,8720(t3)
9d0080b0:	31590200 	andi	t9,t2,0x200
9d0080b4:	1720ffe1 	bnez	t9,9d00803c <print.constprop.4+0x5c4>
9d0080b8:	00000000 	nop
9d0080bc:	2652ffff 	addiu	s2,s2,-1
9d0080c0:	ad2e2220 	sw	t6,8736(t1)
9d0080c4:	1640ffdd 	bnez	s2,9d00803c <print.constprop.4+0x5c4>
9d0080c8:	00000000 	nop
9d0080cc:	910f0000 	lbu	t7,0(t0)
9d0080d0:	51e0fea4 	beqzl	t7,9d007b64 <print.constprop.4+0xec>
9d0080d4:	02c4b021 	addu	s6,s6,a0
9d0080d8:	3c17bf82 	lui	s7,0xbf82
9d0080dc:	3c0bbf82 	lui	t3,0xbf82
9d0080e0:	8ee92210 	lw	t1,8720(s7)
9d0080e4:	31310200 	andi	s1,t1,0x200
9d0080e8:	1220001d 	beqz	s1,9d008160 <print.constprop.4+0x6e8>
9d0080ec:	00000000 	nop
9d0080f0:	8eed2210 	lw	t5,8720(s7)
9d0080f4:	31ac0200 	andi	t4,t5,0x200
9d0080f8:	11800019 	beqz	t4,9d008160 <print.constprop.4+0x6e8>
9d0080fc:	00000000 	nop
9d008100:	8ee52210 	lw	a1,8720(s7)
9d008104:	30b80200 	andi	t8,a1,0x200
9d008108:	13000015 	beqz	t8,9d008160 <print.constprop.4+0x6e8>
9d00810c:	00000000 	nop
9d008110:	8ef52210 	lw	s5,8720(s7)
9d008114:	32a60200 	andi	a2,s5,0x200
9d008118:	10c00011 	beqz	a2,9d008160 <print.constprop.4+0x6e8>
9d00811c:	00000000 	nop
9d008120:	8ef42210 	lw	s4,8720(s7)
9d008124:	32930200 	andi	s3,s4,0x200
9d008128:	1260000d 	beqz	s3,9d008160 <print.constprop.4+0x6e8>
9d00812c:	00000000 	nop
9d008130:	8eff2210 	lw	ra,8720(s7)
9d008134:	33e20200 	andi	v0,ra,0x200
9d008138:	10400009 	beqz	v0,9d008160 <print.constprop.4+0x6e8>
9d00813c:	00000000 	nop
9d008140:	8ee32210 	lw	v1,8720(s7)
9d008144:	30670200 	andi	a3,v1,0x200
9d008148:	10e00005 	beqz	a3,9d008160 <print.constprop.4+0x6e8>
9d00814c:	00000000 	nop
9d008150:	8eea2210 	lw	t2,8720(s7)
9d008154:	31590200 	andi	t9,t2,0x200
9d008158:	1720ffe1 	bnez	t9,9d0080e0 <print.constprop.4+0x668>
9d00815c:	00000000 	nop
9d008160:	ad6f2220 	sw	t7,8736(t3)
9d008164:	25080001 	addiu	t0,t0,1
9d008168:	910f0000 	lbu	t7,0(t0)
9d00816c:	15e0ffdc 	bnez	t7,9d0080e0 <print.constprop.4+0x668>
9d008170:	24840001 	addiu	a0,a0,1
9d008174:	5a40fe7b 	blezl	s2,9d007b64 <print.constprop.4+0xec>
9d008178:	02c4b021 	addu	s6,s6,a0
9d00817c:	02403821 	move	a3,s2
9d008180:	3c0fbf82 	lui	t7,0xbf82
9d008184:	3c08bf82 	lui	t0,0xbf82
9d008188:	8df72210 	lw	s7,8720(t7)
9d00818c:	32eb0200 	andi	t3,s7,0x200
9d008190:	5160001e 	beqzl	t3,9d00820c <print.constprop.4+0x794>
9d008194:	24e7ffff 	addiu	a3,a3,-1
9d008198:	8de92210 	lw	t1,8720(t7)
9d00819c:	31310200 	andi	s1,t1,0x200
9d0081a0:	5220001a 	beqzl	s1,9d00820c <print.constprop.4+0x794>
9d0081a4:	24e7ffff 	addiu	a3,a3,-1
9d0081a8:	8ded2210 	lw	t5,8720(t7)
9d0081ac:	31ac0200 	andi	t4,t5,0x200
9d0081b0:	51800016 	beqzl	t4,9d00820c <print.constprop.4+0x794>
9d0081b4:	24e7ffff 	addiu	a3,a3,-1
9d0081b8:	8de52210 	lw	a1,8720(t7)
9d0081bc:	30b80200 	andi	t8,a1,0x200
9d0081c0:	53000012 	beqzl	t8,9d00820c <print.constprop.4+0x794>
9d0081c4:	24e7ffff 	addiu	a3,a3,-1
9d0081c8:	8df52210 	lw	s5,8720(t7)
9d0081cc:	32a60200 	andi	a2,s5,0x200
9d0081d0:	50c0000e 	beqzl	a2,9d00820c <print.constprop.4+0x794>
9d0081d4:	24e7ffff 	addiu	a3,a3,-1
9d0081d8:	8df42210 	lw	s4,8720(t7)
9d0081dc:	32930200 	andi	s3,s4,0x200
9d0081e0:	5260000a 	beqzl	s3,9d00820c <print.constprop.4+0x794>
9d0081e4:	24e7ffff 	addiu	a3,a3,-1
9d0081e8:	8dff2210 	lw	ra,8720(t7)
9d0081ec:	33e20200 	andi	v0,ra,0x200
9d0081f0:	50400006 	beqzl	v0,9d00820c <print.constprop.4+0x794>
9d0081f4:	24e7ffff 	addiu	a3,a3,-1
9d0081f8:	8de32210 	lw	v1,8720(t7)
9d0081fc:	306a0200 	andi	t2,v1,0x200
9d008200:	1540ffe1 	bnez	t2,9d008188 <print.constprop.4+0x710>
9d008204:	00000000 	nop
9d008208:	24e7ffff 	addiu	a3,a3,-1
9d00820c:	ad0e2220 	sw	t6,8736(t0)
9d008210:	14e0ffdd 	bnez	a3,9d008188 <print.constprop.4+0x710>
9d008214:	00000000 	nop
9d008218:	00922021 	addu	a0,a0,s2
9d00821c:	1000fe51 	b	9d007b64 <print.constprop.4+0xec>
9d008220:	02c4b021 	addu	s6,s6,a0
9d008224:	15e0ffac 	bnez	t7,9d0080d8 <print.constprop.4+0x660>
9d008228:	00002021 	move	a0,zero
9d00822c:	1000ffd1 	b	9d008174 <print.constprop.4+0x6fc>
9d008230:	00000000 	nop
9d008234:	24090045 	li	t1,69
9d008238:	5589fe4b 	bnel	t4,t1,9d007b68 <print.constprop.4+0xf0>
9d00823c:	92130001 	lbu	s3,1(s0)
9d008240:	24150006 	li	s5,6
9d008244:	8fad0084 	lw	t5,132(sp)
9d008248:	00002821 	move	a1,zero
9d00824c:	8db30000 	lw	s3,0(t5)
9d008250:	25ae0004 	addiu	t6,t5,4
9d008254:	afae0084 	sw	t6,132(sp)
9d008258:	0f403662 	jal	9d00d988 <__ltsf2>
9d00825c:	02602021 	move	a0,s3
9d008260:	0441fef1 	bgez	v0,9d007e28 <print.constprop.4+0x3b0>
9d008264:	3c0fbf82 	lui	t7,0xbf82
9d008268:	8df12210 	lw	s1,8720(t7)
9d00826c:	32320200 	andi	s2,s1,0x200
9d008270:	1240001e 	beqz	s2,9d0082ec <print.constprop.4+0x874>
9d008274:	2408002d 	li	t0,45
9d008278:	8de22210 	lw	v0,8720(t7)
9d00827c:	30540200 	andi	s4,v0,0x200
9d008280:	1280001b 	beqz	s4,9d0082f0 <print.constprop.4+0x878>
9d008284:	3c0b8000 	lui	t3,0x8000
9d008288:	8df82210 	lw	t8,8720(t7)
9d00828c:	33190200 	andi	t9,t8,0x200
9d008290:	13200017 	beqz	t9,9d0082f0 <print.constprop.4+0x878>
9d008294:	00000000 	nop
9d008298:	8dff2210 	lw	ra,8720(t7)
9d00829c:	33e50200 	andi	a1,ra,0x200
9d0082a0:	10a00013 	beqz	a1,9d0082f0 <print.constprop.4+0x878>
9d0082a4:	00000000 	nop
9d0082a8:	8df72210 	lw	s7,8720(t7)
9d0082ac:	32e60200 	andi	a2,s7,0x200
9d0082b0:	10c0000f 	beqz	a2,9d0082f0 <print.constprop.4+0x878>
9d0082b4:	00000000 	nop
9d0082b8:	8dea2210 	lw	t2,8720(t7)
9d0082bc:	31470200 	andi	a3,t2,0x200
9d0082c0:	10e0000b 	beqz	a3,9d0082f0 <print.constprop.4+0x878>
9d0082c4:	00000000 	nop
9d0082c8:	8de32210 	lw	v1,8720(t7)
9d0082cc:	30690200 	andi	t1,v1,0x200
9d0082d0:	11200007 	beqz	t1,9d0082f0 <print.constprop.4+0x878>
9d0082d4:	00000000 	nop
9d0082d8:	8dec2210 	lw	t4,8720(t7)
9d0082dc:	31840200 	andi	a0,t4,0x200
9d0082e0:	5480ffe1 	bnezl	a0,9d008268 <print.constprop.4+0x7f0>
9d0082e4:	3c0fbf82 	lui	t7,0xbf82
9d0082e8:	2408002d 	li	t0,45
9d0082ec:	3c0b8000 	lui	t3,0x8000
9d0082f0:	ade82220 	sw	t0,8736(t7)
9d0082f4:	1000fecc 	b	9d007e28 <print.constprop.4+0x3b0>
9d0082f8:	01739826 	xor	s3,t3,s3
9d0082fc:	00001021 	move	v0,zero
9d008300:	00e22023 	subu	a0,a3,v0
9d008304:	24190030 	li	t9,48
9d008308:	31470002 	andi	a3,t2,0x2
9d00830c:	24170020 	li	s7,32
9d008310:	02e7c80a 	movz	t9,s7,a3
9d008314:	314a0001 	andi	t2,t2,0x1
9d008318:	03207021 	move	t6,t9
9d00831c:	1540ffc1 	bnez	t2,9d008224 <print.constprop.4+0x7ac>
9d008320:	00809021 	move	s2,a0
9d008324:	1000ff41 	b	9d00802c <print.constprop.4+0x5b4>
9d008328:	00000000 	nop
9d00832c:	0480021c 	bltz	a0,9d008ba0 <print.constprop.4+0x1128>
9d008330:	2404002d 	li	a0,45
9d008334:	24a2ffff 	addiu	v0,a1,-1
9d008338:	02e2302b 	sltu	a2,s7,v0
9d00833c:	a0a00000 	sb	zero,0(a1)
9d008340:	10c00047 	beqz	a2,9d008460 <print.constprop.4+0x9e8>
9d008344:	02e01821 	move	v1,s7
9d008348:	afb00040 	sw	s0,64(sp)
9d00834c:	afb50044 	sw	s5,68(sp)
9d008350:	afb30048 	sw	s3,72(sp)
9d008354:	905f0000 	lbu	ra,0(v0)
9d008358:	90700000 	lbu	s0,0(v1)
9d00835c:	2453ffff 	addiu	s3,v0,-1
9d008360:	24750001 	addiu	s5,v1,1
9d008364:	02b3282b 	sltu	a1,s5,s3
9d008368:	244bfffe 	addiu	t3,v0,-2
9d00836c:	246a0002 	addiu	t2,v1,2
9d008370:	2449fffd 	addiu	t1,v0,-3
9d008374:	24680003 	addiu	t0,v1,3
9d008378:	2447fffc 	addiu	a3,v0,-4
9d00837c:	24660004 	addiu	a2,v1,4
9d008380:	244ffffb 	addiu	t7,v0,-5
9d008384:	246e0005 	addiu	t6,v1,5
9d008388:	244dfffa 	addiu	t5,v0,-6
9d00838c:	246c0006 	addiu	t4,v1,6
9d008390:	a0500000 	sb	s0,0(v0)
9d008394:	014b982b 	sltu	s3,t2,t3
9d008398:	2458fff9 	addiu	t8,v0,-7
9d00839c:	0109902b 	sltu	s2,t0,t1
9d0083a0:	00c7882b 	sltu	s1,a2,a3
9d0083a4:	01cfa82b 	sltu	s5,t6,t7
9d0083a8:	018da02b 	sltu	s4,t4,t5
9d0083ac:	10a00029 	beqz	a1,9d008454 <print.constprop.4+0x9dc>
9d0083b0:	a07f0000 	sb	ra,0(v1)
9d0083b4:	9050ffff 	lbu	s0,-1(v0)
9d0083b8:	90790001 	lbu	t9,1(v1)
9d0083bc:	24640007 	addiu	a0,v1,7
9d0083c0:	0098f82b 	sltu	ra,a0,t8
9d0083c4:	a1790001 	sb	t9,1(t3)
9d0083c8:	12600022 	beqz	s3,9d008454 <print.constprop.4+0x9dc>
9d0083cc:	a150ffff 	sb	s0,-1(t2)
9d0083d0:	904bfffe 	lbu	t3,-2(v0)
9d0083d4:	906a0002 	lbu	t2,2(v1)
9d0083d8:	a12a0001 	sb	t2,1(t1)
9d0083dc:	1240001d 	beqz	s2,9d008454 <print.constprop.4+0x9dc>
9d0083e0:	a10bffff 	sb	t3,-1(t0)
9d0083e4:	9049fffd 	lbu	t1,-3(v0)
9d0083e8:	90680003 	lbu	t0,3(v1)
9d0083ec:	a0e80001 	sb	t0,1(a3)
9d0083f0:	12200018 	beqz	s1,9d008454 <print.constprop.4+0x9dc>
9d0083f4:	a0c9ffff 	sb	t1,-1(a2)
9d0083f8:	9047fffc 	lbu	a3,-4(v0)
9d0083fc:	90660004 	lbu	a2,4(v1)
9d008400:	a1e60001 	sb	a2,1(t7)
9d008404:	12a00013 	beqz	s5,9d008454 <print.constprop.4+0x9dc>
9d008408:	a1c7ffff 	sb	a3,-1(t6)
9d00840c:	904ffffb 	lbu	t7,-5(v0)
9d008410:	906e0005 	lbu	t6,5(v1)
9d008414:	a1ae0001 	sb	t6,1(t5)
9d008418:	1280000e 	beqz	s4,9d008454 <print.constprop.4+0x9dc>
9d00841c:	a18fffff 	sb	t7,-1(t4)
9d008420:	9045fffa 	lbu	a1,-6(v0)
9d008424:	906d0006 	lbu	t5,6(v1)
9d008428:	a30d0001 	sb	t5,1(t8)
9d00842c:	13e00009 	beqz	ra,9d008454 <print.constprop.4+0x9dc>
9d008430:	a0650006 	sb	a1,6(v1)
9d008434:	904cfff9 	lbu	t4,-7(v0)
9d008438:	90730007 	lbu	s3,7(v1)
9d00843c:	2442fff8 	addiu	v0,v0,-8
9d008440:	24630008 	addiu	v1,v1,8
9d008444:	0062c02b 	sltu	t8,v1,v0
9d008448:	a0530001 	sb	s3,1(v0)
9d00844c:	1700ffc1 	bnez	t8,9d008354 <print.constprop.4+0x8dc>
9d008450:	a06cffff 	sb	t4,-1(v1)
9d008454:	8fb00040 	lw	s0,64(sp)
9d008458:	8fb50044 	lw	s5,68(sp)
9d00845c:	8fb30048 	lw	s3,72(sp)
9d008460:	93a40018 	lbu	a0,24(sp)
9d008464:	27a50019 	addiu	a1,sp,25
9d008468:	3c12bf82 	lui	s2,0xbf82
9d00846c:	10800027 	beqz	a0,9d00850c <print.constprop.4+0xa94>
9d008470:	3c11bf82 	lui	s1,0xbf82
9d008474:	8e542210 	lw	s4,8720(s2)
9d008478:	32990200 	andi	t9,s4,0x200
9d00847c:	1320001d 	beqz	t9,9d0084f4 <print.constprop.4+0xa7c>
9d008480:	00000000 	nop
9d008484:	8e5f2210 	lw	ra,8720(s2)
9d008488:	33eb0200 	andi	t3,ra,0x200
9d00848c:	11600019 	beqz	t3,9d0084f4 <print.constprop.4+0xa7c>
9d008490:	00000000 	nop
9d008494:	8e4a2210 	lw	t2,8720(s2)
9d008498:	31490200 	andi	t1,t2,0x200
9d00849c:	11200015 	beqz	t1,9d0084f4 <print.constprop.4+0xa7c>
9d0084a0:	00000000 	nop
9d0084a4:	8e482210 	lw	t0,8720(s2)
9d0084a8:	31070200 	andi	a3,t0,0x200
9d0084ac:	10e00011 	beqz	a3,9d0084f4 <print.constprop.4+0xa7c>
9d0084b0:	00000000 	nop
9d0084b4:	8e462210 	lw	a2,8720(s2)
9d0084b8:	30cf0200 	andi	t7,a2,0x200
9d0084bc:	11e0000d 	beqz	t7,9d0084f4 <print.constprop.4+0xa7c>
9d0084c0:	00000000 	nop
9d0084c4:	8e4e2210 	lw	t6,8720(s2)
9d0084c8:	31cd0200 	andi	t5,t6,0x200
9d0084cc:	11a00009 	beqz	t5,9d0084f4 <print.constprop.4+0xa7c>
9d0084d0:	00000000 	nop
9d0084d4:	8e4c2210 	lw	t4,8720(s2)
9d0084d8:	31820200 	andi	v0,t4,0x200
9d0084dc:	10400005 	beqz	v0,9d0084f4 <print.constprop.4+0xa7c>
9d0084e0:	00000000 	nop
9d0084e4:	8e432210 	lw	v1,8720(s2)
9d0084e8:	30780200 	andi	t8,v1,0x200
9d0084ec:	1700ffe1 	bnez	t8,9d008474 <print.constprop.4+0x9fc>
9d0084f0:	00000000 	nop
9d0084f4:	ae242220 	sw	a0,8736(s1)
9d0084f8:	24a50001 	addiu	a1,a1,1
9d0084fc:	90a4ffff 	lbu	a0,-1(a1)
9d008500:	1480ffdc 	bnez	a0,9d008474 <print.constprop.4+0x9fc>
9d008504:	00000000 	nop
9d008508:	3c12bf82 	lui	s2,0xbf82
9d00850c:	8e512210 	lw	s1,8720(s2)
9d008510:	32340200 	andi	s4,s1,0x200
9d008514:	1280001d 	beqz	s4,9d00858c <print.constprop.4+0xb14>
9d008518:	2418002e 	li	t8,46
9d00851c:	8e592210 	lw	t9,8720(s2)
9d008520:	333f0200 	andi	ra,t9,0x200
9d008524:	13e00019 	beqz	ra,9d00858c <print.constprop.4+0xb14>
9d008528:	00000000 	nop
9d00852c:	8e4b2210 	lw	t3,8720(s2)
9d008530:	316a0200 	andi	t2,t3,0x200
9d008534:	11400015 	beqz	t2,9d00858c <print.constprop.4+0xb14>
9d008538:	00000000 	nop
9d00853c:	8e492210 	lw	t1,8720(s2)
9d008540:	31280200 	andi	t0,t1,0x200
9d008544:	11000011 	beqz	t0,9d00858c <print.constprop.4+0xb14>
9d008548:	00000000 	nop
9d00854c:	8e472210 	lw	a3,8720(s2)
9d008550:	30e60200 	andi	a2,a3,0x200
9d008554:	10c0000d 	beqz	a2,9d00858c <print.constprop.4+0xb14>
9d008558:	00000000 	nop
9d00855c:	8e4f2210 	lw	t7,8720(s2)
9d008560:	31ee0200 	andi	t6,t7,0x200
9d008564:	11c00009 	beqz	t6,9d00858c <print.constprop.4+0xb14>
9d008568:	00000000 	nop
9d00856c:	8e4d2210 	lw	t5,8720(s2)
9d008570:	31ac0200 	andi	t4,t5,0x200
9d008574:	11800005 	beqz	t4,9d00858c <print.constprop.4+0xb14>
9d008578:	00000000 	nop
9d00857c:	8e422210 	lw	v0,8720(s2)
9d008580:	30430200 	andi	v1,v0,0x200
9d008584:	1460ffe1 	bnez	v1,9d00850c <print.constprop.4+0xa94>
9d008588:	00000000 	nop
9d00858c:	ae582220 	sw	t8,8736(s2)
9d008590:	1aa00241 	blez	s5,9d008e98 <print.constprop.4+0x1420>
9d008594:	26a5ffff 	addiu	a1,s5,-1
9d008598:	24040001 	li	a0,1
9d00859c:	30b20007 	andi	s2,a1,0x7
9d0085a0:	10950045 	beq	a0,s5,9d0086b8 <print.constprop.4+0xc40>
9d0085a4:	2411000a 	li	s1,10
9d0085a8:	1240002a 	beqz	s2,9d008654 <print.constprop.4+0xbdc>
9d0085ac:	0011f840 	sll	ra,s1,0x1
9d0085b0:	12440022 	beq	s2,a0,9d00863c <print.constprop.4+0xbc4>
9d0085b4:	24140002 	li	s4,2
9d0085b8:	1254001c 	beq	s2,s4,9d00862c <print.constprop.4+0xbb4>
9d0085bc:	24190003 	li	t9,3
9d0085c0:	12590016 	beq	s2,t9,9d00861c <print.constprop.4+0xba4>
9d0085c4:	241f0004 	li	ra,4
9d0085c8:	125f0010 	beq	s2,ra,9d00860c <print.constprop.4+0xb94>
9d0085cc:	240b0005 	li	t3,5
9d0085d0:	124b000a 	beq	s2,t3,9d0085fc <print.constprop.4+0xb84>
9d0085d4:	240a0006 	li	t2,6
9d0085d8:	024a4826 	xor	t1,s2,t2
9d0085dc:	24080064 	li	t0,100
9d0085e0:	0109880b 	movn	s1,t0,t1
9d0085e4:	240f0002 	li	t7,2
9d0085e8:	00113040 	sll	a2,s1,0x1
9d0085ec:	01e9200b 	movn	a0,t7,t1
9d0085f0:	001188c0 	sll	s1,s1,0x3
9d0085f4:	00d18821 	addu	s1,a2,s1
9d0085f8:	24840001 	addiu	a0,a0,1
9d0085fc:	00117040 	sll	t6,s1,0x1
9d008600:	001168c0 	sll	t5,s1,0x3
9d008604:	01cd8821 	addu	s1,t6,t5
9d008608:	24840001 	addiu	a0,a0,1
9d00860c:	00116040 	sll	t4,s1,0x1
9d008610:	001110c0 	sll	v0,s1,0x3
9d008614:	01828821 	addu	s1,t4,v0
9d008618:	24840001 	addiu	a0,a0,1
9d00861c:	00111840 	sll	v1,s1,0x1
9d008620:	0011c0c0 	sll	t8,s1,0x3
9d008624:	00788821 	addu	s1,v1,t8
9d008628:	24840001 	addiu	a0,a0,1
9d00862c:	00112840 	sll	a1,s1,0x1
9d008630:	001190c0 	sll	s2,s1,0x3
9d008634:	00b28821 	addu	s1,a1,s2
9d008638:	24840001 	addiu	a0,a0,1
9d00863c:	0011a040 	sll	s4,s1,0x1
9d008640:	0011c8c0 	sll	t9,s1,0x3
9d008644:	24840001 	addiu	a0,a0,1
9d008648:	1095001b 	beq	a0,s5,9d0086b8 <print.constprop.4+0xc40>
9d00864c:	02998821 	addu	s1,s4,t9
9d008650:	0011f840 	sll	ra,s1,0x1
9d008654:	001158c0 	sll	t3,s1,0x3
9d008658:	03eb5021 	addu	t2,ra,t3
9d00865c:	000a4840 	sll	t1,t2,0x1
9d008660:	000a40c0 	sll	t0,t2,0x3
9d008664:	01283821 	addu	a3,t1,t0
9d008668:	00073040 	sll	a2,a3,0x1
9d00866c:	000778c0 	sll	t7,a3,0x3
9d008670:	00cf7021 	addu	t6,a2,t7
9d008674:	000e6840 	sll	t5,t6,0x1
9d008678:	000e60c0 	sll	t4,t6,0x3
9d00867c:	01ac1821 	addu	v1,t5,t4
9d008680:	00031040 	sll	v0,v1,0x1
9d008684:	0003c0c0 	sll	t8,v1,0x3
9d008688:	00582821 	addu	a1,v0,t8
9d00868c:	00059040 	sll	s2,a1,0x1
9d008690:	0005a0c0 	sll	s4,a1,0x3
9d008694:	0254c821 	addu	t9,s2,s4
9d008698:	00198840 	sll	s1,t9,0x1
9d00869c:	0019f8c0 	sll	ra,t9,0x3
9d0086a0:	023f5821 	addu	t3,s1,ra
9d0086a4:	000b5040 	sll	t2,t3,0x1
9d0086a8:	000b48c0 	sll	t1,t3,0x3
9d0086ac:	24840008 	addiu	a0,a0,8
9d0086b0:	1495ffe7 	bne	a0,s5,9d008650 <print.constprop.4+0xbd8>
9d0086b4:	01498821 	addu	s1,t2,t1
9d0086b8:	0f403766 	jal	9d00dd98 <__floatsisf>
9d0086bc:	02202021 	move	a0,s1
9d0086c0:	3c046666 	lui	a0,0x6666
9d0086c4:	24886667 	addiu	t0,a0,26215
9d0086c8:	02280018 	mult	s1,t0
9d0086cc:	001137c3 	sra	a2,s1,0x1f
9d0086d0:	0040a821 	move	s5,v0
9d0086d4:	00003810 	mfhi	a3
9d0086d8:	00071883 	sra	v1,a3,0x2
9d0086dc:	00668823 	subu	s1,v1,a2
9d0086e0:	0f403766 	jal	9d00dd98 <__floatsisf>
9d0086e4:	8fa4004c 	lw	a0,76(sp)
9d0086e8:	00402821 	move	a1,v0
9d0086ec:	0f4035de 	jal	9d00d778 <__subsf3>
9d0086f0:	02602021 	move	a0,s3
9d0086f4:	00402821 	move	a1,v0
9d0086f8:	0f4036a2 	jal	9d00da88 <__mulsf3>
9d0086fc:	02a02021 	move	a0,s5
9d008700:	0f403746 	jal	9d00dd18 <__fixsfsi>
9d008704:	00402021 	move	a0,v0
9d008708:	0051a82a 	slt	s5,v0,s1
9d00870c:	12a0002e 	beqz	s5,9d0087c8 <print.constprop.4+0xd50>
9d008710:	00409821 	move	s3,v0
9d008714:	3c0fbf82 	lui	t7,0xbf82
9d008718:	3c0c6666 	lui	t4,0x6666
9d00871c:	25ee2220 	addiu	t6,t7,8736
9d008720:	240d0030 	li	t5,48
9d008724:	25986667 	addiu	t8,t4,26215
9d008728:	02380018 	mult	s1,t8
9d00872c:	8de22210 	lw	v0,8720(t7)
9d008730:	00112fc3 	sra	a1,s1,0x1f
9d008734:	30520200 	andi	s2,v0,0x200
9d008738:	1240001d 	beqz	s2,9d0087b0 <print.constprop.4+0xd38>
9d00873c:	00002010 	mfhi	a0
9d008740:	8df42210 	lw	s4,8720(t7)
9d008744:	32990200 	andi	t9,s4,0x200
9d008748:	5320001a 	beqzl	t9,9d0087b4 <print.constprop.4+0xd3c>
9d00874c:	00048883 	sra	s1,a0,0x2
9d008750:	8dff2210 	lw	ra,8720(t7)
9d008754:	33eb0200 	andi	t3,ra,0x200
9d008758:	51600016 	beqzl	t3,9d0087b4 <print.constprop.4+0xd3c>
9d00875c:	00048883 	sra	s1,a0,0x2
9d008760:	8dea2210 	lw	t2,8720(t7)
9d008764:	31490200 	andi	t1,t2,0x200
9d008768:	51200012 	beqzl	t1,9d0087b4 <print.constprop.4+0xd3c>
9d00876c:	00048883 	sra	s1,a0,0x2
9d008770:	8de82210 	lw	t0,8720(t7)
9d008774:	31070200 	andi	a3,t0,0x200
9d008778:	50e0000e 	beqzl	a3,9d0087b4 <print.constprop.4+0xd3c>
9d00877c:	00048883 	sra	s1,a0,0x2
9d008780:	8de62210 	lw	a2,8720(t7)
9d008784:	30c30200 	andi	v1,a2,0x200
9d008788:	5060000a 	beqzl	v1,9d0087b4 <print.constprop.4+0xd3c>
9d00878c:	00048883 	sra	s1,a0,0x2
9d008790:	8df52210 	lw	s5,8720(t7)
9d008794:	32ac0200 	andi	t4,s5,0x200
9d008798:	51800006 	beqzl	t4,9d0087b4 <print.constprop.4+0xd3c>
9d00879c:	00048883 	sra	s1,a0,0x2
9d0087a0:	8de22210 	lw	v0,8720(t7)
9d0087a4:	30520200 	andi	s2,v0,0x200
9d0087a8:	1640ffe0 	bnez	s2,9d00872c <print.constprop.4+0xcb4>
9d0087ac:	00000000 	nop
9d0087b0:	00048883 	sra	s1,a0,0x2
9d0087b4:	02258823 	subu	s1,s1,a1
9d0087b8:	0271202a 	slt	a0,s3,s1
9d0087bc:	adcd0000 	sw	t5,0(t6)
9d0087c0:	1480ffda 	bnez	a0,9d00872c <print.constprop.4+0xcb4>
9d0087c4:	02380018 	mult	s1,t8
9d0087c8:	3c0f6666 	lui	t7,0x6666
9d0087cc:	02602021 	move	a0,s3
9d0087d0:	25ee6667 	addiu	t6,t7,26215
9d0087d4:	02e03821 	move	a3,s7
9d0087d8:	008e0018 	mult	a0,t6
9d0087dc:	00046fc3 	sra	t5,a0,0x1f
9d0087e0:	24e50001 	addiu	a1,a3,1
9d0087e4:	00a0c021 	move	t8,a1
9d0087e8:	00001810 	mfhi	v1
9d0087ec:	00033083 	sra	a2,v1,0x2
9d0087f0:	00cda023 	subu	s4,a2,t5
9d0087f4:	0014f840 	sll	ra,s4,0x1
9d0087f8:	001458c0 	sll	t3,s4,0x3
9d0087fc:	03eb5021 	addu	t2,ra,t3
9d008800:	008a4823 	subu	t1,a0,t2
9d008804:	03c94021 	addu	t0,s8,t1
9d008808:	91150023 	lbu	s5,35(t0)
9d00880c:	0014cfc3 	sra	t9,s4,0x1f
9d008810:	12800033 	beqz	s4,9d0088e0 <print.constprop.4+0xe68>
9d008814:	a0b5ffff 	sb	s5,-1(a1)
9d008818:	028e0018 	mult	s4,t6
9d00881c:	02802021 	move	a0,s4
9d008820:	00a03821 	move	a3,a1
9d008824:	24a50001 	addiu	a1,a1,1
9d008828:	00001010 	mfhi	v0
9d00882c:	00028883 	sra	s1,v0,0x2
9d008830:	02396023 	subu	t4,s1,t9
9d008834:	000c7840 	sll	t7,t4,0x1
9d008838:	000c18c0 	sll	v1,t4,0x3
9d00883c:	01e36821 	addu	t5,t7,v1
9d008840:	028d3023 	subu	a2,s4,t5
9d008844:	03c6a021 	addu	s4,s8,a2
9d008848:	92990023 	lbu	t9,35(s4)
9d00884c:	000c97c3 	sra	s2,t4,0x1f
9d008850:	11800023 	beqz	t4,9d0088e0 <print.constprop.4+0xe68>
9d008854:	a0b9ffff 	sb	t9,-1(a1)
9d008858:	018e0018 	mult	t4,t6
9d00885c:	01802021 	move	a0,t4
9d008860:	00a03821 	move	a3,a1
9d008864:	24a50001 	addiu	a1,a1,1
9d008868:	00001010 	mfhi	v0
9d00886c:	00028883 	sra	s1,v0,0x2
9d008870:	0232f823 	subu	ra,s1,s2
9d008874:	001f5040 	sll	t2,ra,0x1
9d008878:	001f48c0 	sll	t1,ra,0x3
9d00887c:	01494021 	addu	t0,t2,t1
9d008880:	0188a823 	subu	s5,t4,t0
9d008884:	03d56021 	addu	t4,s8,s5
9d008888:	91920023 	lbu	s2,35(t4)
9d00888c:	001f5fc3 	sra	t3,ra,0x1f
9d008890:	13e00013 	beqz	ra,9d0088e0 <print.constprop.4+0xe68>
9d008894:	a0b2ffff 	sb	s2,-1(a1)
9d008898:	03ee0018 	mult	ra,t6
9d00889c:	27050003 	addiu	a1,t8,3
9d0088a0:	27070002 	addiu	a3,t8,2
9d0088a4:	03e02021 	move	a0,ra
9d0088a8:	00001810 	mfhi	v1
9d0088ac:	00033083 	sra	a2,v1,0x2
9d0088b0:	00cbc023 	subu	t8,a2,t3
9d0088b4:	00187840 	sll	t7,t8,0x1
9d0088b8:	001868c0 	sll	t5,t8,0x3
9d0088bc:	01eda021 	addu	s4,t7,t5
9d0088c0:	03f4c823 	subu	t9,ra,s4
9d0088c4:	03d91021 	addu	v0,s8,t9
9d0088c8:	90510023 	lbu	s1,35(v0)
9d0088cc:	13000004 	beqz	t8,9d0088e0 <print.constprop.4+0xe68>
9d0088d0:	a0b1ffff 	sb	s1,-1(a1)
9d0088d4:	00a03821 	move	a3,a1
9d0088d8:	1000ffbf 	b	9d0087d8 <print.constprop.4+0xd60>
9d0088dc:	03002021 	move	a0,t8
9d0088e0:	048000ac 	bltz	a0,9d008b94 <print.constprop.4+0x111c>
9d0088e4:	2404002d 	li	a0,45
9d0088e8:	24a2ffff 	addiu	v0,a1,-1
9d0088ec:	02e2382b 	sltu	a3,s7,v0
9d0088f0:	a0a00000 	sb	zero,0(a1)
9d0088f4:	10e00045 	beqz	a3,9d008a0c <print.constprop.4+0xf94>
9d0088f8:	02e01821 	move	v1,s7
9d0088fc:	afb00040 	sw	s0,64(sp)
9d008900:	afb30044 	sw	s3,68(sp)
9d008904:	90500000 	lbu	s0,0(v0)
9d008908:	907f0000 	lbu	ra,0(v1)
9d00890c:	2453ffff 	addiu	s3,v0,-1
9d008910:	24770001 	addiu	s7,v1,1
9d008914:	244bfffe 	addiu	t3,v0,-2
9d008918:	246a0002 	addiu	t2,v1,2
9d00891c:	2449fffd 	addiu	t1,v0,-3
9d008920:	24680003 	addiu	t0,v1,3
9d008924:	2451fffc 	addiu	s1,v0,-4
9d008928:	24660004 	addiu	a2,v1,4
9d00892c:	244ffffb 	addiu	t7,v0,-5
9d008930:	246e0005 	addiu	t6,v1,5
9d008934:	02f3282b 	sltu	a1,s7,s3
9d008938:	244dfffa 	addiu	t5,v0,-6
9d00893c:	246c0006 	addiu	t4,v1,6
9d008940:	a05f0000 	sb	ra,0(v0)
9d008944:	014ba02b 	sltu	s4,t2,t3
9d008948:	2458fff9 	addiu	t8,v0,-7
9d00894c:	0109382b 	sltu	a3,t0,t1
9d008950:	00d1902b 	sltu	s2,a2,s1
9d008954:	01cf982b 	sltu	s3,t6,t7
9d008958:	018da82b 	sltu	s5,t4,t5
9d00895c:	10a00029 	beqz	a1,9d008a04 <print.constprop.4+0xf8c>
9d008960:	a0700000 	sb	s0,0(v1)
9d008964:	905fffff 	lbu	ra,-1(v0)
9d008968:	90790001 	lbu	t9,1(v1)
9d00896c:	24640007 	addiu	a0,v1,7
9d008970:	0098802b 	sltu	s0,a0,t8
9d008974:	a1790001 	sb	t9,1(t3)
9d008978:	12800022 	beqz	s4,9d008a04 <print.constprop.4+0xf8c>
9d00897c:	a15fffff 	sb	ra,-1(t2)
9d008980:	9057fffe 	lbu	s7,-2(v0)
9d008984:	906b0002 	lbu	t3,2(v1)
9d008988:	a12b0001 	sb	t3,1(t1)
9d00898c:	10e0001d 	beqz	a3,9d008a04 <print.constprop.4+0xf8c>
9d008990:	a117ffff 	sb	s7,-1(t0)
9d008994:	904afffd 	lbu	t2,-3(v0)
9d008998:	90690003 	lbu	t1,3(v1)
9d00899c:	a2290001 	sb	t1,1(s1)
9d0089a0:	12400018 	beqz	s2,9d008a04 <print.constprop.4+0xf8c>
9d0089a4:	a0caffff 	sb	t2,-1(a2)
9d0089a8:	9048fffc 	lbu	t0,-4(v0)
9d0089ac:	90710004 	lbu	s1,4(v1)
9d0089b0:	a1f10001 	sb	s1,1(t7)
9d0089b4:	12600013 	beqz	s3,9d008a04 <print.constprop.4+0xf8c>
9d0089b8:	a1c8ffff 	sb	t0,-1(t6)
9d0089bc:	904ffffb 	lbu	t7,-5(v0)
9d0089c0:	90660005 	lbu	a2,5(v1)
9d0089c4:	a1a60001 	sb	a2,1(t5)
9d0089c8:	12a0000e 	beqz	s5,9d008a04 <print.constprop.4+0xf8c>
9d0089cc:	a18fffff 	sb	t7,-1(t4)
9d0089d0:	904efffa 	lbu	t6,-6(v0)
9d0089d4:	90650006 	lbu	a1,6(v1)
9d0089d8:	a3050001 	sb	a1,1(t8)
9d0089dc:	12000009 	beqz	s0,9d008a04 <print.constprop.4+0xf8c>
9d0089e0:	a06e0006 	sb	t6,6(v1)
9d0089e4:	904dfff9 	lbu	t5,-7(v0)
9d0089e8:	906c0007 	lbu	t4,7(v1)
9d0089ec:	2442fff8 	addiu	v0,v0,-8
9d0089f0:	24630008 	addiu	v1,v1,8
9d0089f4:	0062a02b 	sltu	s4,v1,v0
9d0089f8:	a04c0001 	sb	t4,1(v0)
9d0089fc:	1680ffc1 	bnez	s4,9d008904 <print.constprop.4+0xe8c>
9d008a00:	a06dffff 	sb	t5,-1(v1)
9d008a04:	8fb00040 	lw	s0,64(sp)
9d008a08:	8fb30044 	lw	s3,68(sp)
9d008a0c:	5260fc56 	beqzl	s3,9d007b68 <print.constprop.4+0xf0>
9d008a10:	92130001 	lbu	s3,1(s0)
9d008a14:	93a40018 	lbu	a0,24(sp)
9d008a18:	1080fc52 	beqz	a0,9d007b64 <print.constprop.4+0xec>
9d008a1c:	27a50019 	addiu	a1,sp,25
9d008a20:	3c18bf82 	lui	t8,0xbf82
9d008a24:	3c07bf82 	lui	a3,0xbf82
9d008a28:	8f122210 	lw	s2,8720(t8)
9d008a2c:	32550200 	andi	s5,s2,0x200
9d008a30:	12a0001d 	beqz	s5,9d008aa8 <print.constprop.4+0x1030>
9d008a34:	00000000 	nop
9d008a38:	8f1f2210 	lw	ra,8720(t8)
9d008a3c:	33f90200 	andi	t9,ra,0x200
9d008a40:	13200019 	beqz	t9,9d008aa8 <print.constprop.4+0x1030>
9d008a44:	00000000 	nop
9d008a48:	8f172210 	lw	s7,8720(t8)
9d008a4c:	32eb0200 	andi	t3,s7,0x200
9d008a50:	11600015 	beqz	t3,9d008aa8 <print.constprop.4+0x1030>
9d008a54:	00000000 	nop
9d008a58:	8f0a2210 	lw	t2,8720(t8)
9d008a5c:	31490200 	andi	t1,t2,0x200
9d008a60:	11200011 	beqz	t1,9d008aa8 <print.constprop.4+0x1030>
9d008a64:	00000000 	nop
9d008a68:	8f082210 	lw	t0,8720(t8)
9d008a6c:	31110200 	andi	s1,t0,0x200
9d008a70:	1220000d 	beqz	s1,9d008aa8 <print.constprop.4+0x1030>
9d008a74:	00000000 	nop
9d008a78:	8f0f2210 	lw	t7,8720(t8)
9d008a7c:	31e60200 	andi	a2,t7,0x200
9d008a80:	10c00009 	beqz	a2,9d008aa8 <print.constprop.4+0x1030>
9d008a84:	00000000 	nop
9d008a88:	8f0e2210 	lw	t6,8720(t8)
9d008a8c:	31cd0200 	andi	t5,t6,0x200
9d008a90:	11a00005 	beqz	t5,9d008aa8 <print.constprop.4+0x1030>
9d008a94:	00000000 	nop
9d008a98:	8f0c2210 	lw	t4,8720(t8)
9d008a9c:	31820200 	andi	v0,t4,0x200
9d008aa0:	1440ffe1 	bnez	v0,9d008a28 <print.constprop.4+0xfb0>
9d008aa4:	00000000 	nop
9d008aa8:	ace42220 	sw	a0,8736(a3)
9d008aac:	24a50001 	addiu	a1,a1,1
9d008ab0:	90a4ffff 	lbu	a0,-1(a1)
9d008ab4:	1480ffdc 	bnez	a0,9d008a28 <print.constprop.4+0xfb0>
9d008ab8:	00000000 	nop
9d008abc:	1000fc2a 	b	9d007b68 <print.constprop.4+0xf0>
9d008ac0:	92130001 	lbu	s3,1(s0)
9d008ac4:	8fb30084 	lw	s3,132(sp)
9d008ac8:	24030061 	li	v1,97
9d008acc:	2405000a 	li	a1,10
9d008ad0:	8e640000 	lw	a0,0(s3)
9d008ad4:	267f0004 	addiu	ra,s3,4
9d008ad8:	afaa0010 	sw	t2,16(sp)
9d008adc:	afa30014 	sw	v1,20(sp)
9d008ae0:	afbf0084 	sw	ra,132(sp)
9d008ae4:	0f401c8c 	jal	9d007230 <printi.constprop.5>
9d008ae8:	24060001 	li	a2,1
9d008aec:	1000fc1d 	b	9d007b64 <print.constprop.4+0xec>
9d008af0:	02c2b021 	addu	s6,s6,v0
9d008af4:	2584ff9b 	addiu	a0,t4,-101
9d008af8:	24080002 	li	t0,2
9d008afc:	0104582b 	sltu	t3,t0,a0
9d008b00:	5560fc19 	bnezl	t3,9d007b68 <print.constprop.4+0xf0>
9d008b04:	92130001 	lbu	s3,1(s0)
9d008b08:	1000fdce 	b	9d008244 <print.constprop.4+0x7cc>
9d008b0c:	24150006 	li	s5,6
9d008b10:	8fb40084 	lw	s4,132(sp)
9d008b14:	24050010 	li	a1,16
9d008b18:	24150061 	li	s5,97
9d008b1c:	8e840000 	lw	a0,0(s4)
9d008b20:	26920004 	addiu	s2,s4,4
9d008b24:	afaa0010 	sw	t2,16(sp)
9d008b28:	afb50014 	sw	s5,20(sp)
9d008b2c:	00003021 	move	a2,zero
9d008b30:	0f401c8c 	jal	9d007230 <printi.constprop.5>
9d008b34:	afb20084 	sw	s2,132(sp)
9d008b38:	1000fc0a 	b	9d007b64 <print.constprop.4+0xec>
9d008b3c:	02c2b021 	addu	s6,s6,v0
9d008b40:	8fa60084 	lw	a2,132(sp)
9d008b44:	24050010 	li	a1,16
9d008b48:	24150041 	li	s5,65
9d008b4c:	8cc40000 	lw	a0,0(a2)
9d008b50:	24d20004 	addiu	s2,a2,4
9d008b54:	1000fff4 	b	9d008b28 <print.constprop.4+0x10b0>
9d008b58:	afaa0010 	sw	t2,16(sp)
9d008b5c:	31510001 	andi	s1,t2,0x1
9d008b60:	16200012 	bnez	s1,9d008bac <print.constprop.4+0x1134>
9d008b64:	910f0000 	lbu	t7,0(t0)
9d008b68:	240e0020 	li	t6,32
9d008b6c:	00002021 	move	a0,zero
9d008b70:	1000fd57 	b	9d0080d0 <print.constprop.4+0x658>
9d008b74:	00009021 	move	s2,zero
9d008b78:	8fb80084 	lw	t8,132(sp)
9d008b7c:	2405000a 	li	a1,10
9d008b80:	24150061 	li	s5,97
9d008b84:	8f040000 	lw	a0,0(t8)
9d008b88:	27120004 	addiu	s2,t8,4
9d008b8c:	1000ffe6 	b	9d008b28 <print.constprop.4+0x10b0>
9d008b90:	afaa0010 	sw	t2,16(sp)
9d008b94:	24e50002 	addiu	a1,a3,2
9d008b98:	1000ff53 	b	9d0088e8 <print.constprop.4+0xe70>
9d008b9c:	a0e40001 	sb	a0,1(a3)
9d008ba0:	24c50002 	addiu	a1,a2,2
9d008ba4:	1000fde3 	b	9d008334 <print.constprop.4+0x8bc>
9d008ba8:	a0c40001 	sb	a0,1(a2)
9d008bac:	00002021 	move	a0,zero
9d008bb0:	240e0020 	li	t6,32
9d008bb4:	15e0fd48 	bnez	t7,9d0080d8 <print.constprop.4+0x660>
9d008bb8:	00009021 	move	s2,zero
9d008bbc:	100000c0 	b	9d008ec0 <print.constprop.4+0x1448>
9d008bc0:	00e02021 	move	a0,a3
9d008bc4:	a3a00039 	sb	zero,57(sp)
9d008bc8:	90750000 	lbu	s5,0(v1)
9d008bcc:	24740004 	addiu	s4,v1,4
9d008bd0:	afb40084 	sw	s4,132(sp)
9d008bd4:	10e000b3 	beqz	a3,9d008ea4 <print.constprop.4+0x142c>
9d008bd8:	a3b50038 	sb	s5,56(sp)
9d008bdc:	12a000a8 	beqz	s5,9d008e80 <print.constprop.4+0x1408>
9d008be0:	00006821 	move	t5,zero
9d008be4:	27bf0038 	addiu	ra,sp,56
9d008be8:	25ad0001 	addiu	t5,t5,1
9d008bec:	7fedc98a 	lbux	t9,t5(ra)
9d008bf0:	1320001d 	beqz	t9,9d008c68 <print.constprop.4+0x11f0>
9d008bf4:	01a0b821 	move	s7,t5
9d008bf8:	25ad0001 	addiu	t5,t5,1
9d008bfc:	7fed598a 	lbux	t3,t5(ra)
9d008c00:	1160001a 	beqz	t3,9d008c6c <print.constprop.4+0x11f4>
9d008c04:	01a7102a 	slt	v0,t5,a3
9d008c08:	26ed0002 	addiu	t5,s7,2
9d008c0c:	7fed498a 	lbux	t1,t5(ra)
9d008c10:	11200016 	beqz	t1,9d008c6c <print.constprop.4+0x11f4>
9d008c14:	01a7102a 	slt	v0,t5,a3
9d008c18:	26ed0003 	addiu	t5,s7,3
9d008c1c:	7fed418a 	lbux	t0,t5(ra)
9d008c20:	11000012 	beqz	t0,9d008c6c <print.constprop.4+0x11f4>
9d008c24:	01a7102a 	slt	v0,t5,a3
9d008c28:	26ed0004 	addiu	t5,s7,4
9d008c2c:	7fed898a 	lbux	s1,t5(ra)
9d008c30:	1220000e 	beqz	s1,9d008c6c <print.constprop.4+0x11f4>
9d008c34:	01a7102a 	slt	v0,t5,a3
9d008c38:	26ed0005 	addiu	t5,s7,5
9d008c3c:	7fed798a 	lbux	t7,t5(ra)
9d008c40:	11e0000a 	beqz	t7,9d008c6c <print.constprop.4+0x11f4>
9d008c44:	01a7102a 	slt	v0,t5,a3
9d008c48:	26ed0006 	addiu	t5,s7,6
9d008c4c:	7fed718a 	lbux	t6,t5(ra)
9d008c50:	11c00006 	beqz	t6,9d008c6c <print.constprop.4+0x11f4>
9d008c54:	01a7102a 	slt	v0,t5,a3
9d008c58:	26ed0007 	addiu	t5,s7,7
9d008c5c:	7fed618a 	lbux	t4,t5(ra)
9d008c60:	5580ffe2 	bnezl	t4,9d008bec <print.constprop.4+0x1174>
9d008c64:	25ad0001 	addiu	t5,t5,1
9d008c68:	01a7102a 	slt	v0,t5,a3
9d008c6c:	14400084 	bnez	v0,9d008e80 <print.constprop.4+0x1408>
9d008c70:	00002021 	move	a0,zero
9d008c74:	31450002 	andi	a1,t2,0x2
9d008c78:	24070030 	li	a3,48
9d008c7c:	24060020 	li	a2,32
9d008c80:	00c5380a 	movz	a3,a2,a1
9d008c84:	314a0001 	andi	t2,t2,0x1
9d008c88:	00e0c021 	move	t8,a3
9d008c8c:	1540007e 	bnez	t2,9d008e88 <print.constprop.4+0x1410>
9d008c90:	00809021 	move	s2,a0
9d008c94:	18800091 	blez	a0,9d008edc <print.constprop.4+0x1464>
9d008c98:	3c13bf82 	lui	s3,0xbf82
9d008c9c:	3c14bf82 	lui	s4,0xbf82
9d008ca0:	8e832210 	lw	v1,8720(s4)
9d008ca4:	307f0200 	andi	ra,v1,0x200
9d008ca8:	53e0001e 	beqzl	ra,9d008d24 <print.constprop.4+0x12ac>
9d008cac:	2652ffff 	addiu	s2,s2,-1
9d008cb0:	8e992210 	lw	t9,8720(s4)
9d008cb4:	33370200 	andi	s7,t9,0x200
9d008cb8:	52e0001a 	beqzl	s7,9d008d24 <print.constprop.4+0x12ac>
9d008cbc:	2652ffff 	addiu	s2,s2,-1
9d008cc0:	8e8b2210 	lw	t3,8720(s4)
9d008cc4:	31690200 	andi	t1,t3,0x200
9d008cc8:	51200016 	beqzl	t1,9d008d24 <print.constprop.4+0x12ac>
9d008ccc:	2652ffff 	addiu	s2,s2,-1
9d008cd0:	8e882210 	lw	t0,8720(s4)
9d008cd4:	31110200 	andi	s1,t0,0x200
9d008cd8:	52200012 	beqzl	s1,9d008d24 <print.constprop.4+0x12ac>
9d008cdc:	2652ffff 	addiu	s2,s2,-1
9d008ce0:	8e8f2210 	lw	t7,8720(s4)
9d008ce4:	31ee0200 	andi	t6,t7,0x200
9d008ce8:	51c0000e 	beqzl	t6,9d008d24 <print.constprop.4+0x12ac>
9d008cec:	2652ffff 	addiu	s2,s2,-1
9d008cf0:	8e8d2210 	lw	t5,8720(s4)
9d008cf4:	31ac0200 	andi	t4,t5,0x200
9d008cf8:	5180000a 	beqzl	t4,9d008d24 <print.constprop.4+0x12ac>
9d008cfc:	2652ffff 	addiu	s2,s2,-1
9d008d00:	8e822210 	lw	v0,8720(s4)
9d008d04:	30450200 	andi	a1,v0,0x200
9d008d08:	50a00006 	beqzl	a1,9d008d24 <print.constprop.4+0x12ac>
9d008d0c:	2652ffff 	addiu	s2,s2,-1
9d008d10:	8e8a2210 	lw	t2,8720(s4)
9d008d14:	31470200 	andi	a3,t2,0x200
9d008d18:	14e0ffe1 	bnez	a3,9d008ca0 <print.constprop.4+0x1228>
9d008d1c:	00000000 	nop
9d008d20:	2652ffff 	addiu	s2,s2,-1
9d008d24:	ae782220 	sw	t8,8736(s3)
9d008d28:	1640ffdd 	bnez	s2,9d008ca0 <print.constprop.4+0x1228>
9d008d2c:	00000000 	nop
9d008d30:	52a0fb8c 	beqzl	s5,9d007b64 <print.constprop.4+0xec>
9d008d34:	02c4b021 	addu	s6,s6,a0
9d008d38:	27a70038 	addiu	a3,sp,56
9d008d3c:	3c06bf82 	lui	a2,0xbf82
9d008d40:	3c14bf82 	lui	s4,0xbf82
9d008d44:	8cd32210 	lw	s3,8720(a2)
9d008d48:	32630200 	andi	v1,s3,0x200
9d008d4c:	1060001d 	beqz	v1,9d008dc4 <print.constprop.4+0x134c>
9d008d50:	00000000 	nop
9d008d54:	8cdf2210 	lw	ra,8720(a2)
9d008d58:	33f90200 	andi	t9,ra,0x200
9d008d5c:	13200019 	beqz	t9,9d008dc4 <print.constprop.4+0x134c>
9d008d60:	00000000 	nop
9d008d64:	8cd72210 	lw	s7,8720(a2)
9d008d68:	32eb0200 	andi	t3,s7,0x200
9d008d6c:	11600015 	beqz	t3,9d008dc4 <print.constprop.4+0x134c>
9d008d70:	00000000 	nop
9d008d74:	8cc92210 	lw	t1,8720(a2)
9d008d78:	31280200 	andi	t0,t1,0x200
9d008d7c:	11000011 	beqz	t0,9d008dc4 <print.constprop.4+0x134c>
9d008d80:	00000000 	nop
9d008d84:	8cd12210 	lw	s1,8720(a2)
9d008d88:	322f0200 	andi	t7,s1,0x200
9d008d8c:	11e0000d 	beqz	t7,9d008dc4 <print.constprop.4+0x134c>
9d008d90:	00000000 	nop
9d008d94:	8cce2210 	lw	t6,8720(a2)
9d008d98:	31cd0200 	andi	t5,t6,0x200
9d008d9c:	11a00009 	beqz	t5,9d008dc4 <print.constprop.4+0x134c>
9d008da0:	00000000 	nop
9d008da4:	8ccc2210 	lw	t4,8720(a2)
9d008da8:	31820200 	andi	v0,t4,0x200
9d008dac:	10400005 	beqz	v0,9d008dc4 <print.constprop.4+0x134c>
9d008db0:	00000000 	nop
9d008db4:	8cc52210 	lw	a1,8720(a2)
9d008db8:	30aa0200 	andi	t2,a1,0x200
9d008dbc:	1540ffe1 	bnez	t2,9d008d44 <print.constprop.4+0x12cc>
9d008dc0:	00000000 	nop
9d008dc4:	ae952220 	sw	s5,8736(s4)
9d008dc8:	24e70001 	addiu	a3,a3,1
9d008dcc:	90f50000 	lbu	s5,0(a3)
9d008dd0:	16a0ffdc 	bnez	s5,9d008d44 <print.constprop.4+0x12cc>
9d008dd4:	24840001 	addiu	a0,a0,1
9d008dd8:	1a40fd10 	blez	s2,9d00821c <print.constprop.4+0x7a4>
9d008ddc:	02405021 	move	t2,s2
9d008de0:	3c15bf82 	lui	s5,0xbf82
9d008de4:	3c06bf82 	lui	a2,0xbf82
9d008de8:	8eb42210 	lw	s4,8720(s5)
9d008dec:	32930200 	andi	s3,s4,0x200
9d008df0:	5260001e 	beqzl	s3,9d008e6c <print.constprop.4+0x13f4>
9d008df4:	254affff 	addiu	t2,t2,-1
9d008df8:	8ea32210 	lw	v1,8720(s5)
9d008dfc:	307f0200 	andi	ra,v1,0x200
9d008e00:	53e0001a 	beqzl	ra,9d008e6c <print.constprop.4+0x13f4>
9d008e04:	254affff 	addiu	t2,t2,-1
9d008e08:	8eb92210 	lw	t9,8720(s5)
9d008e0c:	33370200 	andi	s7,t9,0x200
9d008e10:	52e00016 	beqzl	s7,9d008e6c <print.constprop.4+0x13f4>
9d008e14:	254affff 	addiu	t2,t2,-1
9d008e18:	8eab2210 	lw	t3,8720(s5)
9d008e1c:	31690200 	andi	t1,t3,0x200
9d008e20:	51200012 	beqzl	t1,9d008e6c <print.constprop.4+0x13f4>
9d008e24:	254affff 	addiu	t2,t2,-1
9d008e28:	8ea82210 	lw	t0,8720(s5)
9d008e2c:	31110200 	andi	s1,t0,0x200
9d008e30:	5220000e 	beqzl	s1,9d008e6c <print.constprop.4+0x13f4>
9d008e34:	254affff 	addiu	t2,t2,-1
9d008e38:	8eaf2210 	lw	t7,8720(s5)
9d008e3c:	31ee0200 	andi	t6,t7,0x200
9d008e40:	51c0000a 	beqzl	t6,9d008e6c <print.constprop.4+0x13f4>
9d008e44:	254affff 	addiu	t2,t2,-1
9d008e48:	8ead2210 	lw	t5,8720(s5)
9d008e4c:	31ac0200 	andi	t4,t5,0x200
9d008e50:	51800006 	beqzl	t4,9d008e6c <print.constprop.4+0x13f4>
9d008e54:	254affff 	addiu	t2,t2,-1
9d008e58:	8ea22210 	lw	v0,8720(s5)
9d008e5c:	30450200 	andi	a1,v0,0x200
9d008e60:	14a0ffe1 	bnez	a1,9d008de8 <print.constprop.4+0x1370>
9d008e64:	00000000 	nop
9d008e68:	254affff 	addiu	t2,t2,-1
9d008e6c:	acd82220 	sw	t8,8736(a2)
9d008e70:	1540ffdd 	bnez	t2,9d008de8 <print.constprop.4+0x1370>
9d008e74:	00000000 	nop
9d008e78:	1000fce8 	b	9d00821c <print.constprop.4+0x7a4>
9d008e7c:	00922021 	addu	a0,a0,s2
9d008e80:	1000ff7c 	b	9d008c74 <print.constprop.4+0x11fc>
9d008e84:	00ed2023 	subu	a0,a3,t5
9d008e88:	16a0ffab 	bnez	s5,9d008d38 <print.constprop.4+0x12c0>
9d008e8c:	00002021 	move	a0,zero
9d008e90:	1000ffd1 	b	9d008dd8 <print.constprop.4+0x1360>
9d008e94:	00000000 	nop
9d008e98:	00008821 	move	s1,zero
9d008e9c:	1000fe10 	b	9d0086e0 <print.constprop.4+0xc68>
9d008ea0:	8fb50050 	lw	s5,80(sp)
9d008ea4:	31530001 	andi	s3,t2,0x1
9d008ea8:	12600009 	beqz	s3,9d008ed0 <print.constprop.4+0x1458>
9d008eac:	24180020 	li	t8,32
9d008eb0:	00002021 	move	a0,zero
9d008eb4:	16a0ffa0 	bnez	s5,9d008d38 <print.constprop.4+0x12c0>
9d008eb8:	00009021 	move	s2,zero
9d008ebc:	00e02021 	move	a0,a3
9d008ec0:	1000fb28 	b	9d007b64 <print.constprop.4+0xec>
9d008ec4:	02c4b021 	addu	s6,s6,a0
9d008ec8:	1000fb29 	b	9d007b70 <print.constprop.4+0xf8>
9d008ecc:	0000b021 	move	s6,zero
9d008ed0:	00002021 	move	a0,zero
9d008ed4:	1000ff96 	b	9d008d30 <print.constprop.4+0x12b8>
9d008ed8:	00009021 	move	s2,zero
9d008edc:	1000ff94 	b	9d008d30 <print.constprop.4+0x12b8>
9d008ee0:	00002021 	move	a0,zero

9d008ee4 <printi>:
9d008ee4:	27bdffe0 	addiu	sp,sp,-32
9d008ee8:	8fa80030 	lw	t0,48(sp)
9d008eec:	10a00153 	beqz	a1,9d00943c <printi+0x558>
9d008ef0:	8faa0034 	lw	t2,52(sp)
9d008ef4:	14e00101 	bnez	a3,9d0092fc <printi+0x418>
9d008ef8:	00a0c821 	move	t9,a1
9d008efc:	00006021 	move	t4,zero
9d008f00:	a3a0001d 	sb	zero,29(sp)
9d008f04:	00005821 	move	t3,zero
9d008f08:	10a00057 	beqz	a1,9d009068 <printi+0x184>
9d008f0c:	27a3001d 	addiu	v1,sp,29
9d008f10:	8fa70038 	lw	a3,56(sp)
9d008f14:	27a3001d 	addiu	v1,sp,29
9d008f18:	24eeffc6 	addiu	t6,a3,-58
9d008f1c:	0326001b 	divu	zero,t9,a2
9d008f20:	2463ffff 	addiu	v1,v1,-1
9d008f24:	00602821 	move	a1,v1
9d008f28:	00004810 	mfhi	t1
9d008f2c:	01c96821 	addu	t5,t6,t1
9d008f30:	292b000a 	slti	t3,t1,10
9d008f34:	01ab480a 	movz	t1,t5,t3
9d008f38:	252f0030 	addiu	t7,t1,48
9d008f3c:	00001012 	mflo	v0
9d008f40:	10400047 	beqz	v0,9d009060 <printi+0x17c>
9d008f44:	a06f0000 	sb	t7,0(v1)
9d008f48:	0046001b 	divu	zero,v0,a2
9d008f4c:	2463ffff 	addiu	v1,v1,-1
9d008f50:	0000c010 	mfhi	t8
9d008f54:	01d83821 	addu	a3,t6,t8
9d008f58:	2b09000a 	slti	t1,t8,10
9d008f5c:	00e9c00a 	movz	t8,a3,t1
9d008f60:	27020030 	addiu	v0,t8,48
9d008f64:	0000c812 	mflo	t9
9d008f68:	1320003d 	beqz	t9,9d009060 <printi+0x17c>
9d008f6c:	a0620000 	sb	v0,0(v1)
9d008f70:	0326001b 	divu	zero,t9,a2
9d008f74:	24a3fffe 	addiu	v1,a1,-2
9d008f78:	00007810 	mfhi	t7
9d008f7c:	01cf6821 	addu	t5,t6,t7
9d008f80:	29eb000a 	slti	t3,t7,10
9d008f84:	01ab780a 	movz	t7,t5,t3
9d008f88:	25f90030 	addiu	t9,t7,48
9d008f8c:	0000c012 	mflo	t8
9d008f90:	13000033 	beqz	t8,9d009060 <printi+0x17c>
9d008f94:	a0b9fffe 	sb	t9,-2(a1)
9d008f98:	0306001b 	divu	zero,t8,a2
9d008f9c:	24a3fffd 	addiu	v1,a1,-3
9d008fa0:	00003810 	mfhi	a3
9d008fa4:	01c74821 	addu	t1,t6,a3
9d008fa8:	28ef000a 	slti	t7,a3,10
9d008fac:	012f380a 	movz	a3,t1,t7
9d008fb0:	24f80030 	addiu	t8,a3,48
9d008fb4:	00001012 	mflo	v0
9d008fb8:	10400029 	beqz	v0,9d009060 <printi+0x17c>
9d008fbc:	a0b8fffd 	sb	t8,-3(a1)
9d008fc0:	0046001b 	divu	zero,v0,a2
9d008fc4:	24a3fffc 	addiu	v1,a1,-4
9d008fc8:	0000c810 	mfhi	t9
9d008fcc:	01d96821 	addu	t5,t6,t9
9d008fd0:	2b2b000a 	slti	t3,t9,10
9d008fd4:	01abc80a 	movz	t9,t5,t3
9d008fd8:	27220030 	addiu	v0,t9,48
9d008fdc:	00003812 	mflo	a3
9d008fe0:	10e0001f 	beqz	a3,9d009060 <printi+0x17c>
9d008fe4:	a0a2fffc 	sb	v0,-4(a1)
9d008fe8:	00e6001b 	divu	zero,a3,a2
9d008fec:	24a3fffb 	addiu	v1,a1,-5
9d008ff0:	00004810 	mfhi	t1
9d008ff4:	01c9c021 	addu	t8,t6,t1
9d008ff8:	2939000a 	slti	t9,t1,10
9d008ffc:	0319480a 	movz	t1,t8,t9
9d009000:	25270030 	addiu	a3,t1,48
9d009004:	00007812 	mflo	t7
9d009008:	11e00015 	beqz	t7,9d009060 <printi+0x17c>
9d00900c:	a0a7fffb 	sb	a3,-5(a1)
9d009010:	01e6001b 	divu	zero,t7,a2
9d009014:	24a3fffa 	addiu	v1,a1,-6
9d009018:	00004810 	mfhi	t1
9d00901c:	01c96821 	addu	t5,t6,t1
9d009020:	292b000a 	slti	t3,t1,10
9d009024:	01ab480a 	movz	t1,t5,t3
9d009028:	252f0030 	addiu	t7,t1,48
9d00902c:	00001012 	mflo	v0
9d009030:	1040000b 	beqz	v0,9d009060 <printi+0x17c>
9d009034:	a0affffa 	sb	t7,-6(a1)
9d009038:	0046001b 	divu	zero,v0,a2
9d00903c:	24a3fff9 	addiu	v1,a1,-7
9d009040:	0000c010 	mfhi	t8
9d009044:	01d83821 	addu	a3,t6,t8
9d009048:	2b09000a 	slti	t1,t8,10
9d00904c:	00e9c00a 	movz	t8,a3,t1
9d009050:	27020030 	addiu	v0,t8,48
9d009054:	0000c812 	mflo	t9
9d009058:	1720ffb0 	bnez	t9,9d008f1c <printi+0x38>
9d00905c:	a0a2fff9 	sb	v0,-7(a1)
9d009060:	158000af 	bnez	t4,9d009320 <printi+0x43c>
9d009064:	00005821 	move	t3,zero
9d009068:	590000ef 	blezl	t0,9d009428 <printi+0x544>
9d00906c:	314a0001 	andi	t2,t2,0x1
9d009070:	906c0000 	lbu	t4,0(v1)
9d009074:	118000dc 	beqz	t4,9d0093e8 <printi+0x504>
9d009078:	00603821 	move	a3,v1
9d00907c:	00003021 	move	a2,zero
9d009080:	90e50001 	lbu	a1,1(a3)
9d009084:	24c60001 	addiu	a2,a2,1
9d009088:	10a00017 	beqz	a1,9d0090e8 <printi+0x204>
9d00908c:	00c0c021 	move	t8,a2
9d009090:	90f90002 	lbu	t9,2(a3)
9d009094:	13200014 	beqz	t9,9d0090e8 <printi+0x204>
9d009098:	24c60001 	addiu	a2,a2,1
9d00909c:	90ee0003 	lbu	t6,3(a3)
9d0090a0:	11c00011 	beqz	t6,9d0090e8 <printi+0x204>
9d0090a4:	27060002 	addiu	a2,t8,2
9d0090a8:	90e90004 	lbu	t1,4(a3)
9d0090ac:	1120000e 	beqz	t1,9d0090e8 <printi+0x204>
9d0090b0:	27060003 	addiu	a2,t8,3
9d0090b4:	90e20005 	lbu	v0,5(a3)
9d0090b8:	1040000b 	beqz	v0,9d0090e8 <printi+0x204>
9d0090bc:	27060004 	addiu	a2,t8,4
9d0090c0:	90ed0006 	lbu	t5,6(a3)
9d0090c4:	11a00008 	beqz	t5,9d0090e8 <printi+0x204>
9d0090c8:	27060005 	addiu	a2,t8,5
9d0090cc:	90ef0007 	lbu	t7,7(a3)
9d0090d0:	27060006 	addiu	a2,t8,6
9d0090d4:	11e00004 	beqz	t7,9d0090e8 <printi+0x204>
9d0090d8:	24e70008 	addiu	a3,a3,8
9d0090dc:	90e50000 	lbu	a1,0(a3)
9d0090e0:	14a0ffe7 	bnez	a1,9d009080 <printi+0x19c>
9d0090e4:	27060007 	addiu	a2,t8,7
9d0090e8:	00c8c02a 	slt	t8,a2,t0
9d0090ec:	170000bf 	bnez	t8,9d0093ec <printi+0x508>
9d0090f0:	00006821 	move	t5,zero
9d0090f4:	31480002 	andi	t0,t2,0x2
9d0090f8:	24190020 	li	t9,32
9d0090fc:	240f0030 	li	t7,48
9d009100:	314a0001 	andi	t2,t2,0x1
9d009104:	0328780a 	movz	t7,t9,t0
9d009108:	15400032 	bnez	t2,9d0091d4 <printi+0x2f0>
9d00910c:	01a04021 	move	t0,t5
9d009110:	59a0000e 	blezl	t5,9d00914c <printi+0x268>
9d009114:	00006821 	move	t5,zero
9d009118:	3c0cbf82 	lui	t4,0xbf82
9d00911c:	3c0ebf82 	lui	t6,0xbf82
9d009120:	1080008e 	beqz	a0,9d00935c <printi+0x478>
9d009124:	00000000 	nop
9d009128:	8c890000 	lw	t1,0(a0)
9d00912c:	a12f0000 	sb	t7,0(t1)
9d009130:	8c820000 	lw	v0,0(a0)
9d009134:	24470001 	addiu	a3,v0,1
9d009138:	ac870000 	sw	a3,0(a0)
9d00913c:	2508ffff 	addiu	t0,t0,-1
9d009140:	1500fff7 	bnez	t0,9d009120 <printi+0x23c>
9d009144:	00000000 	nop
9d009148:	906c0000 	lbu	t4,0(v1)
9d00914c:	1180001f 	beqz	t4,9d0091cc <printi+0x2e8>
9d009150:	016d1021 	addu	v0,t3,t5
9d009154:	3c0ebf82 	lui	t6,0xbf82
9d009158:	3c18bf82 	lui	t8,0xbf82
9d00915c:	10800021 	beqz	a0,9d0091e4 <printi+0x300>
9d009160:	00000000 	nop
9d009164:	8c8a0000 	lw	t2,0(a0)
9d009168:	a14c0000 	sb	t4,0(t2)
9d00916c:	8c8c0000 	lw	t4,0(a0)
9d009170:	25990001 	addiu	t9,t4,1
9d009174:	ac990000 	sw	t9,0(a0)
9d009178:	24630001 	addiu	v1,v1,1
9d00917c:	906c0000 	lbu	t4,0(v1)
9d009180:	1580fff6 	bnez	t4,9d00915c <printi+0x278>
9d009184:	25ad0001 	addiu	t5,t5,1
9d009188:	19000010 	blez	t0,9d0091cc <printi+0x2e8>
9d00918c:	016d1021 	addu	v0,t3,t5
9d009190:	01002821 	move	a1,t0
9d009194:	3c0ebf82 	lui	t6,0xbf82
9d009198:	3c18bf82 	lui	t8,0xbf82
9d00919c:	10800034 	beqz	a0,9d009270 <printi+0x38c>
9d0091a0:	00000000 	nop
9d0091a4:	8c830000 	lw	v1,0(a0)
9d0091a8:	a06f0000 	sb	t7,0(v1)
9d0091ac:	8c890000 	lw	t1,0(a0)
9d0091b0:	25220001 	addiu	v0,t1,1
9d0091b4:	ac820000 	sw	v0,0(a0)
9d0091b8:	24a5ffff 	addiu	a1,a1,-1
9d0091bc:	14a0fff7 	bnez	a1,9d00919c <printi+0x2b8>
9d0091c0:	00000000 	nop
9d0091c4:	01a86821 	addu	t5,t5,t0
9d0091c8:	016d1021 	addu	v0,t3,t5
9d0091cc:	03e00008 	jr	ra
9d0091d0:	27bd0020 	addiu	sp,sp,32
9d0091d4:	1580ffdf 	bnez	t4,9d009154 <printi+0x270>
9d0091d8:	00006821 	move	t5,zero
9d0091dc:	1000ffea 	b	9d009188 <printi+0x2a4>
9d0091e0:	00000000 	nop
9d0091e4:	8dc52210 	lw	a1,8720(t6)
9d0091e8:	30a60200 	andi	a2,a1,0x200
9d0091ec:	10c0001d 	beqz	a2,9d009264 <printi+0x380>
9d0091f0:	00000000 	nop
9d0091f4:	8dca2210 	lw	t2,8720(t6)
9d0091f8:	31590200 	andi	t9,t2,0x200
9d0091fc:	13200019 	beqz	t9,9d009264 <printi+0x380>
9d009200:	00000000 	nop
9d009204:	8dc92210 	lw	t1,8720(t6)
9d009208:	31220200 	andi	v0,t1,0x200
9d00920c:	10400015 	beqz	v0,9d009264 <printi+0x380>
9d009210:	00000000 	nop
9d009214:	8dc72210 	lw	a3,8720(t6)
9d009218:	30e50200 	andi	a1,a3,0x200
9d00921c:	10a00011 	beqz	a1,9d009264 <printi+0x380>
9d009220:	00000000 	nop
9d009224:	8dc62210 	lw	a2,8720(t6)
9d009228:	30ca0200 	andi	t2,a2,0x200
9d00922c:	1140000d 	beqz	t2,9d009264 <printi+0x380>
9d009230:	00000000 	nop
9d009234:	8dd92210 	lw	t9,8720(t6)
9d009238:	33290200 	andi	t1,t9,0x200
9d00923c:	11200009 	beqz	t1,9d009264 <printi+0x380>
9d009240:	00000000 	nop
9d009244:	8dc22210 	lw	v0,8720(t6)
9d009248:	30470200 	andi	a3,v0,0x200
9d00924c:	10e00005 	beqz	a3,9d009264 <printi+0x380>
9d009250:	00000000 	nop
9d009254:	8dc52210 	lw	a1,8720(t6)
9d009258:	30a60200 	andi	a2,a1,0x200
9d00925c:	14c0ffe1 	bnez	a2,9d0091e4 <printi+0x300>
9d009260:	00000000 	nop
9d009264:	af0c2220 	sw	t4,8736(t8)
9d009268:	1000ffc4 	b	9d00917c <printi+0x298>
9d00926c:	24630001 	addiu	v1,v1,1
9d009270:	8dc32210 	lw	v1,8720(t6)
9d009274:	30690200 	andi	t1,v1,0x200
9d009278:	1120001d 	beqz	t1,9d0092f0 <printi+0x40c>
9d00927c:	00000000 	nop
9d009280:	8dc22210 	lw	v0,8720(t6)
9d009284:	30470200 	andi	a3,v0,0x200
9d009288:	10e00019 	beqz	a3,9d0092f0 <printi+0x40c>
9d00928c:	00000000 	nop
9d009290:	8dc62210 	lw	a2,8720(t6)
9d009294:	30ca0200 	andi	t2,a2,0x200
9d009298:	11400015 	beqz	t2,9d0092f0 <printi+0x40c>
9d00929c:	00000000 	nop
9d0092a0:	8dcc2210 	lw	t4,8720(t6)
9d0092a4:	31990200 	andi	t9,t4,0x200
9d0092a8:	13200011 	beqz	t9,9d0092f0 <printi+0x40c>
9d0092ac:	00000000 	nop
9d0092b0:	8dc32210 	lw	v1,8720(t6)
9d0092b4:	30690200 	andi	t1,v1,0x200
9d0092b8:	1120000d 	beqz	t1,9d0092f0 <printi+0x40c>
9d0092bc:	00000000 	nop
9d0092c0:	8dc22210 	lw	v0,8720(t6)
9d0092c4:	30470200 	andi	a3,v0,0x200
9d0092c8:	10e00009 	beqz	a3,9d0092f0 <printi+0x40c>
9d0092cc:	00000000 	nop
9d0092d0:	8dc62210 	lw	a2,8720(t6)
9d0092d4:	30ca0200 	andi	t2,a2,0x200
9d0092d8:	11400005 	beqz	t2,9d0092f0 <printi+0x40c>
9d0092dc:	00000000 	nop
9d0092e0:	8dcc2210 	lw	t4,8720(t6)
9d0092e4:	31990200 	andi	t9,t4,0x200
9d0092e8:	1720ffe1 	bnez	t9,9d009270 <printi+0x38c>
9d0092ec:	00000000 	nop
9d0092f0:	af0f2220 	sw	t7,8736(t8)
9d0092f4:	1000ffb1 	b	9d0091bc <printi+0x2d8>
9d0092f8:	24a5ffff 	addiu	a1,a1,-1
9d0092fc:	2403000a 	li	v1,10
9d009300:	14c3feff 	bne	a2,v1,9d008f00 <printi+0x1c>
9d009304:	00006021 	move	t4,zero
9d009308:	04a1fefe 	bgez	a1,9d008f04 <printi+0x20>
9d00930c:	a3a0001d 	sb	zero,29(sp)
9d009310:	0005c823 	negu	t9,a1
9d009314:	1720fefe 	bnez	t9,9d008f10 <printi+0x2c>
9d009318:	240c0001 	li	t4,1
9d00931c:	27a3001d 	addiu	v1,sp,29
9d009320:	1100003c 	beqz	t0,9d009414 <printi+0x530>
9d009324:	240c002d 	li	t4,45
9d009328:	31460002 	andi	a2,t2,0x2
9d00932c:	50c0003a 	beqzl	a2,9d009418 <printi+0x534>
9d009330:	a06cffff 	sb	t4,-1(v1)
9d009334:	10800114 	beqz	a0,9d009788 <printi+0x8a4>
9d009338:	2407002d 	li	a3,45
9d00933c:	8c8e0000 	lw	t6,0(a0)
9d009340:	240b0001 	li	t3,1
9d009344:	a1c70000 	sb	a3,0(t6)
9d009348:	8c890000 	lw	t1,0(a0)
9d00934c:	2508ffff 	addiu	t0,t0,-1
9d009350:	25220001 	addiu	v0,t1,1
9d009354:	1000ff44 	b	9d009068 <printi+0x184>
9d009358:	ac820000 	sw	v0,0(a0)
9d00935c:	8d892210 	lw	t1,8720(t4)
9d009360:	31220200 	andi	v0,t1,0x200
9d009364:	1040001d 	beqz	v0,9d0093dc <printi+0x4f8>
9d009368:	00000000 	nop
9d00936c:	8d872210 	lw	a3,8720(t4)
9d009370:	30e50200 	andi	a1,a3,0x200
9d009374:	10a00019 	beqz	a1,9d0093dc <printi+0x4f8>
9d009378:	00000000 	nop
9d00937c:	8d862210 	lw	a2,8720(t4)
9d009380:	30d80200 	andi	t8,a2,0x200
9d009384:	13000015 	beqz	t8,9d0093dc <printi+0x4f8>
9d009388:	00000000 	nop
9d00938c:	8d8a2210 	lw	t2,8720(t4)
9d009390:	31590200 	andi	t9,t2,0x200
9d009394:	13200011 	beqz	t9,9d0093dc <printi+0x4f8>
9d009398:	00000000 	nop
9d00939c:	8d892210 	lw	t1,8720(t4)
9d0093a0:	31220200 	andi	v0,t1,0x200
9d0093a4:	1040000d 	beqz	v0,9d0093dc <printi+0x4f8>
9d0093a8:	00000000 	nop
9d0093ac:	8d872210 	lw	a3,8720(t4)
9d0093b0:	30e50200 	andi	a1,a3,0x200
9d0093b4:	10a00009 	beqz	a1,9d0093dc <printi+0x4f8>
9d0093b8:	00000000 	nop
9d0093bc:	8d862210 	lw	a2,8720(t4)
9d0093c0:	30d80200 	andi	t8,a2,0x200
9d0093c4:	13000005 	beqz	t8,9d0093dc <printi+0x4f8>
9d0093c8:	00000000 	nop
9d0093cc:	8d8a2210 	lw	t2,8720(t4)
9d0093d0:	31590200 	andi	t9,t2,0x200
9d0093d4:	1720ffe1 	bnez	t9,9d00935c <printi+0x478>
9d0093d8:	00000000 	nop
9d0093dc:	adcf2220 	sw	t7,8736(t6)
9d0093e0:	1000ff57 	b	9d009140 <printi+0x25c>
9d0093e4:	2508ffff 	addiu	t0,t0,-1
9d0093e8:	00003021 	move	a2,zero
9d0093ec:	01066823 	subu	t5,t0,a2
9d0093f0:	24190020 	li	t9,32
9d0093f4:	31480002 	andi	t0,t2,0x2
9d0093f8:	240f0030 	li	t7,48
9d0093fc:	314a0001 	andi	t2,t2,0x1
9d009400:	0328780a 	movz	t7,t9,t0
9d009404:	1540ff73 	bnez	t2,9d0091d4 <printi+0x2f0>
9d009408:	01a04021 	move	t0,t5
9d00940c:	1000ff40 	b	9d009110 <printi+0x22c>
9d009410:	00000000 	nop
9d009414:	a06cffff 	sb	t4,-1(v1)
9d009418:	00005821 	move	t3,zero
9d00941c:	1d00ff14 	bgtz	t0,9d009070 <printi+0x18c>
9d009420:	2463ffff 	addiu	v1,v1,-1
9d009424:	314a0001 	andi	t2,t2,0x1
9d009428:	15400045 	bnez	t2,9d009540 <printi+0x65c>
9d00942c:	906c0000 	lbu	t4,0(v1)
9d009430:	240f0020 	li	t7,32
9d009434:	1000ff45 	b	9d00914c <printi+0x268>
9d009438:	00006821 	move	t5,zero
9d00943c:	240b0030 	li	t3,48
9d009440:	a3ab0000 	sb	t3,0(sp)
9d009444:	19000041 	blez	t0,9d00954c <printi+0x668>
9d009448:	a3a00001 	sb	zero,1(sp)
9d00944c:	00001021 	move	v0,zero
9d009450:	24420001 	addiu	v0,v0,1
9d009454:	7fa2c18a 	lbux	t8,v0(sp)
9d009458:	1300001d 	beqz	t8,9d0094d0 <printi+0x5ec>
9d00945c:	00403821 	move	a3,v0
9d009460:	24420001 	addiu	v0,v0,1
9d009464:	7fa2318a 	lbux	a2,v0(sp)
9d009468:	10c0001a 	beqz	a2,9d0094d4 <printi+0x5f0>
9d00946c:	0048682a 	slt	t5,v0,t0
9d009470:	24e20002 	addiu	v0,a3,2
9d009474:	7fa2618a 	lbux	t4,v0(sp)
9d009478:	11800016 	beqz	t4,9d0094d4 <printi+0x5f0>
9d00947c:	0048682a 	slt	t5,v0,t0
9d009480:	24e20003 	addiu	v0,a3,3
9d009484:	7fa2c98a 	lbux	t9,v0(sp)
9d009488:	13200012 	beqz	t9,9d0094d4 <printi+0x5f0>
9d00948c:	0048682a 	slt	t5,v0,t0
9d009490:	24e20004 	addiu	v0,a3,4
9d009494:	7fa2198a 	lbux	v1,v0(sp)
9d009498:	1060000e 	beqz	v1,9d0094d4 <printi+0x5f0>
9d00949c:	0048682a 	slt	t5,v0,t0
9d0094a0:	24e20005 	addiu	v0,a3,5
9d0094a4:	7fa2498a 	lbux	t1,v0(sp)
9d0094a8:	1120000a 	beqz	t1,9d0094d4 <printi+0x5f0>
9d0094ac:	0048682a 	slt	t5,v0,t0
9d0094b0:	24e20006 	addiu	v0,a3,6
9d0094b4:	7fa2298a 	lbux	a1,v0(sp)
9d0094b8:	10a00006 	beqz	a1,9d0094d4 <printi+0x5f0>
9d0094bc:	0048682a 	slt	t5,v0,t0
9d0094c0:	24e20007 	addiu	v0,a3,7
9d0094c4:	7fa2598a 	lbux	t3,v0(sp)
9d0094c8:	5560ffe2 	bnezl	t3,9d009454 <printi+0x570>
9d0094cc:	24420001 	addiu	v0,v0,1
9d0094d0:	0048682a 	slt	t5,v0,t0
9d0094d4:	314f0002 	andi	t7,t2,0x2
9d0094d8:	01024023 	subu	t0,t0,v0
9d0094dc:	240e0020 	li	t6,32
9d0094e0:	24180030 	li	t8,48
9d0094e4:	314a0001 	andi	t2,t2,0x1
9d0094e8:	000d400a 	movz	t0,zero,t5
9d0094ec:	154000a3 	bnez	t2,9d00977c <printi+0x898>
9d0094f0:	030f700b 	movn	t6,t8,t7
9d0094f4:	190000a1 	blez	t0,9d00977c <printi+0x898>
9d0094f8:	01001821 	move	v1,t0
9d0094fc:	3c07bf82 	lui	a3,0xbf82
9d009500:	3c06bf82 	lui	a2,0xbf82
9d009504:	1080007a 	beqz	a0,9d0096f0 <printi+0x80c>
9d009508:	00000000 	nop
9d00950c:	8c8d0000 	lw	t5,0(a0)
9d009510:	a1ae0000 	sb	t6,0(t5)
9d009514:	8c8f0000 	lw	t7,0(a0)
9d009518:	25ea0001 	addiu	t2,t7,1
9d00951c:	ac8a0000 	sw	t2,0(a0)
9d009520:	2463ffff 	addiu	v1,v1,-1
9d009524:	1460fff7 	bnez	v1,9d009504 <printi+0x620>
9d009528:	00000000 	nop
9d00952c:	93af0000 	lbu	t7,0(sp)
9d009530:	11e000ba 	beqz	t7,9d00981c <printi+0x938>
9d009534:	01006821 	move	t5,t0
9d009538:	10000007 	b	9d009558 <printi+0x674>
9d00953c:	00004021 	move	t0,zero
9d009540:	00006821 	move	t5,zero
9d009544:	1000ff01 	b	9d00914c <printi+0x268>
9d009548:	240f0020 	li	t7,32
9d00954c:	00006821 	move	t5,zero
9d009550:	240f0030 	li	t7,48
9d009554:	240e0020 	li	t6,32
9d009558:	03a01821 	move	v1,sp
9d00955c:	3c07bf82 	lui	a3,0xbf82
9d009560:	3c18bf82 	lui	t8,0xbf82
9d009564:	1080003f 	beqz	a0,9d009664 <printi+0x780>
9d009568:	00000000 	nop
9d00956c:	8c860000 	lw	a2,0(a0)
9d009570:	a0cf0000 	sb	t7,0(a2)
9d009574:	8c8f0000 	lw	t7,0(a0)
9d009578:	25ec0001 	addiu	t4,t7,1
9d00957c:	ac8c0000 	sw	t4,0(a0)
9d009580:	24630001 	addiu	v1,v1,1
9d009584:	906f0000 	lbu	t7,0(v1)
9d009588:	15e0fff6 	bnez	t7,9d009564 <printi+0x680>
9d00958c:	25ad0001 	addiu	t5,t5,1
9d009590:	1900ff0e 	blez	t0,9d0091cc <printi+0x2e8>
9d009594:	01a01021 	move	v0,t5
9d009598:	01001821 	move	v1,t0
9d00959c:	3c07bf82 	lui	a3,0xbf82
9d0095a0:	3c18bf82 	lui	t8,0xbf82
9d0095a4:	1080000c 	beqz	a0,9d0095d8 <printi+0x6f4>
9d0095a8:	00000000 	nop
9d0095ac:	8c8f0000 	lw	t7,0(a0)
9d0095b0:	a1ee0000 	sb	t6,0(t7)
9d0095b4:	8c8c0000 	lw	t4,0(a0)
9d0095b8:	25990001 	addiu	t9,t4,1
9d0095bc:	ac990000 	sw	t9,0(a0)
9d0095c0:	2463ffff 	addiu	v1,v1,-1
9d0095c4:	1460fff7 	bnez	v1,9d0095a4 <printi+0x6c0>
9d0095c8:	00000000 	nop
9d0095cc:	01a81021 	addu	v0,t5,t0
9d0095d0:	03e00008 	jr	ra
9d0095d4:	27bd0020 	addiu	sp,sp,32
9d0095d8:	8cf92210 	lw	t9,8720(a3)
9d0095dc:	33290200 	andi	t1,t9,0x200
9d0095e0:	1120001d 	beqz	t1,9d009658 <printi+0x774>
9d0095e4:	00000000 	nop
9d0095e8:	8ce52210 	lw	a1,8720(a3)
9d0095ec:	30a20200 	andi	v0,a1,0x200
9d0095f0:	10400019 	beqz	v0,9d009658 <printi+0x774>
9d0095f4:	00000000 	nop
9d0095f8:	8ceb2210 	lw	t3,8720(a3)
9d0095fc:	316a0200 	andi	t2,t3,0x200
9d009600:	11400015 	beqz	t2,9d009658 <printi+0x774>
9d009604:	00000000 	nop
9d009608:	8ce62210 	lw	a2,8720(a3)
9d00960c:	30cf0200 	andi	t7,a2,0x200
9d009610:	11e00011 	beqz	t7,9d009658 <printi+0x774>
9d009614:	00000000 	nop
9d009618:	8cec2210 	lw	t4,8720(a3)
9d00961c:	31990200 	andi	t9,t4,0x200
9d009620:	1320000d 	beqz	t9,9d009658 <printi+0x774>
9d009624:	00000000 	nop
9d009628:	8ce92210 	lw	t1,8720(a3)
9d00962c:	31250200 	andi	a1,t1,0x200
9d009630:	10a00009 	beqz	a1,9d009658 <printi+0x774>
9d009634:	00000000 	nop
9d009638:	8ce22210 	lw	v0,8720(a3)
9d00963c:	304b0200 	andi	t3,v0,0x200
9d009640:	11600005 	beqz	t3,9d009658 <printi+0x774>
9d009644:	00000000 	nop
9d009648:	8cea2210 	lw	t2,8720(a3)
9d00964c:	31460200 	andi	a2,t2,0x200
9d009650:	14c0ffe1 	bnez	a2,9d0095d8 <printi+0x6f4>
9d009654:	00000000 	nop
9d009658:	af0e2220 	sw	t6,8736(t8)
9d00965c:	1000ffd9 	b	9d0095c4 <printi+0x6e0>
9d009660:	2463ffff 	addiu	v1,v1,-1
9d009664:	8ce62210 	lw	a2,8720(a3)
9d009668:	30cc0200 	andi	t4,a2,0x200
9d00966c:	1180001d 	beqz	t4,9d0096e4 <printi+0x800>
9d009670:	00000000 	nop
9d009674:	8cf92210 	lw	t9,8720(a3)
9d009678:	33290200 	andi	t1,t9,0x200
9d00967c:	11200019 	beqz	t1,9d0096e4 <printi+0x800>
9d009680:	00000000 	nop
9d009684:	8ce52210 	lw	a1,8720(a3)
9d009688:	30a20200 	andi	v0,a1,0x200
9d00968c:	10400015 	beqz	v0,9d0096e4 <printi+0x800>
9d009690:	00000000 	nop
9d009694:	8ceb2210 	lw	t3,8720(a3)
9d009698:	316a0200 	andi	t2,t3,0x200
9d00969c:	11400011 	beqz	t2,9d0096e4 <printi+0x800>
9d0096a0:	00000000 	nop
9d0096a4:	8ce62210 	lw	a2,8720(a3)
9d0096a8:	30cc0200 	andi	t4,a2,0x200
9d0096ac:	1180000d 	beqz	t4,9d0096e4 <printi+0x800>
9d0096b0:	00000000 	nop
9d0096b4:	8cf92210 	lw	t9,8720(a3)
9d0096b8:	33290200 	andi	t1,t9,0x200
9d0096bc:	11200009 	beqz	t1,9d0096e4 <printi+0x800>
9d0096c0:	00000000 	nop
9d0096c4:	8ce52210 	lw	a1,8720(a3)
9d0096c8:	30a20200 	andi	v0,a1,0x200
9d0096cc:	10400005 	beqz	v0,9d0096e4 <printi+0x800>
9d0096d0:	00000000 	nop
9d0096d4:	8ceb2210 	lw	t3,8720(a3)
9d0096d8:	316a0200 	andi	t2,t3,0x200
9d0096dc:	1540ffe1 	bnez	t2,9d009664 <printi+0x780>
9d0096e0:	00000000 	nop
9d0096e4:	af0f2220 	sw	t7,8736(t8)
9d0096e8:	1000ffa6 	b	9d009584 <printi+0x6a0>
9d0096ec:	24630001 	addiu	v1,v1,1
9d0096f0:	8cec2210 	lw	t4,8720(a3)
9d0096f4:	31990200 	andi	t9,t4,0x200
9d0096f8:	1320001d 	beqz	t9,9d009770 <printi+0x88c>
9d0096fc:	00000000 	nop
9d009700:	8ce92210 	lw	t1,8720(a3)
9d009704:	31250200 	andi	a1,t1,0x200
9d009708:	10a00019 	beqz	a1,9d009770 <printi+0x88c>
9d00970c:	00000000 	nop
9d009710:	8ce22210 	lw	v0,8720(a3)
9d009714:	304b0200 	andi	t3,v0,0x200
9d009718:	11600015 	beqz	t3,9d009770 <printi+0x88c>
9d00971c:	00000000 	nop
9d009720:	8ced2210 	lw	t5,8720(a3)
9d009724:	31af0200 	andi	t7,t5,0x200
9d009728:	11e00011 	beqz	t7,9d009770 <printi+0x88c>
9d00972c:	00000000 	nop
9d009730:	8cea2210 	lw	t2,8720(a3)
9d009734:	31580200 	andi	t8,t2,0x200
9d009738:	1300000d 	beqz	t8,9d009770 <printi+0x88c>
9d00973c:	00000000 	nop
9d009740:	8cec2210 	lw	t4,8720(a3)
9d009744:	31990200 	andi	t9,t4,0x200
9d009748:	13200009 	beqz	t9,9d009770 <printi+0x88c>
9d00974c:	00000000 	nop
9d009750:	8ce92210 	lw	t1,8720(a3)
9d009754:	31250200 	andi	a1,t1,0x200
9d009758:	10a00005 	beqz	a1,9d009770 <printi+0x88c>
9d00975c:	00000000 	nop
9d009760:	8ce22210 	lw	v0,8720(a3)
9d009764:	304b0200 	andi	t3,v0,0x200
9d009768:	1560ffe1 	bnez	t3,9d0096f0 <printi+0x80c>
9d00976c:	00000000 	nop
9d009770:	acce2220 	sw	t6,8736(a2)
9d009774:	1000ff6b 	b	9d009524 <printi+0x640>
9d009778:	2463ffff 	addiu	v1,v1,-1
9d00977c:	00006821 	move	t5,zero
9d009780:	1000ff75 	b	9d009558 <printi+0x674>
9d009784:	240f0030 	li	t7,48
9d009788:	3c0ebf82 	lui	t6,0xbf82
9d00978c:	8dc52210 	lw	a1,8720(t6)
9d009790:	30ad0200 	andi	t5,a1,0x200
9d009794:	11a0001d 	beqz	t5,9d00980c <printi+0x928>
9d009798:	2419002d 	li	t9,45
9d00979c:	8dcb2210 	lw	t3,8720(t6)
9d0097a0:	316f0200 	andi	t7,t3,0x200
9d0097a4:	11e00019 	beqz	t7,9d00980c <printi+0x928>
9d0097a8:	00000000 	nop
9d0097ac:	8dd82210 	lw	t8,8720(t6)
9d0097b0:	33190200 	andi	t9,t8,0x200
9d0097b4:	53200015 	beqzl	t9,9d00980c <printi+0x928>
9d0097b8:	2419002d 	li	t9,45
9d0097bc:	8dc72210 	lw	a3,8720(t6)
9d0097c0:	30e90200 	andi	t1,a3,0x200
9d0097c4:	51200011 	beqzl	t1,9d00980c <printi+0x928>
9d0097c8:	2419002d 	li	t9,45
9d0097cc:	8dc22210 	lw	v0,8720(t6)
9d0097d0:	30460200 	andi	a2,v0,0x200
9d0097d4:	50c0000d 	beqzl	a2,9d00980c <printi+0x928>
9d0097d8:	2419002d 	li	t9,45
9d0097dc:	8dcc2210 	lw	t4,8720(t6)
9d0097e0:	31850200 	andi	a1,t4,0x200
9d0097e4:	50a00009 	beqzl	a1,9d00980c <printi+0x928>
9d0097e8:	2419002d 	li	t9,45
9d0097ec:	8dcd2210 	lw	t5,8720(t6)
9d0097f0:	31ab0200 	andi	t3,t5,0x200
9d0097f4:	11600005 	beqz	t3,9d00980c <printi+0x928>
9d0097f8:	2419002d 	li	t9,45
9d0097fc:	8dcf2210 	lw	t7,8720(t6)
9d009800:	31f80200 	andi	t8,t7,0x200
9d009804:	1700ffe1 	bnez	t8,9d00978c <printi+0x8a8>
9d009808:	00000000 	nop
9d00980c:	add92220 	sw	t9,8736(t6)
9d009810:	240b0001 	li	t3,1
9d009814:	1000fe14 	b	9d009068 <printi+0x184>
9d009818:	2508ffff 	addiu	t0,t0,-1
9d00981c:	1000fe6b 	b	9d0091cc <printi+0x2e8>
9d009820:	01001021 	move	v0,t0

9d009824 <print>:
9d009824:	27bdff78 	addiu	sp,sp,-136
9d009828:	afb00060 	sw	s0,96(sp)
9d00982c:	afbf0084 	sw	ra,132(sp)
9d009830:	afbe0080 	sw	s8,128(sp)
9d009834:	afb7007c 	sw	s7,124(sp)
9d009838:	afb60078 	sw	s6,120(sp)
9d00983c:	afb50074 	sw	s5,116(sp)
9d009840:	afb40070 	sw	s4,112(sp)
9d009844:	afb3006c 	sw	s3,108(sp)
9d009848:	afb20068 	sw	s2,104(sp)
9d00984c:	afb10064 	sw	s1,100(sp)
9d009850:	90ae0000 	lbu	t6,0(a1)
9d009854:	00808021 	move	s0,a0
9d009858:	11c00567 	beqz	t6,9d00adf8 <print+0x15d4>
9d00985c:	afa60090 	sw	a2,144(sp)
9d009860:	3c039d01 	lui	v1,0x9d01
9d009864:	8c6404ec 	lw	a0,1260(v1)
9d009868:	0000b821 	move	s7,zero
9d00986c:	3c069d01 	lui	a2,0x9d01
9d009870:	afa40058 	sw	a0,88(sp)
9d009874:	24de046c 	addiu	s8,a2,1132
9d009878:	02e0b021 	move	s6,s7
9d00987c:	24080025 	li	t0,37
9d009880:	11c80042 	beq	t6,t0,9d00998c <print+0x168>
9d009884:	01c03821 	move	a3,t6
9d009888:	1200001c 	beqz	s0,9d0098fc <print+0xd8>
9d00988c:	00a08821 	move	s1,a1
9d009890:	8e130000 	lw	s3,0(s0)
9d009894:	a2670000 	sb	a3,0(s3)
9d009898:	8e070000 	lw	a3,0(s0)
9d00989c:	24f50001 	addiu	s5,a3,1
9d0098a0:	ae150000 	sw	s5,0(s0)
9d0098a4:	26d60001 	addiu	s6,s6,1
9d0098a8:	922e0001 	lbu	t6,1(s1)
9d0098ac:	15c0fff3 	bnez	t6,9d00987c <print+0x58>
9d0098b0:	26250001 	addiu	a1,s1,1
9d0098b4:	02c0f021 	move	s8,s6
9d0098b8:	12000004 	beqz	s0,9d0098cc <print+0xa8>
9d0098bc:	8fbf0084 	lw	ra,132(sp)
9d0098c0:	8e100000 	lw	s0,0(s0)
9d0098c4:	a2000000 	sb	zero,0(s0)
9d0098c8:	8fbf0084 	lw	ra,132(sp)
9d0098cc:	03c01021 	move	v0,s8
9d0098d0:	8fb7007c 	lw	s7,124(sp)
9d0098d4:	8fbe0080 	lw	s8,128(sp)
9d0098d8:	8fb60078 	lw	s6,120(sp)
9d0098dc:	8fb50074 	lw	s5,116(sp)
9d0098e0:	8fb40070 	lw	s4,112(sp)
9d0098e4:	8fb3006c 	lw	s3,108(sp)
9d0098e8:	8fb20068 	lw	s2,104(sp)
9d0098ec:	8fb10064 	lw	s1,100(sp)
9d0098f0:	8fb00060 	lw	s0,96(sp)
9d0098f4:	03e00008 	jr	ra
9d0098f8:	27bd0088 	addiu	sp,sp,136
9d0098fc:	3c11bf82 	lui	s1,0xbf82
9d009900:	8e2e2210 	lw	t6,8720(s1)
9d009904:	31d80200 	andi	t8,t6,0x200
9d009908:	1300001d 	beqz	t8,9d009980 <print+0x15c>
9d00990c:	00000000 	nop
9d009910:	8e222210 	lw	v0,8720(s1)
9d009914:	304a0200 	andi	t2,v0,0x200
9d009918:	11400019 	beqz	t2,9d009980 <print+0x15c>
9d00991c:	00000000 	nop
9d009920:	8e2c2210 	lw	t4,8720(s1)
9d009924:	318f0200 	andi	t7,t4,0x200
9d009928:	11e00015 	beqz	t7,9d009980 <print+0x15c>
9d00992c:	00000000 	nop
9d009930:	8e262210 	lw	a2,8720(s1)
9d009934:	30d20200 	andi	s2,a2,0x200
9d009938:	12400011 	beqz	s2,9d009980 <print+0x15c>
9d00993c:	00000000 	nop
9d009940:	8e3f2210 	lw	ra,8720(s1)
9d009944:	33ed0200 	andi	t5,ra,0x200
9d009948:	11a0000d 	beqz	t5,9d009980 <print+0x15c>
9d00994c:	00000000 	nop
9d009950:	8e392210 	lw	t9,8720(s1)
9d009954:	33340200 	andi	s4,t9,0x200
9d009958:	12800009 	beqz	s4,9d009980 <print+0x15c>
9d00995c:	00000000 	nop
9d009960:	8e292210 	lw	t1,8720(s1)
9d009964:	31230200 	andi	v1,t1,0x200
9d009968:	10600005 	beqz	v1,9d009980 <print+0x15c>
9d00996c:	00000000 	nop
9d009970:	8e2b2210 	lw	t3,8720(s1)
9d009974:	31680200 	andi	t0,t3,0x200
9d009978:	1500ffe1 	bnez	t0,9d009900 <print+0xdc>
9d00997c:	00000000 	nop
9d009980:	ae272220 	sw	a3,8736(s1)
9d009984:	1000ffc7 	b	9d0098a4 <print+0x80>
9d009988:	00a08821 	move	s1,a1
9d00998c:	90ab0001 	lbu	t3,1(a1)
9d009990:	1160ffc8 	beqz	t3,9d0098b4 <print+0x90>
9d009994:	24b10001 	addiu	s1,a1,1
9d009998:	116e00e6 	beq	t3,t6,9d009d34 <print+0x510>
9d00999c:	2402002d 	li	v0,45
9d0099a0:	116200e6 	beq	t3,v0,9d009d3c <print+0x518>
9d0099a4:	00006021 	move	t4,zero
9d0099a8:	24050030 	li	a1,48
9d0099ac:	15650024 	bne	t3,a1,9d009a40 <print+0x21c>
9d0099b0:	2579ffd0 	addiu	t9,t3,-48
9d0099b4:	24090030 	li	t1,48
9d0099b8:	26310001 	addiu	s1,s1,1
9d0099bc:	922b0000 	lbu	t3,0(s1)
9d0099c0:	02205021 	move	t2,s1
9d0099c4:	1569001d 	bne	t3,t1,9d009a3c <print+0x218>
9d0099c8:	358c0002 	ori	t4,t4,0x2
9d0099cc:	26310001 	addiu	s1,s1,1
9d0099d0:	922b0000 	lbu	t3,0(s1)
9d0099d4:	15690019 	bne	t3,t1,9d009a3c <print+0x218>
9d0099d8:	358c0002 	ori	t4,t4,0x2
9d0099dc:	914b0002 	lbu	t3,2(t2)
9d0099e0:	25510002 	addiu	s1,t2,2
9d0099e4:	15690015 	bne	t3,t1,9d009a3c <print+0x218>
9d0099e8:	358c0002 	ori	t4,t4,0x2
9d0099ec:	914b0003 	lbu	t3,3(t2)
9d0099f0:	25510003 	addiu	s1,t2,3
9d0099f4:	15690011 	bne	t3,t1,9d009a3c <print+0x218>
9d0099f8:	358c0002 	ori	t4,t4,0x2
9d0099fc:	914b0004 	lbu	t3,4(t2)
9d009a00:	25510004 	addiu	s1,t2,4
9d009a04:	1569000d 	bne	t3,t1,9d009a3c <print+0x218>
9d009a08:	358c0002 	ori	t4,t4,0x2
9d009a0c:	914b0005 	lbu	t3,5(t2)
9d009a10:	25510005 	addiu	s1,t2,5
9d009a14:	15690009 	bne	t3,t1,9d009a3c <print+0x218>
9d009a18:	358c0002 	ori	t4,t4,0x2
9d009a1c:	914b0006 	lbu	t3,6(t2)
9d009a20:	25510006 	addiu	s1,t2,6
9d009a24:	15690005 	bne	t3,t1,9d009a3c <print+0x218>
9d009a28:	358c0002 	ori	t4,t4,0x2
9d009a2c:	914b0007 	lbu	t3,7(t2)
9d009a30:	25510007 	addiu	s1,t2,7
9d009a34:	1169ffe0 	beq	t3,t1,9d0099b8 <print+0x194>
9d009a38:	358c0002 	ori	t4,t4,0x2
9d009a3c:	2579ffd0 	addiu	t9,t3,-48
9d009a40:	332d00ff 	andi	t5,t9,0xff
9d009a44:	2dae000a 	sltiu	t6,t5,10
9d009a48:	11c00052 	beqz	t6,9d009b94 <print+0x370>
9d009a4c:	00001021 	move	v0,zero
9d009a50:	26310001 	addiu	s1,s1,1
9d009a54:	922b0000 	lbu	t3,0(s1)
9d009a58:	00027840 	sll	t7,v0,0x1
9d009a5c:	000290c0 	sll	s2,v0,0x3
9d009a60:	2573ffd0 	addiu	s3,t3,-48
9d009a64:	01f2a821 	addu	s5,t7,s2
9d009a68:	03351021 	addu	v0,t9,s5
9d009a6c:	327400ff 	andi	s4,s3,0xff
9d009a70:	0002c840 	sll	t9,v0,0x1
9d009a74:	0002f8c0 	sll	ra,v0,0x3
9d009a78:	2e98000a 	sltiu	t8,s4,10
9d009a7c:	033f1821 	addu	v1,t9,ra
9d009a80:	13000044 	beqz	t8,9d009b94 <print+0x370>
9d009a84:	02202021 	move	a0,s1
9d009a88:	26310001 	addiu	s1,s1,1
9d009a8c:	922b0000 	lbu	t3,0(s1)
9d009a90:	02631021 	addu	v0,s3,v1
9d009a94:	0002b840 	sll	s7,v0,0x1
9d009a98:	2566ffd0 	addiu	a2,t3,-48
9d009a9c:	30c700ff 	andi	a3,a2,0xff
9d009aa0:	2ce5000a 	sltiu	a1,a3,10
9d009aa4:	10a0003b 	beqz	a1,9d009b94 <print+0x370>
9d009aa8:	000240c0 	sll	t0,v0,0x3
9d009aac:	908b0002 	lbu	t3,2(a0)
9d009ab0:	02e81021 	addu	v0,s7,t0
9d009ab4:	00c21021 	addu	v0,a2,v0
9d009ab8:	256affd0 	addiu	t2,t3,-48
9d009abc:	315100ff 	andi	s1,t2,0xff
9d009ac0:	00026840 	sll	t5,v0,0x1
9d009ac4:	000248c0 	sll	t1,v0,0x3
9d009ac8:	2e2e000a 	sltiu	t6,s1,10
9d009acc:	01a97821 	addu	t7,t5,t1
9d009ad0:	11c00030 	beqz	t6,9d009b94 <print+0x370>
9d009ad4:	24910002 	addiu	s1,a0,2
9d009ad8:	908b0003 	lbu	t3,3(a0)
9d009adc:	014f1021 	addu	v0,t2,t7
9d009ae0:	00029040 	sll	s2,v0,0x1
9d009ae4:	2573ffd0 	addiu	s3,t3,-48
9d009ae8:	327400ff 	andi	s4,s3,0xff
9d009aec:	0002a8c0 	sll	s5,v0,0x3
9d009af0:	2e98000a 	sltiu	t8,s4,10
9d009af4:	0255c821 	addu	t9,s2,s5
9d009af8:	13000026 	beqz	t8,9d009b94 <print+0x370>
9d009afc:	24910003 	addiu	s1,a0,3
9d009b00:	908b0004 	lbu	t3,4(a0)
9d009b04:	02791021 	addu	v0,s3,t9
9d009b08:	0002f840 	sll	ra,v0,0x1
9d009b0c:	2563ffd0 	addiu	v1,t3,-48
9d009b10:	307700ff 	andi	s7,v1,0xff
9d009b14:	000230c0 	sll	a2,v0,0x3
9d009b18:	2ee7000a 	sltiu	a3,s7,10
9d009b1c:	03e64021 	addu	t0,ra,a2
9d009b20:	10e0001c 	beqz	a3,9d009b94 <print+0x370>
9d009b24:	24910004 	addiu	s1,a0,4
9d009b28:	908b0005 	lbu	t3,5(a0)
9d009b2c:	00681021 	addu	v0,v1,t0
9d009b30:	000288c0 	sll	s1,v0,0x3
9d009b34:	256dffd0 	addiu	t5,t3,-48
9d009b38:	31a500ff 	andi	a1,t5,0xff
9d009b3c:	00025040 	sll	t2,v0,0x1
9d009b40:	2ca9000a 	sltiu	t1,a1,10
9d009b44:	01517021 	addu	t6,t2,s1
9d009b48:	11200012 	beqz	t1,9d009b94 <print+0x370>
9d009b4c:	24910005 	addiu	s1,a0,5
9d009b50:	908b0006 	lbu	t3,6(a0)
9d009b54:	01ae1021 	addu	v0,t5,t6
9d009b58:	00027840 	sll	t7,v0,0x1
9d009b5c:	2572ffd0 	addiu	s2,t3,-48
9d009b60:	325300ff 	andi	s3,s2,0xff
9d009b64:	0002a0c0 	sll	s4,v0,0x3
9d009b68:	2e75000a 	sltiu	s5,s3,10
9d009b6c:	01f4c021 	addu	t8,t7,s4
9d009b70:	12a00008 	beqz	s5,9d009b94 <print+0x370>
9d009b74:	24910006 	addiu	s1,a0,6
9d009b78:	908b0007 	lbu	t3,7(a0)
9d009b7c:	24910007 	addiu	s1,a0,7
9d009b80:	2579ffd0 	addiu	t9,t3,-48
9d009b84:	332400ff 	andi	a0,t9,0xff
9d009b88:	2c9f000a 	sltiu	ra,a0,10
9d009b8c:	17e0ffb0 	bnez	ra,9d009a50 <print+0x22c>
9d009b90:	02581021 	addu	v0,s2,t8
9d009b94:	24030073 	li	v1,115
9d009b98:	1163006c 	beq	t3,v1,9d009d4c <print+0x528>
9d009b9c:	24170064 	li	s7,100
9d009ba0:	11770377 	beq	t3,s7,9d00a980 <print+0x115c>
9d009ba4:	24060078 	li	a2,120
9d009ba8:	11660383 	beq	t3,a2,9d00a9b8 <print+0x1194>
9d009bac:	24070058 	li	a3,88
9d009bb0:	1167038f 	beq	t3,a3,9d00a9f0 <print+0x11cc>
9d009bb4:	24080075 	li	t0,117
9d009bb8:	1168039f 	beq	t3,t0,9d00aa38 <print+0x1214>
9d009bbc:	240a0063 	li	t2,99
9d009bc0:	116a03b1 	beq	t3,t2,9d00aa88 <print+0x1264>
9d009bc4:	8fb40090 	lw	s4,144(sp)
9d009bc8:	240c0047 	li	t4,71
9d009bcc:	116c010d 	beq	t3,t4,9d00a004 <print+0x7e0>
9d009bd0:	2d620048 	sltiu	v0,t3,72
9d009bd4:	10400363 	beqz	v0,9d00a964 <print+0x1140>
9d009bd8:	240d002e 	li	t5,46
9d009bdc:	156d0106 	bne	t3,t5,9d009ff8 <print+0x7d4>
9d009be0:	8fb20090 	lw	s2,144(sp)
9d009be4:	922b0001 	lbu	t3,1(s1)
9d009be8:	00002821 	move	a1,zero
9d009bec:	8e540000 	lw	s4,0(s2)
9d009bf0:	26530004 	addiu	s3,s2,4
9d009bf4:	26310002 	addiu	s1,s1,2
9d009bf8:	02802021 	move	a0,s4
9d009bfc:	2575ffd0 	addiu	s5,t3,-48
9d009c00:	0f403662 	jal	9d00d988 <__ltsf2>
9d009c04:	afb30090 	sw	s3,144(sp)
9d009c08:	04400108 	bltz	v0,9d00a02c <print+0x808>
9d009c0c:	3c18bf82 	lui	t8,0xbf82
9d009c10:	0f403746 	jal	9d00dd18 <__fixsfsi>
9d009c14:	02802021 	move	a0,s4
9d009c18:	3c136666 	lui	s3,0x6666
9d009c1c:	afa20054 	sw	v0,84(sp)
9d009c20:	00402021 	move	a0,v0
9d009c24:	26786667 	addiu	t8,s3,26215
9d009c28:	27a60020 	addiu	a2,sp,32
9d009c2c:	00980018 	mult	a0,t8
9d009c30:	0004cfc3 	sra	t9,a0,0x1f
9d009c34:	24c50001 	addiu	a1,a2,1
9d009c38:	00a0f821 	move	ra,a1
9d009c3c:	00001810 	mfhi	v1
9d009c40:	00033883 	sra	a3,v1,0x2
9d009c44:	00f9b823 	subu	s7,a3,t9
9d009c48:	00175040 	sll	t2,s7,0x1
9d009c4c:	001760c0 	sll	t4,s7,0x3
9d009c50:	014c1021 	addu	v0,t2,t4
9d009c54:	00826823 	subu	t5,a0,v0
9d009c58:	03cd5821 	addu	t3,s8,t5
9d009c5c:	91690023 	lbu	t1,35(t3)
9d009c60:	001747c3 	sra	t0,s7,0x1f
9d009c64:	12e00145 	beqz	s7,9d00a17c <print+0x958>
9d009c68:	a0a9ffff 	sb	t1,-1(a1)
9d009c6c:	02f80018 	mult	s7,t8
9d009c70:	02e02021 	move	a0,s7
9d009c74:	00a03021 	move	a2,a1
9d009c78:	24a50001 	addiu	a1,a1,1
9d009c7c:	00001810 	mfhi	v1
9d009c80:	00033883 	sra	a3,v1,0x2
9d009c84:	00e87023 	subu	t6,a3,t0
9d009c88:	000e9040 	sll	s2,t6,0x1
9d009c8c:	000e98c0 	sll	s3,t6,0x3
9d009c90:	0253c821 	addu	t9,s2,s3
9d009c94:	02f9b823 	subu	s7,s7,t9
9d009c98:	03d74021 	addu	t0,s8,s7
9d009c9c:	910a0023 	lbu	t2,35(t0)
9d009ca0:	000e7fc3 	sra	t7,t6,0x1f
9d009ca4:	11c00135 	beqz	t6,9d00a17c <print+0x958>
9d009ca8:	a0aaffff 	sb	t2,-1(a1)
9d009cac:	01d80018 	mult	t6,t8
9d009cb0:	01c02021 	move	a0,t6
9d009cb4:	00a03021 	move	a2,a1
9d009cb8:	24a50001 	addiu	a1,a1,1
9d009cbc:	00001010 	mfhi	v0
9d009cc0:	00021883 	sra	v1,v0,0x2
9d009cc4:	006f6023 	subu	t4,v1,t7
9d009cc8:	000c5840 	sll	t3,t4,0x1
9d009ccc:	000c48c0 	sll	t1,t4,0x3
9d009cd0:	01693821 	addu	a3,t3,t1
9d009cd4:	01c77023 	subu	t6,t6,a3
9d009cd8:	03ce7821 	addu	t7,s8,t6
9d009cdc:	91f20023 	lbu	s2,35(t7)
9d009ce0:	000c6fc3 	sra	t5,t4,0x1f
9d009ce4:	11800125 	beqz	t4,9d00a17c <print+0x958>
9d009ce8:	a0b2ffff 	sb	s2,-1(a1)
9d009cec:	01980018 	mult	t4,t8
9d009cf0:	27e50003 	addiu	a1,ra,3
9d009cf4:	27e60002 	addiu	a2,ra,2
9d009cf8:	01802021 	move	a0,t4
9d009cfc:	00001010 	mfhi	v0
9d009d00:	00021883 	sra	v1,v0,0x2
9d009d04:	006df823 	subu	ra,v1,t5
9d009d08:	001f9840 	sll	s3,ra,0x1
9d009d0c:	001fc8c0 	sll	t9,ra,0x3
9d009d10:	0279b821 	addu	s7,s3,t9
9d009d14:	01974023 	subu	t0,t4,s7
9d009d18:	03c85021 	addu	t2,s8,t0
9d009d1c:	914c0023 	lbu	t4,35(t2)
9d009d20:	13e00116 	beqz	ra,9d00a17c <print+0x958>
9d009d24:	a0acffff 	sb	t4,-1(a1)
9d009d28:	00a03021 	move	a2,a1
9d009d2c:	1000ffbf 	b	9d009c2c <print+0x408>
9d009d30:	03e02021 	move	a0,ra
9d009d34:	1000fed4 	b	9d009888 <print+0x64>
9d009d38:	02202821 	move	a1,s1
9d009d3c:	240c0001 	li	t4,1
9d009d40:	24b10002 	addiu	s1,a1,2
9d009d44:	1000ff18 	b	9d0099a8 <print+0x184>
9d009d48:	90ab0002 	lbu	t3,2(a1)
9d009d4c:	8fa60090 	lw	a2,144(sp)
9d009d50:	3c129d01 	lui	s2,0x9d01
9d009d54:	265f0464 	addiu	ra,s2,1124
9d009d58:	8cc80000 	lw	t0,0(a2)
9d009d5c:	24c70004 	addiu	a3,a2,4
9d009d60:	afa70090 	sw	a3,144(sp)
9d009d64:	1040032a 	beqz	v0,9d00aa10 <print+0x11ec>
9d009d68:	03e8400a 	movz	t0,ra,t0
9d009d6c:	91030000 	lbu	v1,0(t0)
9d009d70:	106000f6 	beqz	v1,9d00a14c <print+0x928>
9d009d74:	01002821 	move	a1,t0
9d009d78:	00002021 	move	a0,zero
9d009d7c:	90ad0001 	lbu	t5,1(a1)
9d009d80:	24840001 	addiu	a0,a0,1
9d009d84:	11a00017 	beqz	t5,9d009de4 <print+0x5c0>
9d009d88:	0080c821 	move	t9,a0
9d009d8c:	90b40002 	lbu	s4,2(a1)
9d009d90:	12800014 	beqz	s4,9d009de4 <print+0x5c0>
9d009d94:	24840001 	addiu	a0,a0,1
9d009d98:	90a90003 	lbu	t1,3(a1)
9d009d9c:	11200011 	beqz	t1,9d009de4 <print+0x5c0>
9d009da0:	27240002 	addiu	a0,t9,2
9d009da4:	90ab0004 	lbu	t3,4(a1)
9d009da8:	1160000e 	beqz	t3,9d009de4 <print+0x5c0>
9d009dac:	27240003 	addiu	a0,t9,3
9d009db0:	90b30005 	lbu	s3,5(a1)
9d009db4:	1260000b 	beqz	s3,9d009de4 <print+0x5c0>
9d009db8:	27240004 	addiu	a0,t9,4
9d009dbc:	90b50006 	lbu	s5,6(a1)
9d009dc0:	12a00008 	beqz	s5,9d009de4 <print+0x5c0>
9d009dc4:	27240005 	addiu	a0,t9,5
9d009dc8:	90b70007 	lbu	s7,7(a1)
9d009dcc:	27240006 	addiu	a0,t9,6
9d009dd0:	12e00004 	beqz	s7,9d009de4 <print+0x5c0>
9d009dd4:	24a50008 	addiu	a1,a1,8
9d009dd8:	90af0000 	lbu	t7,0(a1)
9d009ddc:	15e0ffe7 	bnez	t7,9d009d7c <print+0x558>
9d009de0:	27240007 	addiu	a0,t9,7
9d009de4:	0082302a 	slt	a2,a0,v0
9d009de8:	14c000d9 	bnez	a2,9d00a150 <print+0x92c>
9d009dec:	0000c021 	move	t8,zero
9d009df0:	31920002 	andi	s2,t4,0x2
9d009df4:	24020030 	li	v0,48
9d009df8:	24070020 	li	a3,32
9d009dfc:	00f2100a 	movz	v0,a3,s2
9d009e00:	319f0001 	andi	ra,t4,0x1
9d009e04:	00407021 	move	t6,v0
9d009e08:	17e00031 	bnez	ra,9d009ed0 <print+0x6ac>
9d009e0c:	03001021 	move	v0,t8
9d009e10:	5b00000e 	blezl	t8,9d009e4c <print+0x628>
9d009e14:	0000c021 	move	t8,zero
9d009e18:	3c0abf82 	lui	t2,0xbf82
9d009e1c:	3c0cbf82 	lui	t4,0xbf82
9d009e20:	120000a7 	beqz	s0,9d00a0c0 <print+0x89c>
9d009e24:	00000000 	nop
9d009e28:	8e030000 	lw	v1,0(s0)
9d009e2c:	a06e0000 	sb	t6,0(v1)
9d009e30:	8e0d0000 	lw	t5,0(s0)
9d009e34:	25b90001 	addiu	t9,t5,1
9d009e38:	ae190000 	sw	t9,0(s0)
9d009e3c:	2442ffff 	addiu	v0,v0,-1
9d009e40:	1440fff7 	bnez	v0,9d009e20 <print+0x5fc>
9d009e44:	00000000 	nop
9d009e48:	91030000 	lbu	v1,0(t0)
9d009e4c:	5060fe96 	beqzl	v1,9d0098a8 <print+0x84>
9d009e50:	02d8b021 	addu	s6,s6,t8
9d009e54:	3c0abf82 	lui	t2,0xbf82
9d009e58:	3c0cbf82 	lui	t4,0xbf82
9d009e5c:	12000020 	beqz	s0,9d009ee0 <print+0x6bc>
9d009e60:	00000000 	nop
9d009e64:	8e090000 	lw	t1,0(s0)
9d009e68:	a1230000 	sb	v1,0(t1)
9d009e6c:	8e030000 	lw	v1,0(s0)
9d009e70:	246b0001 	addiu	t3,v1,1
9d009e74:	ae0b0000 	sw	t3,0(s0)
9d009e78:	25080001 	addiu	t0,t0,1
9d009e7c:	91030000 	lbu	v1,0(t0)
9d009e80:	1460fff6 	bnez	v1,9d009e5c <print+0x638>
9d009e84:	27180001 	addiu	t8,t8,1
9d009e88:	5840fe87 	blezl	v0,9d0098a8 <print+0x84>
9d009e8c:	02d8b021 	addu	s6,s6,t8
9d009e90:	00402021 	move	a0,v0
9d009e94:	3c0abf82 	lui	t2,0xbf82
9d009e98:	3c0cbf82 	lui	t4,0xbf82
9d009e9c:	12000033 	beqz	s0,9d009f6c <print+0x748>
9d009ea0:	00000000 	nop
9d009ea4:	8e130000 	lw	s3,0(s0)
9d009ea8:	a26e0000 	sb	t6,0(s3)
9d009eac:	8e150000 	lw	s5,0(s0)
9d009eb0:	26b70001 	addiu	s7,s5,1
9d009eb4:	ae170000 	sw	s7,0(s0)
9d009eb8:	2484ffff 	addiu	a0,a0,-1
9d009ebc:	1480fff7 	bnez	a0,9d009e9c <print+0x678>
9d009ec0:	00000000 	nop
9d009ec4:	0058c021 	addu	t8,v0,t8
9d009ec8:	1000fe77 	b	9d0098a8 <print+0x84>
9d009ecc:	02d8b021 	addu	s6,s6,t8
9d009ed0:	1460ffe0 	bnez	v1,9d009e54 <print+0x630>
9d009ed4:	0000c021 	move	t8,zero
9d009ed8:	1000ffeb 	b	9d009e88 <print+0x664>
9d009edc:	00000000 	nop
9d009ee0:	8d542210 	lw	s4,8720(t2)
9d009ee4:	32890200 	andi	t1,s4,0x200
9d009ee8:	1120001d 	beqz	t1,9d009f60 <print+0x73c>
9d009eec:	00000000 	nop
9d009ef0:	8d4b2210 	lw	t3,8720(t2)
9d009ef4:	31730200 	andi	s3,t3,0x200
9d009ef8:	12600019 	beqz	s3,9d009f60 <print+0x73c>
9d009efc:	00000000 	nop
9d009f00:	8d552210 	lw	s5,8720(t2)
9d009f04:	32b70200 	andi	s7,s5,0x200
9d009f08:	12e00015 	beqz	s7,9d009f60 <print+0x73c>
9d009f0c:	00000000 	nop
9d009f10:	8d452210 	lw	a1,8720(t2)
9d009f14:	30af0200 	andi	t7,a1,0x200
9d009f18:	11e00011 	beqz	t7,9d009f60 <print+0x73c>
9d009f1c:	00000000 	nop
9d009f20:	8d442210 	lw	a0,8720(t2)
9d009f24:	30860200 	andi	a2,a0,0x200
9d009f28:	10c0000d 	beqz	a2,9d009f60 <print+0x73c>
9d009f2c:	00000000 	nop
9d009f30:	8d522210 	lw	s2,8720(t2)
9d009f34:	325f0200 	andi	ra,s2,0x200
9d009f38:	13e00009 	beqz	ra,9d009f60 <print+0x73c>
9d009f3c:	00000000 	nop
9d009f40:	8d472210 	lw	a3,8720(t2)
9d009f44:	30ed0200 	andi	t5,a3,0x200
9d009f48:	11a00005 	beqz	t5,9d009f60 <print+0x73c>
9d009f4c:	00000000 	nop
9d009f50:	8d592210 	lw	t9,8720(t2)
9d009f54:	33340200 	andi	s4,t9,0x200
9d009f58:	1680ffe1 	bnez	s4,9d009ee0 <print+0x6bc>
9d009f5c:	00000000 	nop
9d009f60:	ad832220 	sw	v1,8736(t4)
9d009f64:	1000ffc5 	b	9d009e7c <print+0x658>
9d009f68:	25080001 	addiu	t0,t0,1
9d009f6c:	8d532210 	lw	s3,8720(t2)
9d009f70:	32750200 	andi	s5,s3,0x200
9d009f74:	12a0001d 	beqz	s5,9d009fec <print+0x7c8>
9d009f78:	00000000 	nop
9d009f7c:	8d572210 	lw	s7,8720(t2)
9d009f80:	32e50200 	andi	a1,s7,0x200
9d009f84:	10a00019 	beqz	a1,9d009fec <print+0x7c8>
9d009f88:	00000000 	nop
9d009f8c:	8d4f2210 	lw	t7,8720(t2)
9d009f90:	31e60200 	andi	a2,t7,0x200
9d009f94:	10c00015 	beqz	a2,9d009fec <print+0x7c8>
9d009f98:	00000000 	nop
9d009f9c:	8d522210 	lw	s2,8720(t2)
9d009fa0:	325f0200 	andi	ra,s2,0x200
9d009fa4:	13e00011 	beqz	ra,9d009fec <print+0x7c8>
9d009fa8:	00000000 	nop
9d009fac:	8d472210 	lw	a3,8720(t2)
9d009fb0:	30ed0200 	andi	t5,a3,0x200
9d009fb4:	11a0000d 	beqz	t5,9d009fec <print+0x7c8>
9d009fb8:	00000000 	nop
9d009fbc:	8d592210 	lw	t9,8720(t2)
9d009fc0:	33340200 	andi	s4,t9,0x200
9d009fc4:	12800009 	beqz	s4,9d009fec <print+0x7c8>
9d009fc8:	00000000 	nop
9d009fcc:	8d492210 	lw	t1,8720(t2)
9d009fd0:	31230200 	andi	v1,t1,0x200
9d009fd4:	10600005 	beqz	v1,9d009fec <print+0x7c8>
9d009fd8:	00000000 	nop
9d009fdc:	8d4b2210 	lw	t3,8720(t2)
9d009fe0:	31680200 	andi	t0,t3,0x200
9d009fe4:	1500ffe1 	bnez	t0,9d009f6c <print+0x748>
9d009fe8:	00000000 	nop
9d009fec:	ad8e2220 	sw	t6,8736(t4)
9d009ff0:	1000ffb2 	b	9d009ebc <print+0x698>
9d009ff4:	2484ffff 	addiu	a0,a0,-1
9d009ff8:	24050045 	li	a1,69
9d009ffc:	5565fe2b 	bnel	t3,a1,9d0098ac <print+0x88>
9d00a000:	922e0001 	lbu	t6,1(s1)
9d00a004:	24150006 	li	s5,6
9d00a008:	8fb20090 	lw	s2,144(sp)
9d00a00c:	00002821 	move	a1,zero
9d00a010:	8e540000 	lw	s4,0(s2)
9d00a014:	26530004 	addiu	s3,s2,4
9d00a018:	afb30090 	sw	s3,144(sp)
9d00a01c:	0f403662 	jal	9d00d988 <__ltsf2>
9d00a020:	02802021 	move	a0,s4
9d00a024:	0441fefa 	bgez	v0,9d009c10 <print+0x3ec>
9d00a028:	3c18bf82 	lui	t8,0xbf82
9d00a02c:	8f192210 	lw	t9,8720(t8)
9d00a030:	33240200 	andi	a0,t9,0x200
9d00a034:	1080001e 	beqz	a0,9d00a0b0 <print+0x88c>
9d00a038:	240f002d 	li	t7,45
9d00a03c:	8f1f2210 	lw	ra,8720(t8)
9d00a040:	33e30200 	andi	v1,ra,0x200
9d00a044:	1060001b 	beqz	v1,9d00a0b4 <print+0x890>
9d00a048:	3c128000 	lui	s2,0x8000
9d00a04c:	8f172210 	lw	s7,8720(t8)
9d00a050:	32e60200 	andi	a2,s7,0x200
9d00a054:	10c00017 	beqz	a2,9d00a0b4 <print+0x890>
9d00a058:	00000000 	nop
9d00a05c:	8f072210 	lw	a3,8720(t8)
9d00a060:	30e80200 	andi	t0,a3,0x200
9d00a064:	11000013 	beqz	t0,9d00a0b4 <print+0x890>
9d00a068:	00000000 	nop
9d00a06c:	8f0a2210 	lw	t2,8720(t8)
9d00a070:	314c0200 	andi	t4,t2,0x200
9d00a074:	1180000f 	beqz	t4,9d00a0b4 <print+0x890>
9d00a078:	00000000 	nop
9d00a07c:	8f022210 	lw	v0,8720(t8)
9d00a080:	304d0200 	andi	t5,v0,0x200
9d00a084:	11a0000b 	beqz	t5,9d00a0b4 <print+0x890>
9d00a088:	00000000 	nop
9d00a08c:	8f052210 	lw	a1,8720(t8)
9d00a090:	30ab0200 	andi	t3,a1,0x200
9d00a094:	11600007 	beqz	t3,9d00a0b4 <print+0x890>
9d00a098:	00000000 	nop
9d00a09c:	8f092210 	lw	t1,8720(t8)
9d00a0a0:	312e0200 	andi	t6,t1,0x200
9d00a0a4:	55c0ffe1 	bnezl	t6,9d00a02c <print+0x808>
9d00a0a8:	3c18bf82 	lui	t8,0xbf82
9d00a0ac:	240f002d 	li	t7,45
9d00a0b0:	3c128000 	lui	s2,0x8000
9d00a0b4:	af0f2220 	sw	t7,8736(t8)
9d00a0b8:	1000fed5 	b	9d009c10 <print+0x3ec>
9d00a0bc:	0254a026 	xor	s4,s2,s4
9d00a0c0:	8d432210 	lw	v1,8720(t2)
9d00a0c4:	306d0200 	andi	t5,v1,0x200
9d00a0c8:	11a0001d 	beqz	t5,9d00a140 <print+0x91c>
9d00a0cc:	00000000 	nop
9d00a0d0:	8d592210 	lw	t9,8720(t2)
9d00a0d4:	33340200 	andi	s4,t9,0x200
9d00a0d8:	12800019 	beqz	s4,9d00a140 <print+0x91c>
9d00a0dc:	00000000 	nop
9d00a0e0:	8d492210 	lw	t1,8720(t2)
9d00a0e4:	312b0200 	andi	t3,t1,0x200
9d00a0e8:	11600015 	beqz	t3,9d00a140 <print+0x91c>
9d00a0ec:	00000000 	nop
9d00a0f0:	8d532210 	lw	s3,8720(t2)
9d00a0f4:	32750200 	andi	s5,s3,0x200
9d00a0f8:	12a00011 	beqz	s5,9d00a140 <print+0x91c>
9d00a0fc:	00000000 	nop
9d00a100:	8d572210 	lw	s7,8720(t2)
9d00a104:	32e50200 	andi	a1,s7,0x200
9d00a108:	10a0000d 	beqz	a1,9d00a140 <print+0x91c>
9d00a10c:	00000000 	nop
9d00a110:	8d4f2210 	lw	t7,8720(t2)
9d00a114:	31e40200 	andi	a0,t7,0x200
9d00a118:	10800009 	beqz	a0,9d00a140 <print+0x91c>
9d00a11c:	00000000 	nop
9d00a120:	8d462210 	lw	a2,8720(t2)
9d00a124:	30d20200 	andi	s2,a2,0x200
9d00a128:	12400005 	beqz	s2,9d00a140 <print+0x91c>
9d00a12c:	00000000 	nop
9d00a130:	8d5f2210 	lw	ra,8720(t2)
9d00a134:	33e70200 	andi	a3,ra,0x200
9d00a138:	14e0ffe1 	bnez	a3,9d00a0c0 <print+0x89c>
9d00a13c:	00000000 	nop
9d00a140:	ad8e2220 	sw	t6,8736(t4)
9d00a144:	1000ff3e 	b	9d009e40 <print+0x61c>
9d00a148:	2442ffff 	addiu	v0,v0,-1
9d00a14c:	00002021 	move	a0,zero
9d00a150:	0044c023 	subu	t8,v0,a0
9d00a154:	31920002 	andi	s2,t4,0x2
9d00a158:	24020030 	li	v0,48
9d00a15c:	24070020 	li	a3,32
9d00a160:	00f2100a 	movz	v0,a3,s2
9d00a164:	319f0001 	andi	ra,t4,0x1
9d00a168:	00407021 	move	t6,v0
9d00a16c:	17e0ff58 	bnez	ra,9d009ed0 <print+0x6ac>
9d00a170:	03001021 	move	v0,t8
9d00a174:	1000ff26 	b	9d009e10 <print+0x5ec>
9d00a178:	00000000 	nop
9d00a17c:	0480023f 	bltz	a0,9d00aa7c <print+0x1258>
9d00a180:	2404002d 	li	a0,45
9d00a184:	24a2ffff 	addiu	v0,a1,-1
9d00a188:	27a60020 	addiu	a2,sp,32
9d00a18c:	00c2c02b 	sltu	t8,a2,v0
9d00a190:	a0a00000 	sb	zero,0(a1)
9d00a194:	13000047 	beqz	t8,9d00a2b4 <print+0xa90>
9d00a198:	27b70020 	addiu	s7,sp,32
9d00a19c:	afb60048 	sw	s6,72(sp)
9d00a1a0:	afb5004c 	sw	s5,76(sp)
9d00a1a4:	afb40050 	sw	s4,80(sp)
9d00a1a8:	90590000 	lbu	t9,0(v0)
9d00a1ac:	92ff0000 	lbu	ra,0(s7)
9d00a1b0:	2456ffff 	addiu	s6,v0,-1
9d00a1b4:	26f40001 	addiu	s4,s7,1
9d00a1b8:	0296182b 	sltu	v1,s4,s6
9d00a1bc:	244afffe 	addiu	t2,v0,-2
9d00a1c0:	26e90002 	addiu	t1,s7,2
9d00a1c4:	2448fffd 	addiu	t0,v0,-3
9d00a1c8:	26e70003 	addiu	a3,s7,3
9d00a1cc:	2446fffc 	addiu	a2,v0,-4
9d00a1d0:	26e50004 	addiu	a1,s7,4
9d00a1d4:	244efffb 	addiu	t6,v0,-5
9d00a1d8:	26ed0005 	addiu	t5,s7,5
9d00a1dc:	244cfffa 	addiu	t4,v0,-6
9d00a1e0:	26eb0006 	addiu	t3,s7,6
9d00a1e4:	a05f0000 	sb	ra,0(v0)
9d00a1e8:	012aa02b 	sltu	s4,t1,t2
9d00a1ec:	244ffff9 	addiu	t7,v0,-7
9d00a1f0:	00e8982b 	sltu	s3,a3,t0
9d00a1f4:	00a6902b 	sltu	s2,a1,a2
9d00a1f8:	01aeb02b 	sltu	s6,t5,t6
9d00a1fc:	016ca82b 	sltu	s5,t3,t4
9d00a200:	10600029 	beqz	v1,9d00a2a8 <print+0xa84>
9d00a204:	a2f90000 	sb	t9,0(s7)
9d00a208:	9044ffff 	lbu	a0,-1(v0)
9d00a20c:	92f80001 	lbu	t8,1(s7)
9d00a210:	26f90007 	addiu	t9,s7,7
9d00a214:	032ff82b 	sltu	ra,t9,t7
9d00a218:	a1580001 	sb	t8,1(t2)
9d00a21c:	12800022 	beqz	s4,9d00a2a8 <print+0xa84>
9d00a220:	a124ffff 	sb	a0,-1(t1)
9d00a224:	904afffe 	lbu	t2,-2(v0)
9d00a228:	92e90002 	lbu	t1,2(s7)
9d00a22c:	a1090001 	sb	t1,1(t0)
9d00a230:	1260001d 	beqz	s3,9d00a2a8 <print+0xa84>
9d00a234:	a0eaffff 	sb	t2,-1(a3)
9d00a238:	9048fffd 	lbu	t0,-3(v0)
9d00a23c:	92e70003 	lbu	a3,3(s7)
9d00a240:	a0c70001 	sb	a3,1(a2)
9d00a244:	12400018 	beqz	s2,9d00a2a8 <print+0xa84>
9d00a248:	a0a8ffff 	sb	t0,-1(a1)
9d00a24c:	9046fffc 	lbu	a2,-4(v0)
9d00a250:	92e50004 	lbu	a1,4(s7)
9d00a254:	a1c50001 	sb	a1,1(t6)
9d00a258:	12c00013 	beqz	s6,9d00a2a8 <print+0xa84>
9d00a25c:	a1a6ffff 	sb	a2,-1(t5)
9d00a260:	904efffb 	lbu	t6,-5(v0)
9d00a264:	92ed0005 	lbu	t5,5(s7)
9d00a268:	a18d0001 	sb	t5,1(t4)
9d00a26c:	12a0000e 	beqz	s5,9d00a2a8 <print+0xa84>
9d00a270:	a16effff 	sb	t6,-1(t3)
9d00a274:	9043fffa 	lbu	v1,-6(v0)
9d00a278:	92ec0006 	lbu	t4,6(s7)
9d00a27c:	a1ec0001 	sb	t4,1(t7)
9d00a280:	13e00009 	beqz	ra,9d00a2a8 <print+0xa84>
9d00a284:	a2e30006 	sb	v1,6(s7)
9d00a288:	904bfff9 	lbu	t3,-7(v0)
9d00a28c:	92f40007 	lbu	s4,7(s7)
9d00a290:	2442fff8 	addiu	v0,v0,-8
9d00a294:	26f70008 	addiu	s7,s7,8
9d00a298:	02e2782b 	sltu	t7,s7,v0
9d00a29c:	a0540001 	sb	s4,1(v0)
9d00a2a0:	15e0ffc1 	bnez	t7,9d00a1a8 <print+0x984>
9d00a2a4:	a2ebffff 	sb	t3,-1(s7)
9d00a2a8:	8fb60048 	lw	s6,72(sp)
9d00a2ac:	8fb5004c 	lw	s5,76(sp)
9d00a2b0:	8fb40050 	lw	s4,80(sp)
9d00a2b4:	93a40020 	lbu	a0,32(sp)
9d00a2b8:	27a50021 	addiu	a1,sp,33
9d00a2bc:	3c13bf82 	lui	s3,0xbf82
9d00a2c0:	10800027 	beqz	a0,9d00a360 <print+0xb3c>
9d00a2c4:	3c12bf82 	lui	s2,0xbf82
9d00a2c8:	8e782210 	lw	t8,8720(s3)
9d00a2cc:	33190200 	andi	t9,t8,0x200
9d00a2d0:	1320001d 	beqz	t9,9d00a348 <print+0xb24>
9d00a2d4:	00000000 	nop
9d00a2d8:	8e7f2210 	lw	ra,8720(s3)
9d00a2dc:	33ea0200 	andi	t2,ra,0x200
9d00a2e0:	11400019 	beqz	t2,9d00a348 <print+0xb24>
9d00a2e4:	00000000 	nop
9d00a2e8:	8e692210 	lw	t1,8720(s3)
9d00a2ec:	31280200 	andi	t0,t1,0x200
9d00a2f0:	11000015 	beqz	t0,9d00a348 <print+0xb24>
9d00a2f4:	00000000 	nop
9d00a2f8:	8e672210 	lw	a3,8720(s3)
9d00a2fc:	30e60200 	andi	a2,a3,0x200
9d00a300:	10c00011 	beqz	a2,9d00a348 <print+0xb24>
9d00a304:	00000000 	nop
9d00a308:	8e6e2210 	lw	t6,8720(s3)
9d00a30c:	31cd0200 	andi	t5,t6,0x200
9d00a310:	11a0000d 	beqz	t5,9d00a348 <print+0xb24>
9d00a314:	00000000 	nop
9d00a318:	8e632210 	lw	v1,8720(s3)
9d00a31c:	306c0200 	andi	t4,v1,0x200
9d00a320:	11800009 	beqz	t4,9d00a348 <print+0xb24>
9d00a324:	00000000 	nop
9d00a328:	8e6b2210 	lw	t3,8720(s3)
9d00a32c:	31620200 	andi	v0,t3,0x200
9d00a330:	10400005 	beqz	v0,9d00a348 <print+0xb24>
9d00a334:	00000000 	nop
9d00a338:	8e772210 	lw	s7,8720(s3)
9d00a33c:	32ef0200 	andi	t7,s7,0x200
9d00a340:	15e0ffe1 	bnez	t7,9d00a2c8 <print+0xaa4>
9d00a344:	00000000 	nop
9d00a348:	ae442220 	sw	a0,8736(s2)
9d00a34c:	24a50001 	addiu	a1,a1,1
9d00a350:	90a4ffff 	lbu	a0,-1(a1)
9d00a354:	1480ffdc 	bnez	a0,9d00a2c8 <print+0xaa4>
9d00a358:	00000000 	nop
9d00a35c:	3c13bf82 	lui	s3,0xbf82
9d00a360:	8e722210 	lw	s2,8720(s3)
9d00a364:	32580200 	andi	t8,s2,0x200
9d00a368:	1300001d 	beqz	t8,9d00a3e0 <print+0xbbc>
9d00a36c:	240f002e 	li	t7,46
9d00a370:	8e792210 	lw	t9,8720(s3)
9d00a374:	333f0200 	andi	ra,t9,0x200
9d00a378:	13e00019 	beqz	ra,9d00a3e0 <print+0xbbc>
9d00a37c:	00000000 	nop
9d00a380:	8e6a2210 	lw	t2,8720(s3)
9d00a384:	31490200 	andi	t1,t2,0x200
9d00a388:	11200015 	beqz	t1,9d00a3e0 <print+0xbbc>
9d00a38c:	00000000 	nop
9d00a390:	8e682210 	lw	t0,8720(s3)
9d00a394:	31070200 	andi	a3,t0,0x200
9d00a398:	10e00011 	beqz	a3,9d00a3e0 <print+0xbbc>
9d00a39c:	00000000 	nop
9d00a3a0:	8e662210 	lw	a2,8720(s3)
9d00a3a4:	30ce0200 	andi	t6,a2,0x200
9d00a3a8:	11c0000d 	beqz	t6,9d00a3e0 <print+0xbbc>
9d00a3ac:	00000000 	nop
9d00a3b0:	8e6d2210 	lw	t5,8720(s3)
9d00a3b4:	31a30200 	andi	v1,t5,0x200
9d00a3b8:	10600009 	beqz	v1,9d00a3e0 <print+0xbbc>
9d00a3bc:	00000000 	nop
9d00a3c0:	8e6c2210 	lw	t4,8720(s3)
9d00a3c4:	318b0200 	andi	t3,t4,0x200
9d00a3c8:	11600005 	beqz	t3,9d00a3e0 <print+0xbbc>
9d00a3cc:	00000000 	nop
9d00a3d0:	8e622210 	lw	v0,8720(s3)
9d00a3d4:	30570200 	andi	s7,v0,0x200
9d00a3d8:	16e0ffe1 	bnez	s7,9d00a360 <print+0xb3c>
9d00a3dc:	00000000 	nop
9d00a3e0:	ae6f2220 	sw	t7,8736(s3)
9d00a3e4:	1aa0027e 	blez	s5,9d00ade0 <print+0x15bc>
9d00a3e8:	26a5ffff 	addiu	a1,s5,-1
9d00a3ec:	24040001 	li	a0,1
9d00a3f0:	30b30007 	andi	s3,a1,0x7
9d00a3f4:	10950045 	beq	a0,s5,9d00a50c <print+0xce8>
9d00a3f8:	2412000a 	li	s2,10
9d00a3fc:	1260002a 	beqz	s3,9d00a4a8 <print+0xc84>
9d00a400:	0012f840 	sll	ra,s2,0x1
9d00a404:	12640022 	beq	s3,a0,9d00a490 <print+0xc6c>
9d00a408:	24180002 	li	t8,2
9d00a40c:	1278001c 	beq	s3,t8,9d00a480 <print+0xc5c>
9d00a410:	24190003 	li	t9,3
9d00a414:	12790016 	beq	s3,t9,9d00a470 <print+0xc4c>
9d00a418:	241f0004 	li	ra,4
9d00a41c:	127f0010 	beq	s3,ra,9d00a460 <print+0xc3c>
9d00a420:	240a0005 	li	t2,5
9d00a424:	126a000a 	beq	s3,t2,9d00a450 <print+0xc2c>
9d00a428:	24090006 	li	t1,6
9d00a42c:	02694026 	xor	t0,s3,t1
9d00a430:	24070064 	li	a3,100
9d00a434:	00e8900b 	movn	s2,a3,t0
9d00a438:	240d0002 	li	t5,2
9d00a43c:	00127040 	sll	t6,s2,0x1
9d00a440:	01a8200b 	movn	a0,t5,t0
9d00a444:	001290c0 	sll	s2,s2,0x3
9d00a448:	01d29021 	addu	s2,t6,s2
9d00a44c:	24840001 	addiu	a0,a0,1
9d00a450:	00121840 	sll	v1,s2,0x1
9d00a454:	001260c0 	sll	t4,s2,0x3
9d00a458:	006c9021 	addu	s2,v1,t4
9d00a45c:	24840001 	addiu	a0,a0,1
9d00a460:	00125840 	sll	t3,s2,0x1
9d00a464:	001210c0 	sll	v0,s2,0x3
9d00a468:	01629021 	addu	s2,t3,v0
9d00a46c:	24840001 	addiu	a0,a0,1
9d00a470:	0012b840 	sll	s7,s2,0x1
9d00a474:	001278c0 	sll	t7,s2,0x3
9d00a478:	02ef9021 	addu	s2,s7,t7
9d00a47c:	24840001 	addiu	a0,a0,1
9d00a480:	00122840 	sll	a1,s2,0x1
9d00a484:	001298c0 	sll	s3,s2,0x3
9d00a488:	00b39021 	addu	s2,a1,s3
9d00a48c:	24840001 	addiu	a0,a0,1
9d00a490:	0012c040 	sll	t8,s2,0x1
9d00a494:	0012c8c0 	sll	t9,s2,0x3
9d00a498:	24840001 	addiu	a0,a0,1
9d00a49c:	1095001b 	beq	a0,s5,9d00a50c <print+0xce8>
9d00a4a0:	03199021 	addu	s2,t8,t9
9d00a4a4:	0012f840 	sll	ra,s2,0x1
9d00a4a8:	001250c0 	sll	t2,s2,0x3
9d00a4ac:	03ea4821 	addu	t1,ra,t2
9d00a4b0:	00094040 	sll	t0,t1,0x1
9d00a4b4:	000938c0 	sll	a3,t1,0x3
9d00a4b8:	01073021 	addu	a2,t0,a3
9d00a4bc:	00067040 	sll	t6,a2,0x1
9d00a4c0:	000668c0 	sll	t5,a2,0x3
9d00a4c4:	01cd1821 	addu	v1,t6,t5
9d00a4c8:	00036040 	sll	t4,v1,0x1
9d00a4cc:	000358c0 	sll	t3,v1,0x3
9d00a4d0:	018bb821 	addu	s7,t4,t3
9d00a4d4:	00171040 	sll	v0,s7,0x1
9d00a4d8:	001778c0 	sll	t7,s7,0x3
9d00a4dc:	004f2821 	addu	a1,v0,t7
9d00a4e0:	00059840 	sll	s3,a1,0x1
9d00a4e4:	0005c0c0 	sll	t8,a1,0x3
9d00a4e8:	0278c821 	addu	t9,s3,t8
9d00a4ec:	00199040 	sll	s2,t9,0x1
9d00a4f0:	0019f8c0 	sll	ra,t9,0x3
9d00a4f4:	025f5021 	addu	t2,s2,ra
9d00a4f8:	000a4840 	sll	t1,t2,0x1
9d00a4fc:	000a40c0 	sll	t0,t2,0x3
9d00a500:	24840008 	addiu	a0,a0,8
9d00a504:	1495ffe7 	bne	a0,s5,9d00a4a4 <print+0xc80>
9d00a508:	01289021 	addu	s2,t1,t0
9d00a50c:	0f403766 	jal	9d00dd98 <__floatsisf>
9d00a510:	02402021 	move	a0,s2
9d00a514:	3c046666 	lui	a0,0x6666
9d00a518:	24876667 	addiu	a3,a0,26215
9d00a51c:	02470018 	mult	s2,a3
9d00a520:	001277c3 	sra	t6,s2,0x1f
9d00a524:	0040a821 	move	s5,v0
9d00a528:	00003010 	mfhi	a2
9d00a52c:	00061883 	sra	v1,a2,0x2
9d00a530:	006e9023 	subu	s2,v1,t6
9d00a534:	0f403766 	jal	9d00dd98 <__floatsisf>
9d00a538:	8fa40054 	lw	a0,84(sp)
9d00a53c:	00402821 	move	a1,v0
9d00a540:	0f4035de 	jal	9d00d778 <__subsf3>
9d00a544:	02802021 	move	a0,s4
9d00a548:	00402821 	move	a1,v0
9d00a54c:	0f4036a2 	jal	9d00da88 <__mulsf3>
9d00a550:	02a02021 	move	a0,s5
9d00a554:	0f403746 	jal	9d00dd18 <__fixsfsi>
9d00a558:	00402021 	move	a0,v0
9d00a55c:	0052a82a 	slt	s5,v0,s2
9d00a560:	12a00015 	beqz	s5,9d00a5b8 <print+0xd94>
9d00a564:	0040b821 	move	s7,v0
9d00a568:	3c0b6666 	lui	t3,0x6666
9d00a56c:	24140030 	li	s4,48
9d00a570:	3c0dbf82 	lui	t5,0xbf82
9d00a574:	240c0030 	li	t4,48
9d00a578:	256f6667 	addiu	t7,t3,26215
9d00a57c:	3c05bf82 	lui	a1,0xbf82
9d00a580:	12000053 	beqz	s0,9d00a6d0 <print+0xeac>
9d00a584:	024f0018 	mult	s2,t7
9d00a588:	8e130000 	lw	s3,0(s0)
9d00a58c:	a2740000 	sb	s4,0(s3)
9d00a590:	8e180000 	lw	t8,0(s0)
9d00a594:	27190001 	addiu	t9,t8,1
9d00a598:	ae190000 	sw	t9,0(s0)
9d00a59c:	001297c3 	sra	s2,s2,0x1f
9d00a5a0:	00002010 	mfhi	a0
9d00a5a4:	00043883 	sra	a3,a0,0x2
9d00a5a8:	00f29023 	subu	s2,a3,s2
9d00a5ac:	02f2f82a 	slt	ra,s7,s2
9d00a5b0:	17e0fff3 	bnez	ra,9d00a580 <print+0xd5c>
9d00a5b4:	00000000 	nop
9d00a5b8:	3c146666 	lui	s4,0x6666
9d00a5bc:	02e02021 	move	a0,s7
9d00a5c0:	268d6667 	addiu	t5,s4,26215
9d00a5c4:	27a60020 	addiu	a2,sp,32
9d00a5c8:	008d0018 	mult	a0,t5
9d00a5cc:	000467c3 	sra	t4,a0,0x1f
9d00a5d0:	24c50001 	addiu	a1,a2,1
9d00a5d4:	00a07821 	move	t7,a1
9d00a5d8:	00001810 	mfhi	v1
9d00a5dc:	00031083 	sra	v0,v1,0x2
9d00a5e0:	004c4023 	subu	t0,v0,t4
9d00a5e4:	00087040 	sll	t6,t0,0x1
9d00a5e8:	000848c0 	sll	t1,t0,0x3
9d00a5ec:	01c9a821 	addu	s5,t6,t1
9d00a5f0:	00955823 	subu	t3,a0,s5
9d00a5f4:	03cb9821 	addu	s3,s8,t3
9d00a5f8:	92780023 	lbu	t8,35(s3)
9d00a5fc:	000857c3 	sra	t2,t0,0x1f
9d00a600:	11000056 	beqz	t0,9d00a75c <print+0xf38>
9d00a604:	a0b8ffff 	sb	t8,-1(a1)
9d00a608:	010d0018 	mult	t0,t5
9d00a60c:	01002021 	move	a0,t0
9d00a610:	00a03021 	move	a2,a1
9d00a614:	24a50001 	addiu	a1,a1,1
9d00a618:	00003810 	mfhi	a3
9d00a61c:	00071883 	sra	v1,a3,0x2
9d00a620:	006ac823 	subu	t9,v1,t2
9d00a624:	0019f840 	sll	ra,t9,0x1
9d00a628:	0019a0c0 	sll	s4,t9,0x3
9d00a62c:	03f46021 	addu	t4,ra,s4
9d00a630:	010c1023 	subu	v0,t0,t4
9d00a634:	03c24021 	addu	t0,s8,v0
9d00a638:	910a0023 	lbu	t2,35(t0)
9d00a63c:	001997c3 	sra	s2,t9,0x1f
9d00a640:	13200046 	beqz	t9,9d00a75c <print+0xf38>
9d00a644:	a0aaffff 	sb	t2,-1(a1)
9d00a648:	032d0018 	mult	t9,t5
9d00a64c:	03202021 	move	a0,t9
9d00a650:	00a03021 	move	a2,a1
9d00a654:	24a50001 	addiu	a1,a1,1
9d00a658:	00003810 	mfhi	a3
9d00a65c:	00071883 	sra	v1,a3,0x2
9d00a660:	00727023 	subu	t6,v1,s2
9d00a664:	000e5840 	sll	t3,t6,0x1
9d00a668:	000e48c0 	sll	t1,t6,0x3
9d00a66c:	01699821 	addu	s3,t3,t1
9d00a670:	0333c023 	subu	t8,t9,s3
9d00a674:	03d8c821 	addu	t9,s8,t8
9d00a678:	93320023 	lbu	s2,35(t9)
9d00a67c:	000eafc3 	sra	s5,t6,0x1f
9d00a680:	11c00036 	beqz	t6,9d00a75c <print+0xf38>
9d00a684:	a0b2ffff 	sb	s2,-1(a1)
9d00a688:	01cd0018 	mult	t6,t5
9d00a68c:	25e50003 	addiu	a1,t7,3
9d00a690:	25e60002 	addiu	a2,t7,2
9d00a694:	01c02021 	move	a0,t6
9d00a698:	00001010 	mfhi	v0
9d00a69c:	00023883 	sra	a3,v0,0x2
9d00a6a0:	00f57823 	subu	t7,a3,s5
9d00a6a4:	000ff840 	sll	ra,t7,0x1
9d00a6a8:	000fa0c0 	sll	s4,t7,0x3
9d00a6ac:	03f46021 	addu	t4,ra,s4
9d00a6b0:	01cc4023 	subu	t0,t6,t4
9d00a6b4:	03c85021 	addu	t2,s8,t0
9d00a6b8:	91430023 	lbu	v1,35(t2)
9d00a6bc:	11e00027 	beqz	t7,9d00a75c <print+0xf38>
9d00a6c0:	a0a3ffff 	sb	v1,-1(a1)
9d00a6c4:	00a03021 	move	a2,a1
9d00a6c8:	1000ffbf 	b	9d00a5c8 <print+0xda4>
9d00a6cc:	01e02021 	move	a0,t7
9d00a6d0:	8da22210 	lw	v0,8720(t5)
9d00a6d4:	30530200 	andi	s3,v0,0x200
9d00a6d8:	1260001d 	beqz	s3,9d00a750 <print+0xf2c>
9d00a6dc:	00000000 	nop
9d00a6e0:	8db82210 	lw	t8,8720(t5)
9d00a6e4:	33190200 	andi	t9,t8,0x200
9d00a6e8:	13200019 	beqz	t9,9d00a750 <print+0xf2c>
9d00a6ec:	00000000 	nop
9d00a6f0:	8dbf2210 	lw	ra,8720(t5)
9d00a6f4:	33ea0200 	andi	t2,ra,0x200
9d00a6f8:	11400015 	beqz	t2,9d00a750 <print+0xf2c>
9d00a6fc:	00000000 	nop
9d00a700:	8da92210 	lw	t1,8720(t5)
9d00a704:	31280200 	andi	t0,t1,0x200
9d00a708:	11000011 	beqz	t0,9d00a750 <print+0xf2c>
9d00a70c:	00000000 	nop
9d00a710:	8da42210 	lw	a0,8720(t5)
9d00a714:	30870200 	andi	a3,a0,0x200
9d00a718:	10e0000d 	beqz	a3,9d00a750 <print+0xf2c>
9d00a71c:	00000000 	nop
9d00a720:	8da62210 	lw	a2,8720(t5)
9d00a724:	30ce0200 	andi	t6,a2,0x200
9d00a728:	11c00009 	beqz	t6,9d00a750 <print+0xf2c>
9d00a72c:	00000000 	nop
9d00a730:	8da32210 	lw	v1,8720(t5)
9d00a734:	30750200 	andi	s5,v1,0x200
9d00a738:	12a00005 	beqz	s5,9d00a750 <print+0xf2c>
9d00a73c:	00000000 	nop
9d00a740:	8dab2210 	lw	t3,8720(t5)
9d00a744:	31620200 	andi	v0,t3,0x200
9d00a748:	1440ffe1 	bnez	v0,9d00a6d0 <print+0xeac>
9d00a74c:	00000000 	nop
9d00a750:	acac2220 	sw	t4,8736(a1)
9d00a754:	1000ff91 	b	9d00a59c <print+0xd78>
9d00a758:	024f0018 	mult	s2,t7
9d00a75c:	048000c4 	bltz	a0,9d00aa70 <print+0x124c>
9d00a760:	2404002d 	li	a0,45
9d00a764:	24a2ffff 	addiu	v0,a1,-1
9d00a768:	27a60020 	addiu	a2,sp,32
9d00a76c:	00c2682b 	sltu	t5,a2,v0
9d00a770:	a0a00000 	sb	zero,0(a1)
9d00a774:	11a00047 	beqz	t5,9d00a894 <print+0x1070>
9d00a778:	27b30020 	addiu	s3,sp,32
9d00a77c:	afb60048 	sw	s6,72(sp)
9d00a780:	afb1004c 	sw	s1,76(sp)
9d00a784:	afb70050 	sw	s7,80(sp)
9d00a788:	90590000 	lbu	t9,0(v0)
9d00a78c:	92710000 	lbu	s1,0(s3)
9d00a790:	2456ffff 	addiu	s6,v0,-1
9d00a794:	26770001 	addiu	s7,s3,1
9d00a798:	245ffffe 	addiu	ra,v0,-2
9d00a79c:	26690002 	addiu	t1,s3,2
9d00a7a0:	2448fffd 	addiu	t0,v0,-3
9d00a7a4:	26670003 	addiu	a3,s3,3
9d00a7a8:	244afffc 	addiu	t2,v0,-4
9d00a7ac:	26650004 	addiu	a1,s3,4
9d00a7b0:	244efffb 	addiu	t6,v0,-5
9d00a7b4:	26660005 	addiu	a2,s3,5
9d00a7b8:	02f6c02b 	sltu	t8,s7,s6
9d00a7bc:	244cfffa 	addiu	t4,v0,-6
9d00a7c0:	266b0006 	addiu	t3,s3,6
9d00a7c4:	a0510000 	sb	s1,0(v0)
9d00a7c8:	013fa82b 	sltu	s5,t1,ra
9d00a7cc:	244ffff9 	addiu	t7,v0,-7
9d00a7d0:	00e8a02b 	sltu	s4,a3,t0
9d00a7d4:	00aa902b 	sltu	s2,a1,t2
9d00a7d8:	00ce682b 	sltu	t5,a2,t6
9d00a7dc:	016cb02b 	sltu	s6,t3,t4
9d00a7e0:	13000029 	beqz	t8,9d00a888 <print+0x1064>
9d00a7e4:	a2790000 	sb	t9,0(s3)
9d00a7e8:	9044ffff 	lbu	a0,-1(v0)
9d00a7ec:	92710001 	lbu	s1,1(s3)
9d00a7f0:	26630007 	addiu	v1,s3,7
9d00a7f4:	006fc82b 	sltu	t9,v1,t7
9d00a7f8:	a3f10001 	sb	s1,1(ra)
9d00a7fc:	12a00022 	beqz	s5,9d00a888 <print+0x1064>
9d00a800:	a124ffff 	sb	a0,-1(t1)
9d00a804:	9057fffe 	lbu	s7,-2(v0)
9d00a808:	927f0002 	lbu	ra,2(s3)
9d00a80c:	a11f0001 	sb	ra,1(t0)
9d00a810:	1280001d 	beqz	s4,9d00a888 <print+0x1064>
9d00a814:	a0f7ffff 	sb	s7,-1(a3)
9d00a818:	9049fffd 	lbu	t1,-3(v0)
9d00a81c:	92680003 	lbu	t0,3(s3)
9d00a820:	a1480001 	sb	t0,1(t2)
9d00a824:	12400018 	beqz	s2,9d00a888 <print+0x1064>
9d00a828:	a0a9ffff 	sb	t1,-1(a1)
9d00a82c:	9047fffc 	lbu	a3,-4(v0)
9d00a830:	926a0004 	lbu	t2,4(s3)
9d00a834:	a1ca0001 	sb	t2,1(t6)
9d00a838:	11a00013 	beqz	t5,9d00a888 <print+0x1064>
9d00a83c:	a0c7ffff 	sb	a3,-1(a2)
9d00a840:	904efffb 	lbu	t6,-5(v0)
9d00a844:	92650005 	lbu	a1,5(s3)
9d00a848:	a1850001 	sb	a1,1(t4)
9d00a84c:	12c0000e 	beqz	s6,9d00a888 <print+0x1064>
9d00a850:	a16effff 	sb	t6,-1(t3)
9d00a854:	9046fffa 	lbu	a2,-6(v0)
9d00a858:	92780006 	lbu	t8,6(s3)
9d00a85c:	a1f80001 	sb	t8,1(t7)
9d00a860:	13200009 	beqz	t9,9d00a888 <print+0x1064>
9d00a864:	a2660006 	sb	a2,6(s3)
9d00a868:	904cfff9 	lbu	t4,-7(v0)
9d00a86c:	926b0007 	lbu	t3,7(s3)
9d00a870:	2442fff8 	addiu	v0,v0,-8
9d00a874:	26730008 	addiu	s3,s3,8
9d00a878:	0262a82b 	sltu	s5,s3,v0
9d00a87c:	a04b0001 	sb	t3,1(v0)
9d00a880:	16a0ffc1 	bnez	s5,9d00a788 <print+0xf64>
9d00a884:	a26cffff 	sb	t4,-1(s3)
9d00a888:	8fb60048 	lw	s6,72(sp)
9d00a88c:	8fb1004c 	lw	s1,76(sp)
9d00a890:	8fb70050 	lw	s7,80(sp)
9d00a894:	52e0fc05 	beqzl	s7,9d0098ac <print+0x88>
9d00a898:	922e0001 	lbu	t6,1(s1)
9d00a89c:	3c14bf82 	lui	s4,0xbf82
9d00a8a0:	27a40020 	addiu	a0,sp,32
9d00a8a4:	3c12bf82 	lui	s2,0xbf82
9d00a8a8:	908f0000 	lbu	t7,0(a0)
9d00a8ac:	51e0fbff 	beqzl	t7,9d0098ac <print+0x88>
9d00a8b0:	922e0001 	lbu	t6,1(s1)
9d00a8b4:	12000008 	beqz	s0,9d00a8d8 <print+0x10b4>
9d00a8b8:	00000000 	nop
9d00a8bc:	8e150000 	lw	s5,0(s0)
9d00a8c0:	24840001 	addiu	a0,a0,1
9d00a8c4:	a2af0000 	sb	t7,0(s5)
9d00a8c8:	8e170000 	lw	s7,0(s0)
9d00a8cc:	26ef0001 	addiu	t7,s7,1
9d00a8d0:	1000fff5 	b	9d00a8a8 <print+0x1084>
9d00a8d4:	ae0f0000 	sw	t7,0(s0)
9d00a8d8:	8e8d2210 	lw	t5,8720(s4)
9d00a8dc:	31a30200 	andi	v1,t5,0x200
9d00a8e0:	1060001d 	beqz	v1,9d00a958 <print+0x1134>
9d00a8e4:	00000000 	nop
9d00a8e8:	8e992210 	lw	t9,8720(s4)
9d00a8ec:	333f0200 	andi	ra,t9,0x200
9d00a8f0:	13e00019 	beqz	ra,9d00a958 <print+0x1134>
9d00a8f4:	00000000 	nop
9d00a8f8:	8e892210 	lw	t1,8720(s4)
9d00a8fc:	31280200 	andi	t0,t1,0x200
9d00a900:	11000015 	beqz	t0,9d00a958 <print+0x1134>
9d00a904:	00000000 	nop
9d00a908:	8e872210 	lw	a3,8720(s4)
9d00a90c:	30ea0200 	andi	t2,a3,0x200
9d00a910:	11400011 	beqz	t2,9d00a958 <print+0x1134>
9d00a914:	00000000 	nop
9d00a918:	8e8e2210 	lw	t6,8720(s4)
9d00a91c:	31c50200 	andi	a1,t6,0x200
9d00a920:	10a0000d 	beqz	a1,9d00a958 <print+0x1134>
9d00a924:	00000000 	nop
9d00a928:	8e862210 	lw	a2,8720(s4)
9d00a92c:	30d80200 	andi	t8,a2,0x200
9d00a930:	13000009 	beqz	t8,9d00a958 <print+0x1134>
9d00a934:	00000000 	nop
9d00a938:	8e8c2210 	lw	t4,8720(s4)
9d00a93c:	318b0200 	andi	t3,t4,0x200
9d00a940:	11600005 	beqz	t3,9d00a958 <print+0x1134>
9d00a944:	00000000 	nop
9d00a948:	8e822210 	lw	v0,8720(s4)
9d00a94c:	30530200 	andi	s3,v0,0x200
9d00a950:	1660ffe1 	bnez	s3,9d00a8d8 <print+0x10b4>
9d00a954:	00000000 	nop
9d00a958:	ae4f2220 	sw	t7,8736(s2)
9d00a95c:	1000ffd2 	b	9d00a8a8 <print+0x1084>
9d00a960:	24840001 	addiu	a0,a0,1
9d00a964:	2569ff9b 	addiu	t1,t3,-101
9d00a968:	240e0002 	li	t6,2
9d00a96c:	01c9782b 	sltu	t7,t6,t1
9d00a970:	55e0fbce 	bnezl	t7,9d0098ac <print+0x88>
9d00a974:	922e0001 	lbu	t6,1(s1)
9d00a978:	1000fda3 	b	9d00a008 <print+0x7e4>
9d00a97c:	24150006 	li	s5,6
9d00a980:	8fb50090 	lw	s5,144(sp)
9d00a984:	240f0061 	li	t7,97
9d00a988:	02002021 	move	a0,s0
9d00a98c:	8ea50000 	lw	a1,0(s5)
9d00a990:	26b70004 	addiu	s7,s5,4
9d00a994:	afa20010 	sw	v0,16(sp)
9d00a998:	afac0014 	sw	t4,20(sp)
9d00a99c:	afaf0018 	sw	t7,24(sp)
9d00a9a0:	2406000a 	li	a2,10
9d00a9a4:	24070001 	li	a3,1
9d00a9a8:	0f4023b9 	jal	9d008ee4 <printi>
9d00a9ac:	afb70090 	sw	s7,144(sp)
9d00a9b0:	1000fbbd 	b	9d0098a8 <print+0x84>
9d00a9b4:	02c2b021 	addu	s6,s6,v0
9d00a9b8:	8fb30090 	lw	s3,144(sp)
9d00a9bc:	02002021 	move	a0,s0
9d00a9c0:	240b0061 	li	t3,97
9d00a9c4:	8e650000 	lw	a1,0(s3)
9d00a9c8:	26690004 	addiu	t1,s3,4
9d00a9cc:	afa20010 	sw	v0,16(sp)
9d00a9d0:	afac0014 	sw	t4,20(sp)
9d00a9d4:	afab0018 	sw	t3,24(sp)
9d00a9d8:	24060010 	li	a2,16
9d00a9dc:	00003821 	move	a3,zero
9d00a9e0:	0f4023b9 	jal	9d008ee4 <printi>
9d00a9e4:	afa90090 	sw	t1,144(sp)
9d00a9e8:	1000fbaf 	b	9d0098a8 <print+0x84>
9d00a9ec:	02c2b021 	addu	s6,s6,v0
9d00a9f0:	8fb40090 	lw	s4,144(sp)
9d00a9f4:	02002021 	move	a0,s0
9d00a9f8:	240b0041 	li	t3,65
9d00a9fc:	8e850000 	lw	a1,0(s4)
9d00aa00:	26890004 	addiu	t1,s4,4
9d00aa04:	afa20010 	sw	v0,16(sp)
9d00aa08:	1000fff2 	b	9d00a9d4 <print+0x11b0>
9d00aa0c:	afac0014 	sw	t4,20(sp)
9d00aa10:	318c0001 	andi	t4,t4,0x1
9d00aa14:	91030000 	lbu	v1,0(t0)
9d00aa18:	0000c021 	move	t8,zero
9d00aa1c:	1180fd0b 	beqz	t4,9d009e4c <print+0x628>
9d00aa20:	240e0020 	li	t6,32
9d00aa24:	1460fd0c 	bnez	v1,9d009e58 <print+0x634>
9d00aa28:	3c0abf82 	lui	t2,0xbf82
9d00aa2c:	0040c021 	move	t8,v0
9d00aa30:	1000fb9d 	b	9d0098a8 <print+0x84>
9d00aa34:	02d8b021 	addu	s6,s6,t8
9d00aa38:	8fad0090 	lw	t5,144(sp)
9d00aa3c:	02002021 	move	a0,s0
9d00aa40:	2406000a 	li	a2,10
9d00aa44:	8da50000 	lw	a1,0(t5)
9d00aa48:	afa20010 	sw	v0,16(sp)
9d00aa4c:	24020061 	li	v0,97
9d00aa50:	25b90004 	addiu	t9,t5,4
9d00aa54:	afac0014 	sw	t4,20(sp)
9d00aa58:	afa20018 	sw	v0,24(sp)
9d00aa5c:	00003821 	move	a3,zero
9d00aa60:	0f4023b9 	jal	9d008ee4 <printi>
9d00aa64:	afb90090 	sw	t9,144(sp)
9d00aa68:	1000fb8f 	b	9d0098a8 <print+0x84>
9d00aa6c:	02c2b021 	addu	s6,s6,v0
9d00aa70:	24c50002 	addiu	a1,a2,2
9d00aa74:	1000ff3b 	b	9d00a764 <print+0xf40>
9d00aa78:	a0c40001 	sb	a0,1(a2)
9d00aa7c:	24c50002 	addiu	a1,a2,2
9d00aa80:	1000fdc0 	b	9d00a184 <print+0x960>
9d00aa84:	a0c40001 	sb	a0,1(a2)
9d00aa88:	a3a00041 	sb	zero,65(sp)
9d00aa8c:	92830000 	lbu	v1,0(s4)
9d00aa90:	26920004 	addiu	s2,s4,4
9d00aa94:	afb20090 	sw	s2,144(sp)
9d00aa98:	104000d4 	beqz	v0,9d00adec <print+0x15c8>
9d00aa9c:	a3a30040 	sb	v1,64(sp)
9d00aaa0:	106000a6 	beqz	v1,9d00ad3c <print+0x1518>
9d00aaa4:	00009821 	move	s3,zero
9d00aaa8:	27bf0040 	addiu	ra,sp,64
9d00aaac:	26730001 	addiu	s3,s3,1
9d00aab0:	7ff3498a 	lbux	t1,s3(ra)
9d00aab4:	1120001d 	beqz	t1,9d00ab2c <print+0x1308>
9d00aab8:	02603821 	move	a3,s3
9d00aabc:	26730001 	addiu	s3,s3,1
9d00aac0:	7ff3418a 	lbux	t0,s3(ra)
9d00aac4:	1100001a 	beqz	t0,9d00ab30 <print+0x130c>
9d00aac8:	0262b82a 	slt	s7,s3,v0
9d00aacc:	24f30002 	addiu	s3,a3,2
9d00aad0:	7ff3518a 	lbux	t2,s3(ra)
9d00aad4:	11400016 	beqz	t2,9d00ab30 <print+0x130c>
9d00aad8:	0262b82a 	slt	s7,s3,v0
9d00aadc:	24f30003 	addiu	s3,a3,3
9d00aae0:	7ff3718a 	lbux	t6,s3(ra)
9d00aae4:	11c00012 	beqz	t6,9d00ab30 <print+0x130c>
9d00aae8:	0262b82a 	slt	s7,s3,v0
9d00aaec:	24f30004 	addiu	s3,a3,4
9d00aaf0:	7ff3298a 	lbux	a1,s3(ra)
9d00aaf4:	10a0000e 	beqz	a1,9d00ab30 <print+0x130c>
9d00aaf8:	0262b82a 	slt	s7,s3,v0
9d00aafc:	24f30005 	addiu	s3,a3,5
9d00ab00:	7ff3c18a 	lbux	t8,s3(ra)
9d00ab04:	1300000a 	beqz	t8,9d00ab30 <print+0x130c>
9d00ab08:	0262b82a 	slt	s7,s3,v0
9d00ab0c:	24f30006 	addiu	s3,a3,6
9d00ab10:	7ff3598a 	lbux	t3,s3(ra)
9d00ab14:	11600006 	beqz	t3,9d00ab30 <print+0x130c>
9d00ab18:	0262b82a 	slt	s7,s3,v0
9d00ab1c:	24f30007 	addiu	s3,a3,7
9d00ab20:	7ff3a98a 	lbux	s5,s3(ra)
9d00ab24:	56a0ffe2 	bnezl	s5,9d00aab0 <print+0x128c>
9d00ab28:	26730001 	addiu	s3,s3,1
9d00ab2c:	0262b82a 	slt	s7,s3,v0
9d00ab30:	16e00082 	bnez	s7,9d00ad3c <print+0x1518>
9d00ab34:	00006821 	move	t5,zero
9d00ab38:	318f0002 	andi	t7,t4,0x2
9d00ab3c:	24020030 	li	v0,48
9d00ab40:	24060020 	li	a2,32
9d00ab44:	00cf100a 	movz	v0,a2,t7
9d00ab48:	318c0001 	andi	t4,t4,0x1
9d00ab4c:	158000a0 	bnez	t4,9d00add0 <print+0x15ac>
9d00ab50:	0040c821 	move	t9,v0
9d00ab54:	59a00011 	blezl	t5,9d00ab9c <print+0x1378>
9d00ab58:	00001021 	move	v0,zero
9d00ab5c:	01a01821 	move	v1,t5
9d00ab60:	3c04bf82 	lui	a0,0xbf82
9d00ab64:	3c14bf82 	lui	s4,0xbf82
9d00ab68:	12000076 	beqz	s0,9d00ad44 <print+0x1520>
9d00ab6c:	00000000 	nop
9d00ab70:	8e060000 	lw	a2,0(s0)
9d00ab74:	a0d90000 	sb	t9,0(a2)
9d00ab78:	8e120000 	lw	s2,0(s0)
9d00ab7c:	265f0001 	addiu	ra,s2,1
9d00ab80:	ae1f0000 	sw	ra,0(s0)
9d00ab84:	2463ffff 	addiu	v1,v1,-1
9d00ab88:	1460fff7 	bnez	v1,9d00ab68 <print+0x1344>
9d00ab8c:	00000000 	nop
9d00ab90:	93a30040 	lbu	v1,64(sp)
9d00ab94:	01a01021 	move	v0,t5
9d00ab98:	00006821 	move	t5,zero
9d00ab9c:	5060fb42 	beqzl	v1,9d0098a8 <print+0x84>
9d00aba0:	02c2b021 	addu	s6,s6,v0
9d00aba4:	27a40040 	addiu	a0,sp,64
9d00aba8:	3c14bf82 	lui	s4,0xbf82
9d00abac:	3c09bf82 	lui	t1,0xbf82
9d00abb0:	1200003f 	beqz	s0,9d00acb0 <print+0x148c>
9d00abb4:	00000000 	nop
9d00abb8:	8e080000 	lw	t0,0(s0)
9d00abbc:	a1030000 	sb	v1,0(t0)
9d00abc0:	8e030000 	lw	v1,0(s0)
9d00abc4:	246a0001 	addiu	t2,v1,1
9d00abc8:	ae0a0000 	sw	t2,0(s0)
9d00abcc:	24840001 	addiu	a0,a0,1
9d00abd0:	90830000 	lbu	v1,0(a0)
9d00abd4:	1460fff6 	bnez	v1,9d00abb0 <print+0x138c>
9d00abd8:	24420001 	addiu	v0,v0,1
9d00abdc:	59a0fb32 	blezl	t5,9d0098a8 <print+0x84>
9d00abe0:	02c2b021 	addu	s6,s6,v0
9d00abe4:	01a02021 	move	a0,t5
9d00abe8:	3c14bf82 	lui	s4,0xbf82
9d00abec:	3c09bf82 	lui	t1,0xbf82
9d00abf0:	1200000c 	beqz	s0,9d00ac24 <print+0x1400>
9d00abf4:	00000000 	nop
9d00abf8:	8e0e0000 	lw	t6,0(s0)
9d00abfc:	a1d90000 	sb	t9,0(t6)
9d00ac00:	8e050000 	lw	a1,0(s0)
9d00ac04:	24b80001 	addiu	t8,a1,1
9d00ac08:	ae180000 	sw	t8,0(s0)
9d00ac0c:	2484ffff 	addiu	a0,a0,-1
9d00ac10:	1480fff7 	bnez	a0,9d00abf0 <print+0x13cc>
9d00ac14:	00000000 	nop
9d00ac18:	004d1021 	addu	v0,v0,t5
9d00ac1c:	1000fb22 	b	9d0098a8 <print+0x84>
9d00ac20:	02c2b021 	addu	s6,s6,v0
9d00ac24:	8e8e2210 	lw	t6,8720(s4)
9d00ac28:	31c50200 	andi	a1,t6,0x200
9d00ac2c:	10a0001d 	beqz	a1,9d00aca4 <print+0x1480>
9d00ac30:	00000000 	nop
9d00ac34:	8e982210 	lw	t8,8720(s4)
9d00ac38:	330b0200 	andi	t3,t8,0x200
9d00ac3c:	11600019 	beqz	t3,9d00aca4 <print+0x1480>
9d00ac40:	00000000 	nop
9d00ac44:	8e932210 	lw	s3,8720(s4)
9d00ac48:	32750200 	andi	s5,s3,0x200
9d00ac4c:	12a00015 	beqz	s5,9d00aca4 <print+0x1480>
9d00ac50:	00000000 	nop
9d00ac54:	8e972210 	lw	s7,8720(s4)
9d00ac58:	32ef0200 	andi	t7,s7,0x200
9d00ac5c:	11e00011 	beqz	t7,9d00aca4 <print+0x1480>
9d00ac60:	00000000 	nop
9d00ac64:	8e8c2210 	lw	t4,8720(s4)
9d00ac68:	31860200 	andi	a2,t4,0x200
9d00ac6c:	10c0000d 	beqz	a2,9d00aca4 <print+0x1480>
9d00ac70:	00000000 	nop
9d00ac74:	8e922210 	lw	s2,8720(s4)
9d00ac78:	325f0200 	andi	ra,s2,0x200
9d00ac7c:	13e00009 	beqz	ra,9d00aca4 <print+0x1480>
9d00ac80:	00000000 	nop
9d00ac84:	8e872210 	lw	a3,8720(s4)
9d00ac88:	30e80200 	andi	t0,a3,0x200
9d00ac8c:	11000005 	beqz	t0,9d00aca4 <print+0x1480>
9d00ac90:	00000000 	nop
9d00ac94:	8e8a2210 	lw	t2,8720(s4)
9d00ac98:	31430200 	andi	v1,t2,0x200
9d00ac9c:	1460ffe1 	bnez	v1,9d00ac24 <print+0x1400>
9d00aca0:	00000000 	nop
9d00aca4:	ad392220 	sw	t9,8736(t1)
9d00aca8:	1000ffd9 	b	9d00ac10 <print+0x13ec>
9d00acac:	2484ffff 	addiu	a0,a0,-1
9d00acb0:	8e872210 	lw	a3,8720(s4)
9d00acb4:	30e80200 	andi	t0,a3,0x200
9d00acb8:	1100001d 	beqz	t0,9d00ad30 <print+0x150c>
9d00acbc:	00000000 	nop
9d00acc0:	8e8a2210 	lw	t2,8720(s4)
9d00acc4:	314e0200 	andi	t6,t2,0x200
9d00acc8:	11c00019 	beqz	t6,9d00ad30 <print+0x150c>
9d00accc:	00000000 	nop
9d00acd0:	8e852210 	lw	a1,8720(s4)
9d00acd4:	30b80200 	andi	t8,a1,0x200
9d00acd8:	13000015 	beqz	t8,9d00ad30 <print+0x150c>
9d00acdc:	00000000 	nop
9d00ace0:	8e8b2210 	lw	t3,8720(s4)
9d00ace4:	31730200 	andi	s3,t3,0x200
9d00ace8:	12600011 	beqz	s3,9d00ad30 <print+0x150c>
9d00acec:	00000000 	nop
9d00acf0:	8e952210 	lw	s5,8720(s4)
9d00acf4:	32b70200 	andi	s7,s5,0x200
9d00acf8:	12e0000d 	beqz	s7,9d00ad30 <print+0x150c>
9d00acfc:	00000000 	nop
9d00ad00:	8e8f2210 	lw	t7,8720(s4)
9d00ad04:	31ec0200 	andi	t4,t7,0x200
9d00ad08:	11800009 	beqz	t4,9d00ad30 <print+0x150c>
9d00ad0c:	00000000 	nop
9d00ad10:	8e862210 	lw	a2,8720(s4)
9d00ad14:	30d20200 	andi	s2,a2,0x200
9d00ad18:	12400005 	beqz	s2,9d00ad30 <print+0x150c>
9d00ad1c:	00000000 	nop
9d00ad20:	8e9f2210 	lw	ra,8720(s4)
9d00ad24:	33e70200 	andi	a3,ra,0x200
9d00ad28:	14e0ffe1 	bnez	a3,9d00acb0 <print+0x148c>
9d00ad2c:	00000000 	nop
9d00ad30:	ad232220 	sw	v1,8736(t1)
9d00ad34:	1000ffa6 	b	9d00abd0 <print+0x13ac>
9d00ad38:	24840001 	addiu	a0,a0,1
9d00ad3c:	1000ff7e 	b	9d00ab38 <print+0x1314>
9d00ad40:	00536823 	subu	t5,v0,s3
9d00ad44:	8c922210 	lw	s2,8720(a0)
9d00ad48:	325f0200 	andi	ra,s2,0x200
9d00ad4c:	13e0001d 	beqz	ra,9d00adc4 <print+0x15a0>
9d00ad50:	00000000 	nop
9d00ad54:	8c892210 	lw	t1,8720(a0)
9d00ad58:	31270200 	andi	a3,t1,0x200
9d00ad5c:	10e00019 	beqz	a3,9d00adc4 <print+0x15a0>
9d00ad60:	00000000 	nop
9d00ad64:	8c882210 	lw	t0,8720(a0)
9d00ad68:	310a0200 	andi	t2,t0,0x200
9d00ad6c:	11400015 	beqz	t2,9d00adc4 <print+0x15a0>
9d00ad70:	00000000 	nop
9d00ad74:	8c8e2210 	lw	t6,8720(a0)
9d00ad78:	31c50200 	andi	a1,t6,0x200
9d00ad7c:	10a00011 	beqz	a1,9d00adc4 <print+0x15a0>
9d00ad80:	00000000 	nop
9d00ad84:	8c982210 	lw	t8,8720(a0)
9d00ad88:	330b0200 	andi	t3,t8,0x200
9d00ad8c:	1160000d 	beqz	t3,9d00adc4 <print+0x15a0>
9d00ad90:	00000000 	nop
9d00ad94:	8c932210 	lw	s3,8720(a0)
9d00ad98:	32750200 	andi	s5,s3,0x200
9d00ad9c:	12a00009 	beqz	s5,9d00adc4 <print+0x15a0>
9d00ada0:	00000000 	nop
9d00ada4:	8c972210 	lw	s7,8720(a0)
9d00ada8:	32ef0200 	andi	t7,s7,0x200
9d00adac:	11e00005 	beqz	t7,9d00adc4 <print+0x15a0>
9d00adb0:	00000000 	nop
9d00adb4:	8c8c2210 	lw	t4,8720(a0)
9d00adb8:	31820200 	andi	v0,t4,0x200
9d00adbc:	1440ffe1 	bnez	v0,9d00ad44 <print+0x1520>
9d00adc0:	00000000 	nop
9d00adc4:	ae992220 	sw	t9,8736(s4)
9d00adc8:	1000ff6f 	b	9d00ab88 <print+0x1364>
9d00adcc:	2463ffff 	addiu	v1,v1,-1
9d00add0:	1460ff74 	bnez	v1,9d00aba4 <print+0x1380>
9d00add4:	00001021 	move	v0,zero
9d00add8:	1000ff80 	b	9d00abdc <print+0x13b8>
9d00addc:	00000000 	nop
9d00ade0:	00009021 	move	s2,zero
9d00ade4:	1000fdd3 	b	9d00a534 <print+0xd10>
9d00ade8:	8fb50058 	lw	s5,88(sp)
9d00adec:	00006821 	move	t5,zero
9d00adf0:	1000ff6a 	b	9d00ab9c <print+0x1378>
9d00adf4:	24190020 	li	t9,32
9d00adf8:	1000faaf 	b	9d0098b8 <print+0x94>
9d00adfc:	0000f021 	move	s8,zero

9d00ae00 <strcpy>:
9d00ae00:	00801021 	move	v0,a0
9d00ae04:	00801821 	move	v1,a0
9d00ae08:	90a60000 	lbu	a2,0(a1)
9d00ae0c:	10c00018 	beqz	a2,9d00ae70 <strcpy+0x70>
9d00ae10:	a0660000 	sb	a2,0(v1)
9d00ae14:	90a40001 	lbu	a0,1(a1)
9d00ae18:	10800015 	beqz	a0,9d00ae70 <strcpy+0x70>
9d00ae1c:	a0640001 	sb	a0,1(v1)
9d00ae20:	90a70002 	lbu	a3,2(a1)
9d00ae24:	10e00012 	beqz	a3,9d00ae70 <strcpy+0x70>
9d00ae28:	a0670002 	sb	a3,2(v1)
9d00ae2c:	90a80003 	lbu	t0,3(a1)
9d00ae30:	1100000f 	beqz	t0,9d00ae70 <strcpy+0x70>
9d00ae34:	a0680003 	sb	t0,3(v1)
9d00ae38:	90a90004 	lbu	t1,4(a1)
9d00ae3c:	1120000c 	beqz	t1,9d00ae70 <strcpy+0x70>
9d00ae40:	a0690004 	sb	t1,4(v1)
9d00ae44:	90aa0005 	lbu	t2,5(a1)
9d00ae48:	11400009 	beqz	t2,9d00ae70 <strcpy+0x70>
9d00ae4c:	a06a0005 	sb	t2,5(v1)
9d00ae50:	90ab0006 	lbu	t3,6(a1)
9d00ae54:	24a50008 	addiu	a1,a1,8
9d00ae58:	11600005 	beqz	t3,9d00ae70 <strcpy+0x70>
9d00ae5c:	a06b0006 	sb	t3,6(v1)
9d00ae60:	90acffff 	lbu	t4,-1(a1)
9d00ae64:	24630008 	addiu	v1,v1,8
9d00ae68:	1580ffe7 	bnez	t4,9d00ae08 <strcpy+0x8>
9d00ae6c:	a06cffff 	sb	t4,-1(v1)
9d00ae70:	03e00008 	jr	ra
9d00ae74:	00000000 	nop

9d00ae78 <strncpy>:
9d00ae78:	18c000e9 	blez	a2,9d00b220 <strncpy+0x3a8>
9d00ae7c:	00801021 	move	v0,a0
9d00ae80:	90a30000 	lbu	v1,0(a1)
9d00ae84:	24890001 	addiu	t1,a0,1
9d00ae88:	106000e7 	beqz	v1,9d00b228 <strncpy+0x3b0>
9d00ae8c:	a0830000 	sb	v1,0(a0)
9d00ae90:	24c7ffff 	addiu	a3,a2,-1
9d00ae94:	30e80007 	andi	t0,a3,0x7
9d00ae98:	11000030 	beqz	t0,9d00af5c <strncpy+0xe4>
9d00ae9c:	00001821 	move	v1,zero
9d00aea0:	90a40001 	lbu	a0,1(a1)
9d00aea4:	24490002 	addiu	t1,v0,2
9d00aea8:	24030001 	li	v1,1
9d00aeac:	10800056 	beqz	a0,9d00b008 <strncpy+0x190>
9d00aeb0:	a124ffff 	sb	a0,-1(t1)
9d00aeb4:	5103002a 	beql	t0,v1,9d00af60 <strncpy+0xe8>
9d00aeb8:	24630001 	addiu	v1,v1,1
9d00aebc:	240a0002 	li	t2,2
9d00aec0:	110a0021 	beq	t0,t2,9d00af48 <strncpy+0xd0>
9d00aec4:	240b0003 	li	t3,3
9d00aec8:	110b001a 	beq	t0,t3,9d00af34 <strncpy+0xbc>
9d00aecc:	240c0004 	li	t4,4
9d00aed0:	110c0013 	beq	t0,t4,9d00af20 <strncpy+0xa8>
9d00aed4:	240d0005 	li	t5,5
9d00aed8:	110d000c 	beq	t0,t5,9d00af0c <strncpy+0x94>
9d00aedc:	240e0006 	li	t6,6
9d00aee0:	110e0006 	beq	t0,t6,9d00aefc <strncpy+0x84>
9d00aee4:	24630001 	addiu	v1,v1,1
9d00aee8:	7ca3798a 	lbux	t7,v1(a1)
9d00aeec:	25290001 	addiu	t1,t1,1
9d00aef0:	11e00045 	beqz	t7,9d00b008 <strncpy+0x190>
9d00aef4:	a12fffff 	sb	t7,-1(t1)
9d00aef8:	24630001 	addiu	v1,v1,1
9d00aefc:	7ca3c18a 	lbux	t8,v1(a1)
9d00af00:	25290001 	addiu	t1,t1,1
9d00af04:	13000040 	beqz	t8,9d00b008 <strncpy+0x190>
9d00af08:	a138ffff 	sb	t8,-1(t1)
9d00af0c:	24630001 	addiu	v1,v1,1
9d00af10:	7ca3c98a 	lbux	t9,v1(a1)
9d00af14:	25290001 	addiu	t1,t1,1
9d00af18:	1320003b 	beqz	t9,9d00b008 <strncpy+0x190>
9d00af1c:	a139ffff 	sb	t9,-1(t1)
9d00af20:	24630001 	addiu	v1,v1,1
9d00af24:	7ca3398a 	lbux	a3,v1(a1)
9d00af28:	25290001 	addiu	t1,t1,1
9d00af2c:	10e00036 	beqz	a3,9d00b008 <strncpy+0x190>
9d00af30:	a127ffff 	sb	a3,-1(t1)
9d00af34:	24630001 	addiu	v1,v1,1
9d00af38:	7ca3418a 	lbux	t0,v1(a1)
9d00af3c:	25290001 	addiu	t1,t1,1
9d00af40:	11000031 	beqz	t0,9d00b008 <strncpy+0x190>
9d00af44:	a128ffff 	sb	t0,-1(t1)
9d00af48:	24630001 	addiu	v1,v1,1
9d00af4c:	7ca3218a 	lbux	a0,v1(a1)
9d00af50:	25290001 	addiu	t1,t1,1
9d00af54:	1080002c 	beqz	a0,9d00b008 <strncpy+0x190>
9d00af58:	a124ffff 	sb	a0,-1(t1)
9d00af5c:	24630001 	addiu	v1,v1,1
9d00af60:	25290001 	addiu	t1,t1,1
9d00af64:	106600ae 	beq	v1,a2,9d00b220 <strncpy+0x3a8>
9d00af68:	00605021 	move	t2,v1
9d00af6c:	7ca3598a 	lbux	t3,v1(a1)
9d00af70:	01206021 	move	t4,t1
9d00af74:	11600024 	beqz	t3,9d00b008 <strncpy+0x190>
9d00af78:	a12bffff 	sb	t3,-1(t1)
9d00af7c:	24630001 	addiu	v1,v1,1
9d00af80:	7ca3698a 	lbux	t5,v1(a1)
9d00af84:	25290001 	addiu	t1,t1,1
9d00af88:	11a0001f 	beqz	t5,9d00b008 <strncpy+0x190>
9d00af8c:	a12dffff 	sb	t5,-1(t1)
9d00af90:	25430002 	addiu	v1,t2,2
9d00af94:	7ca3718a 	lbux	t6,v1(a1)
9d00af98:	25890002 	addiu	t1,t4,2
9d00af9c:	11c0001a 	beqz	t6,9d00b008 <strncpy+0x190>
9d00afa0:	a12effff 	sb	t6,-1(t1)
9d00afa4:	25430003 	addiu	v1,t2,3
9d00afa8:	7ca3798a 	lbux	t7,v1(a1)
9d00afac:	25890003 	addiu	t1,t4,3
9d00afb0:	11e00015 	beqz	t7,9d00b008 <strncpy+0x190>
9d00afb4:	a12fffff 	sb	t7,-1(t1)
9d00afb8:	25430004 	addiu	v1,t2,4
9d00afbc:	7ca3c18a 	lbux	t8,v1(a1)
9d00afc0:	25890004 	addiu	t1,t4,4
9d00afc4:	13000010 	beqz	t8,9d00b008 <strncpy+0x190>
9d00afc8:	a138ffff 	sb	t8,-1(t1)
9d00afcc:	25430005 	addiu	v1,t2,5
9d00afd0:	7ca3c98a 	lbux	t9,v1(a1)
9d00afd4:	25890005 	addiu	t1,t4,5
9d00afd8:	1320000b 	beqz	t9,9d00b008 <strncpy+0x190>
9d00afdc:	a139ffff 	sb	t9,-1(t1)
9d00afe0:	25430006 	addiu	v1,t2,6
9d00afe4:	7ca3398a 	lbux	a3,v1(a1)
9d00afe8:	25890006 	addiu	t1,t4,6
9d00afec:	10e00006 	beqz	a3,9d00b008 <strncpy+0x190>
9d00aff0:	a127ffff 	sb	a3,-1(t1)
9d00aff4:	25430007 	addiu	v1,t2,7
9d00aff8:	7ca3418a 	lbux	t0,v1(a1)
9d00affc:	25890007 	addiu	t1,t4,7
9d00b000:	1500ffd6 	bnez	t0,9d00af5c <strncpy+0xe4>
9d00b004:	a128ffff 	sb	t0,-1(t1)
9d00b008:	24630001 	addiu	v1,v1,1
9d00b00c:	0066282a 	slt	a1,v1,a2
9d00b010:	10a00083 	beqz	a1,9d00b220 <strncpy+0x3a8>
9d00b014:	00000000 	nop
9d00b018:	00092023 	negu	a0,t1
9d00b01c:	00c35023 	subu	t2,a2,v1
9d00b020:	308b0003 	andi	t3,a0,0x3
9d00b024:	014b602b 	sltu	t4,t2,t3
9d00b028:	014c580b 	movn	t3,t2,t4
9d00b02c:	2d4d0007 	sltiu	t5,t2,7
9d00b030:	014d580b 	movn	t3,t2,t5
9d00b034:	11600078 	beqz	t3,9d00b218 <strncpy+0x3a0>
9d00b038:	01607021 	move	t6,t3
9d00b03c:	240f0001 	li	t7,1
9d00b040:	252c0001 	addiu	t4,t1,1
9d00b044:	a1200000 	sb	zero,0(t1)
9d00b048:	116f0071 	beq	t3,t7,9d00b210 <strncpy+0x398>
9d00b04c:	24680001 	addiu	t0,v1,1
9d00b050:	24180002 	li	t8,2
9d00b054:	252c0002 	addiu	t4,t1,2
9d00b058:	a1200001 	sb	zero,1(t1)
9d00b05c:	1178006c 	beq	t3,t8,9d00b210 <strncpy+0x398>
9d00b060:	24680002 	addiu	t0,v1,2
9d00b064:	24190003 	li	t9,3
9d00b068:	252c0003 	addiu	t4,t1,3
9d00b06c:	a1200002 	sb	zero,2(t1)
9d00b070:	11790067 	beq	t3,t9,9d00b210 <strncpy+0x398>
9d00b074:	24680003 	addiu	t0,v1,3
9d00b078:	24070004 	li	a3,4
9d00b07c:	252c0004 	addiu	t4,t1,4
9d00b080:	a1200003 	sb	zero,3(t1)
9d00b084:	11670062 	beq	t3,a3,9d00b210 <strncpy+0x398>
9d00b088:	24680004 	addiu	t0,v1,4
9d00b08c:	24050006 	li	a1,6
9d00b090:	252c0005 	addiu	t4,t1,5
9d00b094:	a1200004 	sb	zero,4(t1)
9d00b098:	1565005d 	bne	t3,a1,9d00b210 <strncpy+0x398>
9d00b09c:	24680005 	addiu	t0,v1,5
9d00b0a0:	252c0006 	addiu	t4,t1,6
9d00b0a4:	a1200005 	sb	zero,5(t1)
9d00b0a8:	24630006 	addiu	v1,v1,6
9d00b0ac:	114e005c 	beq	t2,t6,9d00b220 <strncpy+0x3a8>
9d00b0b0:	00000000 	nop
9d00b0b4:	014e5823 	subu	t3,t2,t6
9d00b0b8:	2564fffc 	addiu	a0,t3,-4
9d00b0bc:	254affff 	addiu	t2,t2,-1
9d00b0c0:	014e6823 	subu	t5,t2,t6
9d00b0c4:	00047882 	srl	t7,a0,0x2
9d00b0c8:	25f80001 	addiu	t8,t7,1
9d00b0cc:	2db90003 	sltiu	t9,t5,3
9d00b0d0:	17200045 	bnez	t9,9d00b1e8 <strncpy+0x370>
9d00b0d4:	00185080 	sll	t2,t8,0x2
9d00b0d8:	24070001 	li	a3,1
9d00b0dc:	012e4821 	addu	t1,t1,t6
9d00b0e0:	00002821 	move	a1,zero
9d00b0e4:	00f8702b 	sltu	t6,a3,t8
9d00b0e8:	31e80007 	andi	t0,t7,0x7
9d00b0ec:	ad250000 	sw	a1,0(t1)
9d00b0f0:	11c0003a 	beqz	t6,9d00b1dc <strncpy+0x364>
9d00b0f4:	25240004 	addiu	a0,t1,4
9d00b0f8:	5100002c 	beqzl	t0,9d00b1ac <strncpy+0x334>
9d00b0fc:	24e70008 	addiu	a3,a3,8
9d00b100:	11070023 	beq	t0,a3,9d00b190 <strncpy+0x318>
9d00b104:	240f0002 	li	t7,2
9d00b108:	110f001d 	beq	t0,t7,9d00b180 <strncpy+0x308>
9d00b10c:	240d0003 	li	t5,3
9d00b110:	110d0017 	beq	t0,t5,9d00b170 <strncpy+0x2f8>
9d00b114:	24190004 	li	t9,4
9d00b118:	11190011 	beq	t0,t9,9d00b160 <strncpy+0x2e8>
9d00b11c:	240e0005 	li	t6,5
9d00b120:	110e000b 	beq	t0,t6,9d00b150 <strncpy+0x2d8>
9d00b124:	24050006 	li	a1,6
9d00b128:	51050006 	beql	t0,a1,9d00b144 <strncpy+0x2cc>
9d00b12c:	00004821 	move	t1,zero
9d00b130:	00003821 	move	a3,zero
9d00b134:	ac870000 	sw	a3,0(a0)
9d00b138:	24070002 	li	a3,2
9d00b13c:	25240008 	addiu	a0,t1,8
9d00b140:	00004821 	move	t1,zero
9d00b144:	ac890000 	sw	t1,0(a0)
9d00b148:	24e70001 	addiu	a3,a3,1
9d00b14c:	24840004 	addiu	a0,a0,4
9d00b150:	00004021 	move	t0,zero
9d00b154:	ac880000 	sw	t0,0(a0)
9d00b158:	24e70001 	addiu	a3,a3,1
9d00b15c:	24840004 	addiu	a0,a0,4
9d00b160:	00007821 	move	t7,zero
9d00b164:	ac8f0000 	sw	t7,0(a0)
9d00b168:	24e70001 	addiu	a3,a3,1
9d00b16c:	24840004 	addiu	a0,a0,4
9d00b170:	00006821 	move	t5,zero
9d00b174:	ac8d0000 	sw	t5,0(a0)
9d00b178:	24e70001 	addiu	a3,a3,1
9d00b17c:	24840004 	addiu	a0,a0,4
9d00b180:	0000c821 	move	t9,zero
9d00b184:	ac990000 	sw	t9,0(a0)
9d00b188:	24e70001 	addiu	a3,a3,1
9d00b18c:	24840004 	addiu	a0,a0,4
9d00b190:	24e70001 	addiu	a3,a3,1
9d00b194:	00002821 	move	a1,zero
9d00b198:	00f8702b 	sltu	t6,a3,t8
9d00b19c:	ac850000 	sw	a1,0(a0)
9d00b1a0:	11c0000e 	beqz	t6,9d00b1dc <strncpy+0x364>
9d00b1a4:	24840004 	addiu	a0,a0,4
9d00b1a8:	24e70008 	addiu	a3,a3,8
9d00b1ac:	00004821 	move	t1,zero
9d00b1b0:	00f8402b 	sltu	t0,a3,t8
9d00b1b4:	ac890000 	sw	t1,0(a0)
9d00b1b8:	ac890004 	sw	t1,4(a0)
9d00b1bc:	ac890008 	sw	t1,8(a0)
9d00b1c0:	ac89000c 	sw	t1,12(a0)
9d00b1c4:	ac890010 	sw	t1,16(a0)
9d00b1c8:	ac890014 	sw	t1,20(a0)
9d00b1cc:	ac890018 	sw	t1,24(a0)
9d00b1d0:	ac89001c 	sw	t1,28(a0)
9d00b1d4:	1500fff4 	bnez	t0,9d00b1a8 <strncpy+0x330>
9d00b1d8:	24840020 	addiu	a0,a0,32
9d00b1dc:	018a6021 	addu	t4,t4,t2
9d00b1e0:	116a000f 	beq	t3,t2,9d00b220 <strncpy+0x3a8>
9d00b1e4:	006a1821 	addu	v1,v1,t2
9d00b1e8:	24780001 	addiu	t8,v1,1
9d00b1ec:	0306782a 	slt	t7,t8,a2
9d00b1f0:	11e0000b 	beqz	t7,9d00b220 <strncpy+0x3a8>
9d00b1f4:	a1800000 	sb	zero,0(t4)
9d00b1f8:	246d0002 	addiu	t5,v1,2
9d00b1fc:	01a6302a 	slt	a2,t5,a2
9d00b200:	10c00007 	beqz	a2,9d00b220 <strncpy+0x3a8>
9d00b204:	a1800001 	sb	zero,1(t4)
9d00b208:	03e00008 	jr	ra
9d00b20c:	a1800002 	sb	zero,2(t4)
9d00b210:	1000ffa6 	b	9d00b0ac <strncpy+0x234>
9d00b214:	01001821 	move	v1,t0
9d00b218:	1000ffa6 	b	9d00b0b4 <strncpy+0x23c>
9d00b21c:	01206021 	move	t4,t1
9d00b220:	03e00008 	jr	ra
9d00b224:	00000000 	nop
9d00b228:	1000ff78 	b	9d00b00c <strncpy+0x194>
9d00b22c:	24030001 	li	v1,1

9d00b230 <strcat>:
9d00b230:	90830000 	lbu	v1,0(a0)
9d00b234:	10600038 	beqz	v1,9d00b318 <strcat+0xe8>
9d00b238:	00801021 	move	v0,a0
9d00b23c:	00807021 	move	t6,a0
9d00b240:	25ce0001 	addiu	t6,t6,1
9d00b244:	91c40000 	lbu	a0,0(t6)
9d00b248:	10800017 	beqz	a0,9d00b2a8 <strcat+0x78>
9d00b24c:	01c03021 	move	a2,t6
9d00b250:	25ce0001 	addiu	t6,t6,1
9d00b254:	91c70000 	lbu	a3,0(t6)
9d00b258:	50e00014 	beqzl	a3,9d00b2ac <strcat+0x7c>
9d00b25c:	90af0000 	lbu	t7,0(a1)
9d00b260:	90c80002 	lbu	t0,2(a2)
9d00b264:	11000010 	beqz	t0,9d00b2a8 <strcat+0x78>
9d00b268:	24ce0002 	addiu	t6,a2,2
9d00b26c:	90c90003 	lbu	t1,3(a2)
9d00b270:	1120000d 	beqz	t1,9d00b2a8 <strcat+0x78>
9d00b274:	24ce0003 	addiu	t6,a2,3
9d00b278:	90ca0004 	lbu	t2,4(a2)
9d00b27c:	1140000a 	beqz	t2,9d00b2a8 <strcat+0x78>
9d00b280:	24ce0004 	addiu	t6,a2,4
9d00b284:	90cb0005 	lbu	t3,5(a2)
9d00b288:	11600007 	beqz	t3,9d00b2a8 <strcat+0x78>
9d00b28c:	24ce0005 	addiu	t6,a2,5
9d00b290:	90cc0006 	lbu	t4,6(a2)
9d00b294:	11800004 	beqz	t4,9d00b2a8 <strcat+0x78>
9d00b298:	24ce0006 	addiu	t6,a2,6
9d00b29c:	90cd0007 	lbu	t5,7(a2)
9d00b2a0:	15a0ffe7 	bnez	t5,9d00b240 <strcat+0x10>
9d00b2a4:	24ce0007 	addiu	t6,a2,7
9d00b2a8:	90af0000 	lbu	t7,0(a1)
9d00b2ac:	11e00018 	beqz	t7,9d00b310 <strcat+0xe0>
9d00b2b0:	a1cf0000 	sb	t7,0(t6)
9d00b2b4:	90b80001 	lbu	t8,1(a1)
9d00b2b8:	13000015 	beqz	t8,9d00b310 <strcat+0xe0>
9d00b2bc:	a1d80001 	sb	t8,1(t6)
9d00b2c0:	90b90002 	lbu	t9,2(a1)
9d00b2c4:	13200012 	beqz	t9,9d00b310 <strcat+0xe0>
9d00b2c8:	a1d90002 	sb	t9,2(t6)
9d00b2cc:	90a30003 	lbu	v1,3(a1)
9d00b2d0:	1060000f 	beqz	v1,9d00b310 <strcat+0xe0>
9d00b2d4:	a1c30003 	sb	v1,3(t6)
9d00b2d8:	90a40004 	lbu	a0,4(a1)
9d00b2dc:	1080000c 	beqz	a0,9d00b310 <strcat+0xe0>
9d00b2e0:	a1c40004 	sb	a0,4(t6)
9d00b2e4:	90a60005 	lbu	a2,5(a1)
9d00b2e8:	10c00009 	beqz	a2,9d00b310 <strcat+0xe0>
9d00b2ec:	a1c60005 	sb	a2,5(t6)
9d00b2f0:	90a70006 	lbu	a3,6(a1)
9d00b2f4:	24a50008 	addiu	a1,a1,8
9d00b2f8:	10e00005 	beqz	a3,9d00b310 <strcat+0xe0>
9d00b2fc:	a1c70006 	sb	a3,6(t6)
9d00b300:	90a8ffff 	lbu	t0,-1(a1)
9d00b304:	25ce0008 	addiu	t6,t6,8
9d00b308:	1500ffe7 	bnez	t0,9d00b2a8 <strcat+0x78>
9d00b30c:	a1c8ffff 	sb	t0,-1(t6)
9d00b310:	03e00008 	jr	ra
9d00b314:	00000000 	nop
9d00b318:	1000ffe3 	b	9d00b2a8 <strcat+0x78>
9d00b31c:	00807021 	move	t6,a0

9d00b320 <strncat>:
9d00b320:	00803821 	move	a3,a0
9d00b324:	24e30001 	addiu	v1,a3,1
9d00b328:	9069ffff 	lbu	t1,-1(v1)
9d00b32c:	00801021 	move	v0,a0
9d00b330:	11200028 	beqz	t1,9d00b3d4 <strncat+0xb4>
9d00b334:	00604021 	move	t0,v1
9d00b338:	00603821 	move	a3,v1
9d00b33c:	24630001 	addiu	v1,v1,1
9d00b340:	9064ffff 	lbu	a0,-1(v1)
9d00b344:	10800024 	beqz	a0,9d00b3d8 <strncat+0xb8>
9d00b348:	30d80007 	andi	t8,a2,0x7
9d00b34c:	00603821 	move	a3,v1
9d00b350:	24630001 	addiu	v1,v1,1
9d00b354:	906affff 	lbu	t2,-1(v1)
9d00b358:	1140001f 	beqz	t2,9d00b3d8 <strncat+0xb8>
9d00b35c:	00000000 	nop
9d00b360:	25030003 	addiu	v1,t0,3
9d00b364:	906bffff 	lbu	t3,-1(v1)
9d00b368:	1160001b 	beqz	t3,9d00b3d8 <strncat+0xb8>
9d00b36c:	25070002 	addiu	a3,t0,2
9d00b370:	00603821 	move	a3,v1
9d00b374:	25030004 	addiu	v1,t0,4
9d00b378:	906cffff 	lbu	t4,-1(v1)
9d00b37c:	11800016 	beqz	t4,9d00b3d8 <strncat+0xb8>
9d00b380:	00000000 	nop
9d00b384:	00603821 	move	a3,v1
9d00b388:	25030005 	addiu	v1,t0,5
9d00b38c:	906dffff 	lbu	t5,-1(v1)
9d00b390:	11a00011 	beqz	t5,9d00b3d8 <strncat+0xb8>
9d00b394:	00000000 	nop
9d00b398:	00603821 	move	a3,v1
9d00b39c:	25030006 	addiu	v1,t0,6
9d00b3a0:	906effff 	lbu	t6,-1(v1)
9d00b3a4:	11c0000c 	beqz	t6,9d00b3d8 <strncat+0xb8>
9d00b3a8:	00000000 	nop
9d00b3ac:	00603821 	move	a3,v1
9d00b3b0:	25030007 	addiu	v1,t0,7
9d00b3b4:	906fffff 	lbu	t7,-1(v1)
9d00b3b8:	11e00007 	beqz	t7,9d00b3d8 <strncat+0xb8>
9d00b3bc:	00000000 	nop
9d00b3c0:	00603821 	move	a3,v1
9d00b3c4:	24e30001 	addiu	v1,a3,1
9d00b3c8:	9069ffff 	lbu	t1,-1(v1)
9d00b3cc:	1520ffda 	bnez	t1,9d00b338 <strncat+0x18>
9d00b3d0:	00604021 	move	t0,v1
9d00b3d4:	30d80007 	andi	t8,a2,0x7
9d00b3d8:	5300003d 	beqzl	t8,9d00b4d0 <strncat+0x1b0>
9d00b3dc:	90a80000 	lbu	t0,0(a1)
9d00b3e0:	24a50001 	addiu	a1,a1,1
9d00b3e4:	90b9ffff 	lbu	t9,-1(a1)
9d00b3e8:	13200058 	beqz	t9,9d00b54c <strncat+0x22c>
9d00b3ec:	a079ffff 	sb	t9,-1(v1)
9d00b3f0:	24c6ffff 	addiu	a2,a2,-1
9d00b3f4:	04c00057 	bltz	a2,9d00b554 <strncat+0x234>
9d00b3f8:	00000000 	nop
9d00b3fc:	24080001 	li	t0,1
9d00b400:	00603821 	move	a3,v1
9d00b404:	13080031 	beq	t8,t0,9d00b4cc <strncat+0x1ac>
9d00b408:	24630001 	addiu	v1,v1,1
9d00b40c:	24070002 	li	a3,2
9d00b410:	13070027 	beq	t8,a3,9d00b4b0 <strncat+0x190>
9d00b414:	24090003 	li	t1,3
9d00b418:	1309001f 	beq	t8,t1,9d00b498 <strncat+0x178>
9d00b41c:	24040004 	li	a0,4
9d00b420:	13040017 	beq	t8,a0,9d00b480 <strncat+0x160>
9d00b424:	240a0005 	li	t2,5
9d00b428:	130a000f 	beq	t8,t2,9d00b468 <strncat+0x148>
9d00b42c:	240b0006 	li	t3,6
9d00b430:	530b0008 	beql	t8,t3,9d00b454 <strncat+0x134>
9d00b434:	90ad0000 	lbu	t5,0(a1)
9d00b438:	90ac0000 	lbu	t4,0(a1)
9d00b43c:	24c6ffff 	addiu	a2,a2,-1
9d00b440:	24a50001 	addiu	a1,a1,1
9d00b444:	a06cffff 	sb	t4,-1(v1)
9d00b448:	11800040 	beqz	t4,9d00b54c <strncat+0x22c>
9d00b44c:	24630001 	addiu	v1,v1,1
9d00b450:	90ad0000 	lbu	t5,0(a1)
9d00b454:	24c6ffff 	addiu	a2,a2,-1
9d00b458:	24a50001 	addiu	a1,a1,1
9d00b45c:	a06dffff 	sb	t5,-1(v1)
9d00b460:	11a0003a 	beqz	t5,9d00b54c <strncat+0x22c>
9d00b464:	24630001 	addiu	v1,v1,1
9d00b468:	90ae0000 	lbu	t6,0(a1)
9d00b46c:	24c6ffff 	addiu	a2,a2,-1
9d00b470:	24a50001 	addiu	a1,a1,1
9d00b474:	a06effff 	sb	t6,-1(v1)
9d00b478:	11c00034 	beqz	t6,9d00b54c <strncat+0x22c>
9d00b47c:	24630001 	addiu	v1,v1,1
9d00b480:	90af0000 	lbu	t7,0(a1)
9d00b484:	24c6ffff 	addiu	a2,a2,-1
9d00b488:	24a50001 	addiu	a1,a1,1
9d00b48c:	a06fffff 	sb	t7,-1(v1)
9d00b490:	11e0002e 	beqz	t7,9d00b54c <strncat+0x22c>
9d00b494:	24630001 	addiu	v1,v1,1
9d00b498:	90b80000 	lbu	t8,0(a1)
9d00b49c:	24c6ffff 	addiu	a2,a2,-1
9d00b4a0:	24a50001 	addiu	a1,a1,1
9d00b4a4:	a078ffff 	sb	t8,-1(v1)
9d00b4a8:	13000028 	beqz	t8,9d00b54c <strncat+0x22c>
9d00b4ac:	24630001 	addiu	v1,v1,1
9d00b4b0:	24a50001 	addiu	a1,a1,1
9d00b4b4:	90b9ffff 	lbu	t9,-1(a1)
9d00b4b8:	13200024 	beqz	t9,9d00b54c <strncat+0x22c>
9d00b4bc:	a079ffff 	sb	t9,-1(v1)
9d00b4c0:	00603821 	move	a3,v1
9d00b4c4:	24c6ffff 	addiu	a2,a2,-1
9d00b4c8:	24630001 	addiu	v1,v1,1
9d00b4cc:	90a80000 	lbu	t0,0(a1)
9d00b4d0:	24c4ffff 	addiu	a0,a2,-1
9d00b4d4:	24690007 	addiu	t1,v1,7
9d00b4d8:	1100001c 	beqz	t0,9d00b54c <strncat+0x22c>
9d00b4dc:	a068ffff 	sb	t0,-1(v1)
9d00b4e0:	0480001c 	bltz	a0,9d00b554 <strncat+0x234>
9d00b4e4:	00000000 	nop
9d00b4e8:	90aa0001 	lbu	t2,1(a1)
9d00b4ec:	24c6fff8 	addiu	a2,a2,-8
9d00b4f0:	01203821 	move	a3,t1
9d00b4f4:	11400015 	beqz	t2,9d00b54c <strncat+0x22c>
9d00b4f8:	a06a0000 	sb	t2,0(v1)
9d00b4fc:	90ab0002 	lbu	t3,2(a1)
9d00b500:	11600012 	beqz	t3,9d00b54c <strncat+0x22c>
9d00b504:	a06b0001 	sb	t3,1(v1)
9d00b508:	90ac0003 	lbu	t4,3(a1)
9d00b50c:	1180000f 	beqz	t4,9d00b54c <strncat+0x22c>
9d00b510:	a06c0002 	sb	t4,2(v1)
9d00b514:	90ad0004 	lbu	t5,4(a1)
9d00b518:	11a0000c 	beqz	t5,9d00b54c <strncat+0x22c>
9d00b51c:	a06d0003 	sb	t5,3(v1)
9d00b520:	90ae0005 	lbu	t6,5(a1)
9d00b524:	11c00009 	beqz	t6,9d00b54c <strncat+0x22c>
9d00b528:	a06e0004 	sb	t6,4(v1)
9d00b52c:	90af0006 	lbu	t7,6(a1)
9d00b530:	24a50008 	addiu	a1,a1,8
9d00b534:	11e00005 	beqz	t7,9d00b54c <strncat+0x22c>
9d00b538:	a06f0005 	sb	t7,5(v1)
9d00b53c:	90b8ffff 	lbu	t8,-1(a1)
9d00b540:	24630008 	addiu	v1,v1,8
9d00b544:	1700ffe1 	bnez	t8,9d00b4cc <strncat+0x1ac>
9d00b548:	a138ffff 	sb	t8,-1(t1)
9d00b54c:	03e00008 	jr	ra
9d00b550:	00000000 	nop
9d00b554:	03e00008 	jr	ra
9d00b558:	a0e00000 	sb	zero,0(a3)

9d00b55c <strcmp>:
9d00b55c:	10000004 	b	9d00b570 <strcmp+0x14>
9d00b560:	24a50001 	addiu	a1,a1,1
9d00b564:	10400008 	beqz	v0,9d00b588 <strcmp+0x2c>
9d00b568:	00000000 	nop
9d00b56c:	24a50001 	addiu	a1,a1,1
9d00b570:	90820000 	lbu	v0,0(a0)
9d00b574:	90a3ffff 	lbu	v1,-1(a1)
9d00b578:	1043fffa 	beq	v0,v1,9d00b564 <strcmp+0x8>
9d00b57c:	24840001 	addiu	a0,a0,1
9d00b580:	03e00008 	jr	ra
9d00b584:	00431023 	subu	v0,v0,v1
9d00b588:	03e00008 	jr	ra
9d00b58c:	00001021 	move	v0,zero

9d00b590 <strncmp>:
9d00b590:	30c70007 	andi	a3,a2,0x7
9d00b594:	10e00041 	beqz	a3,9d00b69c <strncmp+0x10c>
9d00b598:	24c6ffff 	addiu	a2,a2,-1
9d00b59c:	04c00073 	bltz	a2,9d00b76c <strncmp+0x1dc>
9d00b5a0:	00000000 	nop
9d00b5a4:	24a50001 	addiu	a1,a1,1
9d00b5a8:	908e0000 	lbu	t6,0(a0)
9d00b5ac:	90afffff 	lbu	t7,-1(a1)
9d00b5b0:	15cf0070 	bne	t6,t7,9d00b774 <strncmp+0x1e4>
9d00b5b4:	00000000 	nop
9d00b5b8:	11c0006c 	beqz	t6,9d00b76c <strncmp+0x1dc>
9d00b5bc:	24840001 	addiu	a0,a0,1
9d00b5c0:	24020001 	li	v0,1
9d00b5c4:	10e20034 	beq	a3,v0,9d00b698 <strncmp+0x108>
9d00b5c8:	24030002 	li	v1,2
9d00b5cc:	10e3002b 	beq	a3,v1,9d00b67c <strncmp+0xec>
9d00b5d0:	24080003 	li	t0,3
9d00b5d4:	10e80022 	beq	a3,t0,9d00b660 <strncmp+0xd0>
9d00b5d8:	24090004 	li	t1,4
9d00b5dc:	10e90019 	beq	a3,t1,9d00b644 <strncmp+0xb4>
9d00b5e0:	240a0005 	li	t2,5
9d00b5e4:	10ea0010 	beq	a3,t2,9d00b628 <strncmp+0x98>
9d00b5e8:	240b0006 	li	t3,6
9d00b5ec:	10eb0008 	beq	a3,t3,9d00b610 <strncmp+0x80>
9d00b5f0:	90af0000 	lbu	t7,0(a1)
9d00b5f4:	908e0000 	lbu	t6,0(a0)
9d00b5f8:	24a50001 	addiu	a1,a1,1
9d00b5fc:	15cf005d 	bne	t6,t7,9d00b774 <strncmp+0x1e4>
9d00b600:	24c6ffff 	addiu	a2,a2,-1
9d00b604:	11c00059 	beqz	t6,9d00b76c <strncmp+0x1dc>
9d00b608:	24840001 	addiu	a0,a0,1
9d00b60c:	90af0000 	lbu	t7,0(a1)
9d00b610:	908e0000 	lbu	t6,0(a0)
9d00b614:	24a50001 	addiu	a1,a1,1
9d00b618:	15cf0056 	bne	t6,t7,9d00b774 <strncmp+0x1e4>
9d00b61c:	24c6ffff 	addiu	a2,a2,-1
9d00b620:	11c00052 	beqz	t6,9d00b76c <strncmp+0x1dc>
9d00b624:	24840001 	addiu	a0,a0,1
9d00b628:	90af0000 	lbu	t7,0(a1)
9d00b62c:	908e0000 	lbu	t6,0(a0)
9d00b630:	24a50001 	addiu	a1,a1,1
9d00b634:	15cf004f 	bne	t6,t7,9d00b774 <strncmp+0x1e4>
9d00b638:	24c6ffff 	addiu	a2,a2,-1
9d00b63c:	11c0004b 	beqz	t6,9d00b76c <strncmp+0x1dc>
9d00b640:	24840001 	addiu	a0,a0,1
9d00b644:	90af0000 	lbu	t7,0(a1)
9d00b648:	908e0000 	lbu	t6,0(a0)
9d00b64c:	24a50001 	addiu	a1,a1,1
9d00b650:	15cf0048 	bne	t6,t7,9d00b774 <strncmp+0x1e4>
9d00b654:	24c6ffff 	addiu	a2,a2,-1
9d00b658:	11c00044 	beqz	t6,9d00b76c <strncmp+0x1dc>
9d00b65c:	24840001 	addiu	a0,a0,1
9d00b660:	90af0000 	lbu	t7,0(a1)
9d00b664:	908e0000 	lbu	t6,0(a0)
9d00b668:	24a50001 	addiu	a1,a1,1
9d00b66c:	15cf0041 	bne	t6,t7,9d00b774 <strncmp+0x1e4>
9d00b670:	24c6ffff 	addiu	a2,a2,-1
9d00b674:	11c0003d 	beqz	t6,9d00b76c <strncmp+0x1dc>
9d00b678:	24840001 	addiu	a0,a0,1
9d00b67c:	24a50001 	addiu	a1,a1,1
9d00b680:	908e0000 	lbu	t6,0(a0)
9d00b684:	90afffff 	lbu	t7,-1(a1)
9d00b688:	15cf003a 	bne	t6,t7,9d00b774 <strncmp+0x1e4>
9d00b68c:	24c6ffff 	addiu	a2,a2,-1
9d00b690:	11c00036 	beqz	t6,9d00b76c <strncmp+0x1dc>
9d00b694:	24840001 	addiu	a0,a0,1
9d00b698:	24c6ffff 	addiu	a2,a2,-1
9d00b69c:	04c00033 	bltz	a2,9d00b76c <strncmp+0x1dc>
9d00b6a0:	00000000 	nop
9d00b6a4:	24ac0001 	addiu	t4,a1,1
9d00b6a8:	908e0000 	lbu	t6,0(a0)
9d00b6ac:	918fffff 	lbu	t7,-1(t4)
9d00b6b0:	15cf0030 	bne	t6,t7,9d00b774 <strncmp+0x1e4>
9d00b6b4:	00000000 	nop
9d00b6b8:	11c0002c 	beqz	t6,9d00b76c <strncmp+0x1dc>
9d00b6bc:	248d0001 	addiu	t5,a0,1
9d00b6c0:	908e0001 	lbu	t6,1(a0)
9d00b6c4:	90af0001 	lbu	t7,1(a1)
9d00b6c8:	15cf002a 	bne	t6,t7,9d00b774 <strncmp+0x1e4>
9d00b6cc:	00000000 	nop
9d00b6d0:	11c00026 	beqz	t6,9d00b76c <strncmp+0x1dc>
9d00b6d4:	00000000 	nop
9d00b6d8:	908e0002 	lbu	t6,2(a0)
9d00b6dc:	90af0002 	lbu	t7,2(a1)
9d00b6e0:	15cf0024 	bne	t6,t7,9d00b774 <strncmp+0x1e4>
9d00b6e4:	00000000 	nop
9d00b6e8:	11c00020 	beqz	t6,9d00b76c <strncmp+0x1dc>
9d00b6ec:	00000000 	nop
9d00b6f0:	908e0003 	lbu	t6,3(a0)
9d00b6f4:	90af0003 	lbu	t7,3(a1)
9d00b6f8:	15cf001e 	bne	t6,t7,9d00b774 <strncmp+0x1e4>
9d00b6fc:	00000000 	nop
9d00b700:	11c0001a 	beqz	t6,9d00b76c <strncmp+0x1dc>
9d00b704:	00000000 	nop
9d00b708:	908e0004 	lbu	t6,4(a0)
9d00b70c:	90af0004 	lbu	t7,4(a1)
9d00b710:	15cf0018 	bne	t6,t7,9d00b774 <strncmp+0x1e4>
9d00b714:	00000000 	nop
9d00b718:	11c00014 	beqz	t6,9d00b76c <strncmp+0x1dc>
9d00b71c:	00000000 	nop
9d00b720:	91ae0004 	lbu	t6,4(t5)
9d00b724:	918f0004 	lbu	t7,4(t4)
9d00b728:	15cf0012 	bne	t6,t7,9d00b774 <strncmp+0x1e4>
9d00b72c:	00000000 	nop
9d00b730:	11c0000e 	beqz	t6,9d00b76c <strncmp+0x1dc>
9d00b734:	00000000 	nop
9d00b738:	91ae0005 	lbu	t6,5(t5)
9d00b73c:	918f0005 	lbu	t7,5(t4)
9d00b740:	15cf000c 	bne	t6,t7,9d00b774 <strncmp+0x1e4>
9d00b744:	00000000 	nop
9d00b748:	11c00008 	beqz	t6,9d00b76c <strncmp+0x1dc>
9d00b74c:	00000000 	nop
9d00b750:	25850007 	addiu	a1,t4,7
9d00b754:	91ae0006 	lbu	t6,6(t5)
9d00b758:	90afffff 	lbu	t7,-1(a1)
9d00b75c:	15cf0005 	bne	t6,t7,9d00b774 <strncmp+0x1e4>
9d00b760:	24c6fff9 	addiu	a2,a2,-7
9d00b764:	15c0ffcc 	bnez	t6,9d00b698 <strncmp+0x108>
9d00b768:	25a40007 	addiu	a0,t5,7
9d00b76c:	03e00008 	jr	ra
9d00b770:	00001021 	move	v0,zero
9d00b774:	03e00008 	jr	ra
9d00b778:	01cf1023 	subu	v0,t6,t7

9d00b77c <strstr>:
9d00b77c:	24840001 	addiu	a0,a0,1
9d00b780:	90a80000 	lbu	t0,0(a1)
9d00b784:	9083ffff 	lbu	v1,-1(a0)
9d00b788:	14680012 	bne	v1,t0,9d00b7d4 <strstr+0x58>
9d00b78c:	2482ffff 	addiu	v0,a0,-1
9d00b790:	11000016 	beqz	t0,9d00b7ec <strstr+0x70>
9d00b794:	00000000 	nop
9d00b798:	10000003 	b	9d00b7a8 <strstr+0x2c>
9d00b79c:	00004821 	move	t1,zero
9d00b7a0:	10c00012 	beqz	a2,9d00b7ec <strstr+0x70>
9d00b7a4:	00000000 	nop
9d00b7a8:	25290001 	addiu	t1,t1,1
9d00b7ac:	7c49318a 	lbux	a2,t1(v0)
9d00b7b0:	7ca9398a 	lbux	a3,t1(a1)
9d00b7b4:	10c7fffa 	beq	a2,a3,9d00b7a0 <strstr+0x24>
9d00b7b8:	00000000 	nop
9d00b7bc:	10e0000b 	beqz	a3,9d00b7ec <strstr+0x70>
9d00b7c0:	00000000 	nop
9d00b7c4:	24840001 	addiu	a0,a0,1
9d00b7c8:	9083ffff 	lbu	v1,-1(a0)
9d00b7cc:	1068fff0 	beq	v1,t0,9d00b790 <strstr+0x14>
9d00b7d0:	2482ffff 	addiu	v0,a0,-1
9d00b7d4:	11000005 	beqz	t0,9d00b7ec <strstr+0x70>
9d00b7d8:	00000000 	nop
9d00b7dc:	5460fffa 	bnezl	v1,9d00b7c8 <strstr+0x4c>
9d00b7e0:	24840001 	addiu	a0,a0,1
9d00b7e4:	03e00008 	jr	ra
9d00b7e8:	00001021 	move	v0,zero
9d00b7ec:	03e00008 	jr	ra
9d00b7f0:	00000000 	nop

9d00b7f4 <strlen>:
9d00b7f4:	90820000 	lbu	v0,0(a0)
9d00b7f8:	10400021 	beqz	v0,9d00b880 <strlen+0x8c>
9d00b7fc:	00001021 	move	v0,zero
9d00b800:	24420001 	addiu	v0,v0,1
9d00b804:	7c82298a 	lbux	a1,v0(a0)
9d00b808:	10a0001d 	beqz	a1,9d00b880 <strlen+0x8c>
9d00b80c:	00401821 	move	v1,v0
9d00b810:	24420001 	addiu	v0,v0,1
9d00b814:	7c82318a 	lbux	a2,v0(a0)
9d00b818:	10c0001d 	beqz	a2,9d00b890 <strlen+0x9c>
9d00b81c:	00000000 	nop
9d00b820:	24620002 	addiu	v0,v1,2
9d00b824:	7c82398a 	lbux	a3,v0(a0)
9d00b828:	10e00019 	beqz	a3,9d00b890 <strlen+0x9c>
9d00b82c:	00000000 	nop
9d00b830:	24620003 	addiu	v0,v1,3
9d00b834:	7c82418a 	lbux	t0,v0(a0)
9d00b838:	11000015 	beqz	t0,9d00b890 <strlen+0x9c>
9d00b83c:	00000000 	nop
9d00b840:	24620004 	addiu	v0,v1,4
9d00b844:	7c82498a 	lbux	t1,v0(a0)
9d00b848:	11200011 	beqz	t1,9d00b890 <strlen+0x9c>
9d00b84c:	00000000 	nop
9d00b850:	24620005 	addiu	v0,v1,5
9d00b854:	7c82518a 	lbux	t2,v0(a0)
9d00b858:	1140000d 	beqz	t2,9d00b890 <strlen+0x9c>
9d00b85c:	00000000 	nop
9d00b860:	24620006 	addiu	v0,v1,6
9d00b864:	7c82598a 	lbux	t3,v0(a0)
9d00b868:	11600009 	beqz	t3,9d00b890 <strlen+0x9c>
9d00b86c:	00000000 	nop
9d00b870:	24620007 	addiu	v0,v1,7
9d00b874:	7c82618a 	lbux	t4,v0(a0)
9d00b878:	5580ffe2 	bnezl	t4,9d00b804 <strlen+0x10>
9d00b87c:	24420001 	addiu	v0,v0,1
9d00b880:	03e00008 	jr	ra
9d00b884:	00000000 	nop
9d00b888:	03e00008 	jr	ra
9d00b88c:	00000000 	nop
9d00b890:	03e00008 	jr	ra
9d00b894:	00000000 	nop

9d00b898 <strchr>:
9d00b898:	10000003 	b	9d00b8a8 <strchr+0x10>
9d00b89c:	30a500ff 	andi	a1,a1,0xff
9d00b8a0:	10400006 	beqz	v0,9d00b8bc <strchr+0x24>
9d00b8a4:	24840001 	addiu	a0,a0,1
9d00b8a8:	90820000 	lbu	v0,0(a0)
9d00b8ac:	1445fffc 	bne	v0,a1,9d00b8a0 <strchr+0x8>
9d00b8b0:	00000000 	nop
9d00b8b4:	03e00008 	jr	ra
9d00b8b8:	00801021 	move	v0,a0
9d00b8bc:	03e00008 	jr	ra
9d00b8c0:	00001021 	move	v0,zero

9d00b8c4 <strpbrk>:
9d00b8c4:	90860000 	lbu	a2,0(a0)
9d00b8c8:	54c00006 	bnezl	a2,9d00b8e4 <strpbrk+0x20>
9d00b8cc:	90a30000 	lbu	v1,0(a1)
9d00b8d0:	10000008 	b	9d00b8f4 <strpbrk+0x30>
9d00b8d4:	00000000 	nop
9d00b8d8:	10600008 	beqz	v1,9d00b8fc <strpbrk+0x38>
9d00b8dc:	00000000 	nop
9d00b8e0:	90a30000 	lbu	v1,0(a1)
9d00b8e4:	14c3fffc 	bne	a2,v1,9d00b8d8 <strpbrk+0x14>
9d00b8e8:	24a50001 	addiu	a1,a1,1
9d00b8ec:	03e00008 	jr	ra
9d00b8f0:	00801021 	move	v0,a0
9d00b8f4:	03e00008 	jr	ra
9d00b8f8:	00000000 	nop
9d00b8fc:	03e00008 	jr	ra
9d00b900:	00001021 	move	v0,zero

9d00b904 <strsep>:
9d00b904:	8c820000 	lw	v0,0(a0)
9d00b908:	1040000f 	beqz	v0,9d00b948 <strsep+0x44>
9d00b90c:	00000000 	nop
9d00b910:	90460000 	lbu	a2,0(v0)
9d00b914:	54c00006 	bnezl	a2,9d00b930 <strsep+0x2c>
9d00b918:	90a30000 	lbu	v1,0(a1)
9d00b91c:	03e00008 	jr	ra
9d00b920:	ac800000 	sw	zero,0(a0)
9d00b924:	1060fffd 	beqz	v1,9d00b91c <strsep+0x18>
9d00b928:	00000000 	nop
9d00b92c:	90a30000 	lbu	v1,0(a1)
9d00b930:	14c3fffc 	bne	a2,v1,9d00b924 <strsep+0x20>
9d00b934:	24a50001 	addiu	a1,a1,1
9d00b938:	24450001 	addiu	a1,v0,1
9d00b93c:	ac850000 	sw	a1,0(a0)
9d00b940:	03e00008 	jr	ra
9d00b944:	a0400000 	sb	zero,0(v0)
9d00b948:	03e00008 	jr	ra
9d00b94c:	00001021 	move	v0,zero

9d00b950 <strtok>:
9d00b950:	10800022 	beqz	a0,9d00b9dc <strtok+0x8c>
9d00b954:	3c098000 	lui	t1,0x8000
9d00b958:	24820001 	addiu	v0,a0,1
9d00b95c:	00a01821 	move	v1,a1
9d00b960:	10000003 	b	9d00b970 <strtok+0x20>
9d00b964:	904cffff 	lbu	t4,-1(v0)
9d00b968:	5186fffb 	beql	t4,a2,9d00b958 <strtok+0x8>
9d00b96c:	00402021 	move	a0,v0
9d00b970:	24630001 	addiu	v1,v1,1
9d00b974:	9066ffff 	lbu	a2,-1(v1)
9d00b978:	14c0fffb 	bnez	a2,9d00b968 <strtok+0x18>
9d00b97c:	00000000 	nop
9d00b980:	5180001b 	beqzl	t4,9d00b9f0 <strtok+0xa0>
9d00b984:	00001021 	move	v0,zero
9d00b988:	24480001 	addiu	t0,v0,1
9d00b98c:	9107ffff 	lbu	a3,-1(t0)
9d00b990:	10000003 	b	9d00b9a0 <strtok+0x50>
9d00b994:	00a05021 	move	t2,a1
9d00b998:	5160fffb 	beqzl	t3,9d00b988 <strtok+0x38>
9d00b99c:	01001021 	move	v0,t0
9d00b9a0:	254a0001 	addiu	t2,t2,1
9d00b9a4:	914bffff 	lbu	t3,-1(t2)
9d00b9a8:	1567fffb 	bne	t3,a3,9d00b998 <strtok+0x48>
9d00b9ac:	00000000 	nop
9d00b9b0:	50e00007 	beqzl	a3,9d00b9d0 <strtok+0x80>
9d00b9b4:	00004021 	move	t0,zero
9d00b9b8:	a0400000 	sb	zero,0(v0)
9d00b9bc:	ad280038 	sw	t0,56(t1)
9d00b9c0:	03e00008 	jr	ra
9d00b9c4:	00801021 	move	v0,a0
9d00b9c8:	1000ffef 	b	9d00b988 <strtok+0x38>
9d00b9cc:	01001021 	move	v0,t0
9d00b9d0:	00801021 	move	v0,a0
9d00b9d4:	03e00008 	jr	ra
9d00b9d8:	ad280038 	sw	t0,56(t1)
9d00b9dc:	8d240038 	lw	a0,56(t1)
9d00b9e0:	5480ffde 	bnezl	a0,9d00b95c <strtok+0xc>
9d00b9e4:	24820001 	addiu	v0,a0,1
9d00b9e8:	03e00008 	jr	ra
9d00b9ec:	00001021 	move	v0,zero
9d00b9f0:	03e00008 	jr	ra
9d00b9f4:	ad200038 	sw	zero,56(t1)

9d00b9f8 <memcpy>:
9d00b9f8:	00801021 	move	v0,a0
9d00b9fc:	10c00067 	beqz	a2,9d00bb9c <memcpy+0x1a4>
9d00ba00:	24caffff 	addiu	t2,a2,-1
9d00ba04:	24830004 	addiu	v1,a0,4
9d00ba08:	24a70004 	addiu	a3,a1,4
9d00ba0c:	00a3402b 	sltu	t0,a1,v1
9d00ba10:	0087202b 	sltu	a0,a0,a3
9d00ba14:	39090001 	xori	t1,t0,0x1
9d00ba18:	388b0001 	xori	t3,a0,0x1
9d00ba1c:	2ccc000a 	sltiu	t4,a2,10
9d00ba20:	012b6825 	or	t5,t1,t3
9d00ba24:	398e0001 	xori	t6,t4,0x1
9d00ba28:	01cd7824 	and	t7,t6,t5
9d00ba2c:	11e0005d 	beqz	t7,9d00bba4 <memcpy+0x1ac>
9d00ba30:	0045c025 	or	t8,v0,a1
9d00ba34:	33190003 	andi	t9,t8,0x3
9d00ba38:	1720005a 	bnez	t9,9d00bba4 <memcpy+0x1ac>
9d00ba3c:	24c8fffc 	addiu	t0,a2,-4
9d00ba40:	00082082 	srl	a0,t0,0x2
9d00ba44:	248b0001 	addiu	t3,a0,1
9d00ba48:	2d4c0003 	sltiu	t4,t2,3
9d00ba4c:	1580009f 	bnez	t4,9d00bccc <memcpy+0x2d4>
9d00ba50:	000b4880 	sll	t1,t3,0x2
9d00ba54:	8cad0000 	lw	t5,0(a1)
9d00ba58:	24080001 	li	t0,1
9d00ba5c:	010b702b 	sltu	t6,t0,t3
9d00ba60:	308f0007 	andi	t7,a0,0x7
9d00ba64:	11c00049 	beqz	t6,9d00bb8c <memcpy+0x194>
9d00ba68:	ac4d0000 	sw	t5,0(v0)
9d00ba6c:	51e00033 	beqzl	t7,9d00bb3c <memcpy+0x144>
9d00ba70:	8cef0000 	lw	t7,0(a3)
9d00ba74:	11e80029 	beq	t7,t0,9d00bb1c <memcpy+0x124>
9d00ba78:	24180002 	li	t8,2
9d00ba7c:	11f80022 	beq	t7,t8,9d00bb08 <memcpy+0x110>
9d00ba80:	24190003 	li	t9,3
9d00ba84:	11f9001b 	beq	t7,t9,9d00baf4 <memcpy+0xfc>
9d00ba88:	24040004 	li	a0,4
9d00ba8c:	11e40014 	beq	t7,a0,9d00bae0 <memcpy+0xe8>
9d00ba90:	240c0005 	li	t4,5
9d00ba94:	11ec000d 	beq	t7,t4,9d00bacc <memcpy+0xd4>
9d00ba98:	240d0006 	li	t5,6
9d00ba9c:	51ed0007 	beql	t7,t5,9d00babc <memcpy+0xc4>
9d00baa0:	8cef0000 	lw	t7,0(a3)
9d00baa4:	8cee0000 	lw	t6,0(a3)
9d00baa8:	24080002 	li	t0,2
9d00baac:	24e70004 	addiu	a3,a3,4
9d00bab0:	ac6e0000 	sw	t6,0(v1)
9d00bab4:	24630004 	addiu	v1,v1,4
9d00bab8:	8cef0000 	lw	t7,0(a3)
9d00babc:	25080001 	addiu	t0,t0,1
9d00bac0:	24e70004 	addiu	a3,a3,4
9d00bac4:	ac6f0000 	sw	t7,0(v1)
9d00bac8:	24630004 	addiu	v1,v1,4
9d00bacc:	8cf80000 	lw	t8,0(a3)
9d00bad0:	25080001 	addiu	t0,t0,1
9d00bad4:	24e70004 	addiu	a3,a3,4
9d00bad8:	ac780000 	sw	t8,0(v1)
9d00badc:	24630004 	addiu	v1,v1,4
9d00bae0:	8cf90000 	lw	t9,0(a3)
9d00bae4:	25080001 	addiu	t0,t0,1
9d00bae8:	24e70004 	addiu	a3,a3,4
9d00baec:	ac790000 	sw	t9,0(v1)
9d00baf0:	24630004 	addiu	v1,v1,4
9d00baf4:	8ce40000 	lw	a0,0(a3)
9d00baf8:	25080001 	addiu	t0,t0,1
9d00bafc:	24e70004 	addiu	a3,a3,4
9d00bb00:	ac640000 	sw	a0,0(v1)
9d00bb04:	24630004 	addiu	v1,v1,4
9d00bb08:	8cec0000 	lw	t4,0(a3)
9d00bb0c:	25080001 	addiu	t0,t0,1
9d00bb10:	24e70004 	addiu	a3,a3,4
9d00bb14:	ac6c0000 	sw	t4,0(v1)
9d00bb18:	24630004 	addiu	v1,v1,4
9d00bb1c:	8ced0000 	lw	t5,0(a3)
9d00bb20:	25080001 	addiu	t0,t0,1
9d00bb24:	010b702b 	sltu	t6,t0,t3
9d00bb28:	ac6d0000 	sw	t5,0(v1)
9d00bb2c:	24e70004 	addiu	a3,a3,4
9d00bb30:	11c00016 	beqz	t6,9d00bb8c <memcpy+0x194>
9d00bb34:	24630004 	addiu	v1,v1,4
9d00bb38:	8cef0000 	lw	t7,0(a3)
9d00bb3c:	25080008 	addiu	t0,t0,8
9d00bb40:	010bc02b 	sltu	t8,t0,t3
9d00bb44:	ac6f0000 	sw	t7,0(v1)
9d00bb48:	8cf90004 	lw	t9,4(a3)
9d00bb4c:	24630020 	addiu	v1,v1,32
9d00bb50:	24e70020 	addiu	a3,a3,32
9d00bb54:	ac79ffe4 	sw	t9,-28(v1)
9d00bb58:	8ce4ffe8 	lw	a0,-24(a3)
9d00bb5c:	ac64ffe8 	sw	a0,-24(v1)
9d00bb60:	8cecffec 	lw	t4,-20(a3)
9d00bb64:	ac6cffec 	sw	t4,-20(v1)
9d00bb68:	8cedfff0 	lw	t5,-16(a3)
9d00bb6c:	ac6dfff0 	sw	t5,-16(v1)
9d00bb70:	8ceefff4 	lw	t6,-12(a3)
9d00bb74:	ac6efff4 	sw	t6,-12(v1)
9d00bb78:	8ceffff8 	lw	t7,-8(a3)
9d00bb7c:	ac6ffff8 	sw	t7,-8(v1)
9d00bb80:	8cf9fffc 	lw	t9,-4(a3)
9d00bb84:	1700ffec 	bnez	t8,9d00bb38 <memcpy+0x140>
9d00bb88:	ac79fffc 	sw	t9,-4(v1)
9d00bb8c:	00491821 	addu	v1,v0,t1
9d00bb90:	00a92821 	addu	a1,a1,t1
9d00bb94:	14c9004e 	bne	a2,t1,9d00bcd0 <memcpy+0x2d8>
9d00bb98:	01495023 	subu	t2,t2,t1
9d00bb9c:	03e00008 	jr	ra
9d00bba0:	00000000 	nop
9d00bba4:	24a40001 	addiu	a0,a1,1
9d00bba8:	9089ffff 	lbu	t1,-1(a0)
9d00bbac:	00465021 	addu	t2,v0,a2
9d00bbb0:	00023827 	nor	a3,zero,v0
9d00bbb4:	0147c021 	addu	t8,t2,a3
9d00bbb8:	24430001 	addiu	v1,v0,1
9d00bbbc:	330c0007 	andi	t4,t8,0x7
9d00bbc0:	106afff6 	beq	v1,t2,9d00bb9c <memcpy+0x1a4>
9d00bbc4:	a069ffff 	sb	t1,-1(v1)
9d00bbc8:	5180002c 	beqzl	t4,9d00bc7c <memcpy+0x284>
9d00bbcc:	908e0000 	lbu	t6,0(a0)
9d00bbd0:	240d0001 	li	t5,1
9d00bbd4:	118d0023 	beq	t4,t5,9d00bc64 <memcpy+0x26c>
9d00bbd8:	240e0002 	li	t6,2
9d00bbdc:	118e001d 	beq	t4,t6,9d00bc54 <memcpy+0x25c>
9d00bbe0:	240f0003 	li	t7,3
9d00bbe4:	118f0017 	beq	t4,t7,9d00bc44 <memcpy+0x24c>
9d00bbe8:	24190004 	li	t9,4
9d00bbec:	11990011 	beq	t4,t9,9d00bc34 <memcpy+0x23c>
9d00bbf0:	24060005 	li	a2,5
9d00bbf4:	1186000b 	beq	t4,a2,9d00bc24 <memcpy+0x22c>
9d00bbf8:	240b0006 	li	t3,6
9d00bbfc:	518b0006 	beql	t4,t3,9d00bc18 <memcpy+0x220>
9d00bc00:	90850000 	lbu	a1,0(a0)
9d00bc04:	90a80001 	lbu	t0,1(a1)
9d00bc08:	24a40002 	addiu	a0,a1,2
9d00bc0c:	24430002 	addiu	v1,v0,2
9d00bc10:	a0480001 	sb	t0,1(v0)
9d00bc14:	90850000 	lbu	a1,0(a0)
9d00bc18:	24630001 	addiu	v1,v1,1
9d00bc1c:	24840001 	addiu	a0,a0,1
9d00bc20:	a065ffff 	sb	a1,-1(v1)
9d00bc24:	90890000 	lbu	t1,0(a0)
9d00bc28:	24630001 	addiu	v1,v1,1
9d00bc2c:	24840001 	addiu	a0,a0,1
9d00bc30:	a069ffff 	sb	t1,-1(v1)
9d00bc34:	90870000 	lbu	a3,0(a0)
9d00bc38:	24630001 	addiu	v1,v1,1
9d00bc3c:	24840001 	addiu	a0,a0,1
9d00bc40:	a067ffff 	sb	a3,-1(v1)
9d00bc44:	90980000 	lbu	t8,0(a0)
9d00bc48:	24630001 	addiu	v1,v1,1
9d00bc4c:	24840001 	addiu	a0,a0,1
9d00bc50:	a078ffff 	sb	t8,-1(v1)
9d00bc54:	908c0000 	lbu	t4,0(a0)
9d00bc58:	24630001 	addiu	v1,v1,1
9d00bc5c:	24840001 	addiu	a0,a0,1
9d00bc60:	a06cffff 	sb	t4,-1(v1)
9d00bc64:	24840001 	addiu	a0,a0,1
9d00bc68:	908dffff 	lbu	t5,-1(a0)
9d00bc6c:	24630001 	addiu	v1,v1,1
9d00bc70:	106affca 	beq	v1,t2,9d00bb9c <memcpy+0x1a4>
9d00bc74:	a06dffff 	sb	t5,-1(v1)
9d00bc78:	908e0000 	lbu	t6,0(a0)
9d00bc7c:	24840008 	addiu	a0,a0,8
9d00bc80:	24630008 	addiu	v1,v1,8
9d00bc84:	a06efff8 	sb	t6,-8(v1)
9d00bc88:	908ffff9 	lbu	t7,-7(a0)
9d00bc8c:	a06ffff9 	sb	t7,-7(v1)
9d00bc90:	9099fffa 	lbu	t9,-6(a0)
9d00bc94:	a079fffa 	sb	t9,-6(v1)
9d00bc98:	9086fffb 	lbu	a2,-5(a0)
9d00bc9c:	a066fffb 	sb	a2,-5(v1)
9d00bca0:	908bfffc 	lbu	t3,-4(a0)
9d00bca4:	a06bfffc 	sb	t3,-4(v1)
9d00bca8:	9088fffd 	lbu	t0,-3(a0)
9d00bcac:	a068fffd 	sb	t0,-3(v1)
9d00bcb0:	9085fffe 	lbu	a1,-2(a0)
9d00bcb4:	a065fffe 	sb	a1,-2(v1)
9d00bcb8:	9089ffff 	lbu	t1,-1(a0)
9d00bcbc:	146affee 	bne	v1,t2,9d00bc78 <memcpy+0x280>
9d00bcc0:	a069ffff 	sb	t1,-1(v1)
9d00bcc4:	03e00008 	jr	ra
9d00bcc8:	00000000 	nop
9d00bccc:	00401821 	move	v1,v0
9d00bcd0:	90a60000 	lbu	a2,0(a1)
9d00bcd4:	1140ffb1 	beqz	t2,9d00bb9c <memcpy+0x1a4>
9d00bcd8:	a0660000 	sb	a2,0(v1)
9d00bcdc:	90ab0001 	lbu	t3,1(a1)
9d00bce0:	24080001 	li	t0,1
9d00bce4:	1148ffad 	beq	t2,t0,9d00bb9c <memcpy+0x1a4>
9d00bce8:	a06b0001 	sb	t3,1(v1)
9d00bcec:	90a50002 	lbu	a1,2(a1)
9d00bcf0:	03e00008 	jr	ra
9d00bcf4:	a0650002 	sb	a1,2(v1)

9d00bcf8 <memmove>:
9d00bcf8:	00a4182b 	sltu	v1,a1,a0
9d00bcfc:	14600073 	bnez	v1,9d00becc <memmove+0x1d4>
9d00bd00:	00801021 	move	v0,a0
9d00bd04:	10c000bb 	beqz	a2,9d00bff4 <memmove+0x2fc>
9d00bd08:	24caffff 	addiu	t2,a2,-1
9d00bd0c:	24830004 	addiu	v1,a0,4
9d00bd10:	24a40004 	addiu	a0,a1,4
9d00bd14:	00a3482b 	sltu	t1,a1,v1
9d00bd18:	0044382b 	sltu	a3,v0,a0
9d00bd1c:	392b0001 	xori	t3,t1,0x1
9d00bd20:	38ec0001 	xori	t4,a3,0x1
9d00bd24:	2ccd000a 	sltiu	t5,a2,10
9d00bd28:	016c7025 	or	t6,t3,t4
9d00bd2c:	39af0001 	xori	t7,t5,0x1
9d00bd30:	01eec024 	and	t8,t7,t6
9d00bd34:	130000b3 	beqz	t8,9d00c004 <memmove+0x30c>
9d00bd38:	0045c825 	or	t9,v0,a1
9d00bd3c:	33280003 	andi	t0,t9,0x3
9d00bd40:	150000b0 	bnez	t0,9d00c004 <memmove+0x30c>
9d00bd44:	24c9fffc 	addiu	t1,a2,-4
9d00bd48:	00093882 	srl	a3,t1,0x2
9d00bd4c:	24eb0001 	addiu	t3,a3,1
9d00bd50:	2d4c0003 	sltiu	t4,t2,3
9d00bd54:	158000a9 	bnez	t4,9d00bffc <memmove+0x304>
9d00bd58:	000b4880 	sll	t1,t3,0x2
9d00bd5c:	8cad0000 	lw	t5,0(a1)
9d00bd60:	24080001 	li	t0,1
9d00bd64:	010b702b 	sltu	t6,t0,t3
9d00bd68:	30ef0007 	andi	t7,a3,0x7
9d00bd6c:	11c00049 	beqz	t6,9d00be94 <memmove+0x19c>
9d00bd70:	ac4d0000 	sw	t5,0(v0)
9d00bd74:	51e00033 	beqzl	t7,9d00be44 <memmove+0x14c>
9d00bd78:	8c8f0000 	lw	t7,0(a0)
9d00bd7c:	11e80029 	beq	t7,t0,9d00be24 <memmove+0x12c>
9d00bd80:	24180002 	li	t8,2
9d00bd84:	11f80022 	beq	t7,t8,9d00be10 <memmove+0x118>
9d00bd88:	24190003 	li	t9,3
9d00bd8c:	11f9001b 	beq	t7,t9,9d00bdfc <memmove+0x104>
9d00bd90:	24070004 	li	a3,4
9d00bd94:	11e70014 	beq	t7,a3,9d00bde8 <memmove+0xf0>
9d00bd98:	240c0005 	li	t4,5
9d00bd9c:	11ec000d 	beq	t7,t4,9d00bdd4 <memmove+0xdc>
9d00bda0:	240d0006 	li	t5,6
9d00bda4:	51ed0007 	beql	t7,t5,9d00bdc4 <memmove+0xcc>
9d00bda8:	8c8f0000 	lw	t7,0(a0)
9d00bdac:	8c8e0000 	lw	t6,0(a0)
9d00bdb0:	24080002 	li	t0,2
9d00bdb4:	24840004 	addiu	a0,a0,4
9d00bdb8:	ac6e0000 	sw	t6,0(v1)
9d00bdbc:	24630004 	addiu	v1,v1,4
9d00bdc0:	8c8f0000 	lw	t7,0(a0)
9d00bdc4:	25080001 	addiu	t0,t0,1
9d00bdc8:	24840004 	addiu	a0,a0,4
9d00bdcc:	ac6f0000 	sw	t7,0(v1)
9d00bdd0:	24630004 	addiu	v1,v1,4
9d00bdd4:	8c980000 	lw	t8,0(a0)
9d00bdd8:	25080001 	addiu	t0,t0,1
9d00bddc:	24840004 	addiu	a0,a0,4
9d00bde0:	ac780000 	sw	t8,0(v1)
9d00bde4:	24630004 	addiu	v1,v1,4
9d00bde8:	8c990000 	lw	t9,0(a0)
9d00bdec:	25080001 	addiu	t0,t0,1
9d00bdf0:	24840004 	addiu	a0,a0,4
9d00bdf4:	ac790000 	sw	t9,0(v1)
9d00bdf8:	24630004 	addiu	v1,v1,4
9d00bdfc:	8c870000 	lw	a3,0(a0)
9d00be00:	25080001 	addiu	t0,t0,1
9d00be04:	24840004 	addiu	a0,a0,4
9d00be08:	ac670000 	sw	a3,0(v1)
9d00be0c:	24630004 	addiu	v1,v1,4
9d00be10:	8c8c0000 	lw	t4,0(a0)
9d00be14:	25080001 	addiu	t0,t0,1
9d00be18:	24840004 	addiu	a0,a0,4
9d00be1c:	ac6c0000 	sw	t4,0(v1)
9d00be20:	24630004 	addiu	v1,v1,4
9d00be24:	8c8d0000 	lw	t5,0(a0)
9d00be28:	25080001 	addiu	t0,t0,1
9d00be2c:	010b702b 	sltu	t6,t0,t3
9d00be30:	ac6d0000 	sw	t5,0(v1)
9d00be34:	24840004 	addiu	a0,a0,4
9d00be38:	11c00016 	beqz	t6,9d00be94 <memmove+0x19c>
9d00be3c:	24630004 	addiu	v1,v1,4
9d00be40:	8c8f0000 	lw	t7,0(a0)
9d00be44:	25080008 	addiu	t0,t0,8
9d00be48:	010bc02b 	sltu	t8,t0,t3
9d00be4c:	ac6f0000 	sw	t7,0(v1)
9d00be50:	8c990004 	lw	t9,4(a0)
9d00be54:	24630020 	addiu	v1,v1,32
9d00be58:	24840020 	addiu	a0,a0,32
9d00be5c:	ac79ffe4 	sw	t9,-28(v1)
9d00be60:	8c87ffe8 	lw	a3,-24(a0)
9d00be64:	ac67ffe8 	sw	a3,-24(v1)
9d00be68:	8c8cffec 	lw	t4,-20(a0)
9d00be6c:	ac6cffec 	sw	t4,-20(v1)
9d00be70:	8c8dfff0 	lw	t5,-16(a0)
9d00be74:	ac6dfff0 	sw	t5,-16(v1)
9d00be78:	8c8efff4 	lw	t6,-12(a0)
9d00be7c:	ac6efff4 	sw	t6,-12(v1)
9d00be80:	8c8ffff8 	lw	t7,-8(a0)
9d00be84:	ac6ffff8 	sw	t7,-8(v1)
9d00be88:	8c99fffc 	lw	t9,-4(a0)
9d00be8c:	1700ffec 	bnez	t8,9d00be40 <memmove+0x148>
9d00be90:	ac79fffc 	sw	t9,-4(v1)
9d00be94:	00491821 	addu	v1,v0,t1
9d00be98:	00a92821 	addu	a1,a1,t1
9d00be9c:	10c90055 	beq	a2,t1,9d00bff4 <memmove+0x2fc>
9d00bea0:	01495023 	subu	t2,t2,t1
9d00bea4:	90a60000 	lbu	a2,0(a1)
9d00bea8:	11400052 	beqz	t2,9d00bff4 <memmove+0x2fc>
9d00beac:	a0660000 	sb	a2,0(v1)
9d00beb0:	90ab0001 	lbu	t3,1(a1)
9d00beb4:	24080001 	li	t0,1
9d00beb8:	1148004e 	beq	t2,t0,9d00bff4 <memmove+0x2fc>
9d00bebc:	a06b0001 	sb	t3,1(v1)
9d00bec0:	90a50002 	lbu	a1,2(a1)
9d00bec4:	03e00008 	jr	ra
9d00bec8:	a0650002 	sb	a1,2(v1)
9d00becc:	00864021 	addu	t0,a0,a2
9d00bed0:	10c00048 	beqz	a2,9d00bff4 <memmove+0x2fc>
9d00bed4:	00a62821 	addu	a1,a1,a2
9d00bed8:	24a5ffff 	addiu	a1,a1,-1
9d00bedc:	90a70000 	lbu	a3,0(a1)
9d00bee0:	01062023 	subu	a0,t0,a2
9d00bee4:	2503ffff 	addiu	v1,t0,-1
9d00bee8:	24c6ffff 	addiu	a2,a2,-1
9d00beec:	30c90007 	andi	t1,a2,0x7
9d00bef0:	10640040 	beq	v1,a0,9d00bff4 <memmove+0x2fc>
9d00bef4:	a0670000 	sb	a3,0(v1)
9d00bef8:	5120002c 	beqzl	t1,9d00bfac <memmove+0x2b4>
9d00befc:	90abffff 	lbu	t3,-1(a1)
9d00bf00:	240a0001 	li	t2,1
9d00bf04:	112a0023 	beq	t1,t2,9d00bf94 <memmove+0x29c>
9d00bf08:	240b0002 	li	t3,2
9d00bf0c:	112b001d 	beq	t1,t3,9d00bf84 <memmove+0x28c>
9d00bf10:	240c0003 	li	t4,3
9d00bf14:	112c0017 	beq	t1,t4,9d00bf74 <memmove+0x27c>
9d00bf18:	240d0004 	li	t5,4
9d00bf1c:	112d0011 	beq	t1,t5,9d00bf64 <memmove+0x26c>
9d00bf20:	240e0005 	li	t6,5
9d00bf24:	112e000b 	beq	t1,t6,9d00bf54 <memmove+0x25c>
9d00bf28:	240f0006 	li	t7,6
9d00bf2c:	512f0006 	beql	t1,t7,9d00bf48 <memmove+0x250>
9d00bf30:	90b9ffff 	lbu	t9,-1(a1)
9d00bf34:	90b8ffff 	lbu	t8,-1(a1)
9d00bf38:	2463ffff 	addiu	v1,v1,-1
9d00bf3c:	24a5ffff 	addiu	a1,a1,-1
9d00bf40:	a0780000 	sb	t8,0(v1)
9d00bf44:	90b9ffff 	lbu	t9,-1(a1)
9d00bf48:	2463ffff 	addiu	v1,v1,-1
9d00bf4c:	24a5ffff 	addiu	a1,a1,-1
9d00bf50:	a0790000 	sb	t9,0(v1)
9d00bf54:	90a8ffff 	lbu	t0,-1(a1)
9d00bf58:	2463ffff 	addiu	v1,v1,-1
9d00bf5c:	24a5ffff 	addiu	a1,a1,-1
9d00bf60:	a0680000 	sb	t0,0(v1)
9d00bf64:	90a7ffff 	lbu	a3,-1(a1)
9d00bf68:	2463ffff 	addiu	v1,v1,-1
9d00bf6c:	24a5ffff 	addiu	a1,a1,-1
9d00bf70:	a0670000 	sb	a3,0(v1)
9d00bf74:	90a6ffff 	lbu	a2,-1(a1)
9d00bf78:	2463ffff 	addiu	v1,v1,-1
9d00bf7c:	24a5ffff 	addiu	a1,a1,-1
9d00bf80:	a0660000 	sb	a2,0(v1)
9d00bf84:	90a9ffff 	lbu	t1,-1(a1)
9d00bf88:	2463ffff 	addiu	v1,v1,-1
9d00bf8c:	24a5ffff 	addiu	a1,a1,-1
9d00bf90:	a0690000 	sb	t1,0(v1)
9d00bf94:	24a5ffff 	addiu	a1,a1,-1
9d00bf98:	90aa0000 	lbu	t2,0(a1)
9d00bf9c:	2463ffff 	addiu	v1,v1,-1
9d00bfa0:	10640014 	beq	v1,a0,9d00bff4 <memmove+0x2fc>
9d00bfa4:	a06a0000 	sb	t2,0(v1)
9d00bfa8:	90abffff 	lbu	t3,-1(a1)
9d00bfac:	24a5fff8 	addiu	a1,a1,-8
9d00bfb0:	2463fff8 	addiu	v1,v1,-8
9d00bfb4:	a06b0007 	sb	t3,7(v1)
9d00bfb8:	90ac0006 	lbu	t4,6(a1)
9d00bfbc:	a06c0006 	sb	t4,6(v1)
9d00bfc0:	90ad0005 	lbu	t5,5(a1)
9d00bfc4:	a06d0005 	sb	t5,5(v1)
9d00bfc8:	90ae0004 	lbu	t6,4(a1)
9d00bfcc:	a06e0004 	sb	t6,4(v1)
9d00bfd0:	90af0003 	lbu	t7,3(a1)
9d00bfd4:	a06f0003 	sb	t7,3(v1)
9d00bfd8:	90b80002 	lbu	t8,2(a1)
9d00bfdc:	a0780002 	sb	t8,2(v1)
9d00bfe0:	90b90001 	lbu	t9,1(a1)
9d00bfe4:	a0790001 	sb	t9,1(v1)
9d00bfe8:	90a80000 	lbu	t0,0(a1)
9d00bfec:	1464ffee 	bne	v1,a0,9d00bfa8 <memmove+0x2b0>
9d00bff0:	a0680000 	sb	t0,0(v1)
9d00bff4:	03e00008 	jr	ra
9d00bff8:	00000000 	nop
9d00bffc:	1000ffa9 	b	9d00bea4 <memmove+0x1ac>
9d00c000:	00401821 	move	v1,v0
9d00c004:	24a30001 	addiu	v1,a1,1
9d00c008:	9069ffff 	lbu	t1,-1(v1)
9d00c00c:	00052027 	nor	a0,zero,a1
9d00c010:	00a65021 	addu	t2,a1,a2
9d00c014:	0144c021 	addu	t8,t2,a0
9d00c018:	24440001 	addiu	a0,v0,1
9d00c01c:	33070007 	andi	a3,t8,0x7
9d00c020:	106afff4 	beq	v1,t2,9d00bff4 <memmove+0x2fc>
9d00c024:	a089ffff 	sb	t1,-1(a0)
9d00c028:	50e0002c 	beqzl	a3,9d00c0dc <memmove+0x3e4>
9d00c02c:	906d0000 	lbu	t5,0(v1)
9d00c030:	240c0001 	li	t4,1
9d00c034:	10ec0023 	beq	a3,t4,9d00c0c4 <memmove+0x3cc>
9d00c038:	240d0002 	li	t5,2
9d00c03c:	10ed001d 	beq	a3,t5,9d00c0b4 <memmove+0x3bc>
9d00c040:	240e0003 	li	t6,3
9d00c044:	10ee0017 	beq	a3,t6,9d00c0a4 <memmove+0x3ac>
9d00c048:	240f0004 	li	t7,4
9d00c04c:	10ef0011 	beq	a3,t7,9d00c094 <memmove+0x39c>
9d00c050:	24190005 	li	t9,5
9d00c054:	10f9000b 	beq	a3,t9,9d00c084 <memmove+0x38c>
9d00c058:	24060006 	li	a2,6
9d00c05c:	50e60006 	beql	a3,a2,9d00c078 <memmove+0x380>
9d00c060:	90680000 	lbu	t0,0(v1)
9d00c064:	90ab0001 	lbu	t3,1(a1)
9d00c068:	24a30002 	addiu	v1,a1,2
9d00c06c:	24440002 	addiu	a0,v0,2
9d00c070:	a04b0001 	sb	t3,1(v0)
9d00c074:	90680000 	lbu	t0,0(v1)
9d00c078:	24840001 	addiu	a0,a0,1
9d00c07c:	24630001 	addiu	v1,v1,1
9d00c080:	a088ffff 	sb	t0,-1(a0)
9d00c084:	90650000 	lbu	a1,0(v1)
9d00c088:	24840001 	addiu	a0,a0,1
9d00c08c:	24630001 	addiu	v1,v1,1
9d00c090:	a085ffff 	sb	a1,-1(a0)
9d00c094:	90690000 	lbu	t1,0(v1)
9d00c098:	24840001 	addiu	a0,a0,1
9d00c09c:	24630001 	addiu	v1,v1,1
9d00c0a0:	a089ffff 	sb	t1,-1(a0)
9d00c0a4:	90780000 	lbu	t8,0(v1)
9d00c0a8:	24840001 	addiu	a0,a0,1
9d00c0ac:	24630001 	addiu	v1,v1,1
9d00c0b0:	a098ffff 	sb	t8,-1(a0)
9d00c0b4:	90670000 	lbu	a3,0(v1)
9d00c0b8:	24840001 	addiu	a0,a0,1
9d00c0bc:	24630001 	addiu	v1,v1,1
9d00c0c0:	a087ffff 	sb	a3,-1(a0)
9d00c0c4:	24630001 	addiu	v1,v1,1
9d00c0c8:	906cffff 	lbu	t4,-1(v1)
9d00c0cc:	24840001 	addiu	a0,a0,1
9d00c0d0:	106affc8 	beq	v1,t2,9d00bff4 <memmove+0x2fc>
9d00c0d4:	a08cffff 	sb	t4,-1(a0)
9d00c0d8:	906d0000 	lbu	t5,0(v1)
9d00c0dc:	24630008 	addiu	v1,v1,8
9d00c0e0:	24840008 	addiu	a0,a0,8
9d00c0e4:	a08dfff8 	sb	t5,-8(a0)
9d00c0e8:	906efff9 	lbu	t6,-7(v1)
9d00c0ec:	a08efff9 	sb	t6,-7(a0)
9d00c0f0:	906ffffa 	lbu	t7,-6(v1)
9d00c0f4:	a08ffffa 	sb	t7,-6(a0)
9d00c0f8:	9079fffb 	lbu	t9,-5(v1)
9d00c0fc:	a099fffb 	sb	t9,-5(a0)
9d00c100:	9066fffc 	lbu	a2,-4(v1)
9d00c104:	a086fffc 	sb	a2,-4(a0)
9d00c108:	906bfffd 	lbu	t3,-3(v1)
9d00c10c:	a08bfffd 	sb	t3,-3(a0)
9d00c110:	9068fffe 	lbu	t0,-2(v1)
9d00c114:	a088fffe 	sb	t0,-2(a0)
9d00c118:	9065ffff 	lbu	a1,-1(v1)
9d00c11c:	146affee 	bne	v1,t2,9d00c0d8 <memmove+0x3e0>
9d00c120:	a085ffff 	sb	a1,-1(a0)
9d00c124:	03e00008 	jr	ra
9d00c128:	00000000 	nop

9d00c12c <memcmp>:
9d00c12c:	10c00062 	beqz	a2,9d00c2b8 <memcmp+0x18c>
9d00c130:	00000000 	nop
9d00c134:	90830000 	lbu	v1,0(a0)
9d00c138:	90a20000 	lbu	v0,0(a1)
9d00c13c:	54620060 	bnel	v1,v0,9d00c2c0 <memcmp+0x194>
9d00c140:	00402021 	move	a0,v0
9d00c144:	24870001 	addiu	a3,a0,1
9d00c148:	00863021 	addu	a2,a0,a2
9d00c14c:	00c74023 	subu	t0,a2,a3
9d00c150:	31090007 	andi	t1,t0,0x7
9d00c154:	11200030 	beqz	t1,9d00c218 <memcmp+0xec>
9d00c158:	00000000 	nop
9d00c15c:	24a50001 	addiu	a1,a1,1
9d00c160:	90f80000 	lbu	t8,0(a3)
9d00c164:	90b90000 	lbu	t9,0(a1)
9d00c168:	1719004d 	bne	t8,t9,9d00c2a0 <memcmp+0x174>
9d00c16c:	24870002 	addiu	a3,a0,2
9d00c170:	240a0001 	li	t2,1
9d00c174:	112a0028 	beq	t1,t2,9d00c218 <memcmp+0xec>
9d00c178:	240b0002 	li	t3,2
9d00c17c:	112b0021 	beq	t1,t3,9d00c204 <memcmp+0xd8>
9d00c180:	240c0003 	li	t4,3
9d00c184:	112c001a 	beq	t1,t4,9d00c1f0 <memcmp+0xc4>
9d00c188:	240d0004 	li	t5,4
9d00c18c:	112d0013 	beq	t1,t5,9d00c1dc <memcmp+0xb0>
9d00c190:	240e0005 	li	t6,5
9d00c194:	112e000c 	beq	t1,t6,9d00c1c8 <memcmp+0x9c>
9d00c198:	240f0006 	li	t7,6
9d00c19c:	112f0006 	beq	t1,t7,9d00c1b8 <memcmp+0x8c>
9d00c1a0:	90f80000 	lbu	t8,0(a3)
9d00c1a4:	90b90001 	lbu	t9,1(a1)
9d00c1a8:	24e70001 	addiu	a3,a3,1
9d00c1ac:	1719003c 	bne	t8,t9,9d00c2a0 <memcmp+0x174>
9d00c1b0:	24a50001 	addiu	a1,a1,1
9d00c1b4:	90f80000 	lbu	t8,0(a3)
9d00c1b8:	90b90001 	lbu	t9,1(a1)
9d00c1bc:	24e70001 	addiu	a3,a3,1
9d00c1c0:	17190037 	bne	t8,t9,9d00c2a0 <memcmp+0x174>
9d00c1c4:	24a50001 	addiu	a1,a1,1
9d00c1c8:	90f80000 	lbu	t8,0(a3)
9d00c1cc:	90b90001 	lbu	t9,1(a1)
9d00c1d0:	24e70001 	addiu	a3,a3,1
9d00c1d4:	17190032 	bne	t8,t9,9d00c2a0 <memcmp+0x174>
9d00c1d8:	24a50001 	addiu	a1,a1,1
9d00c1dc:	90f80000 	lbu	t8,0(a3)
9d00c1e0:	90b90001 	lbu	t9,1(a1)
9d00c1e4:	24e70001 	addiu	a3,a3,1
9d00c1e8:	1719002d 	bne	t8,t9,9d00c2a0 <memcmp+0x174>
9d00c1ec:	24a50001 	addiu	a1,a1,1
9d00c1f0:	90f80000 	lbu	t8,0(a3)
9d00c1f4:	90b90001 	lbu	t9,1(a1)
9d00c1f8:	24e70001 	addiu	a3,a3,1
9d00c1fc:	17190028 	bne	t8,t9,9d00c2a0 <memcmp+0x174>
9d00c200:	24a50001 	addiu	a1,a1,1
9d00c204:	24a50001 	addiu	a1,a1,1
9d00c208:	90f80000 	lbu	t8,0(a3)
9d00c20c:	90b90000 	lbu	t9,0(a1)
9d00c210:	17190023 	bne	t8,t9,9d00c2a0 <memcmp+0x174>
9d00c214:	24e70001 	addiu	a3,a3,1
9d00c218:	10e60027 	beq	a3,a2,9d00c2b8 <memcmp+0x18c>
9d00c21c:	00000000 	nop
9d00c220:	90f80000 	lbu	t8,0(a3)
9d00c224:	90b90001 	lbu	t9,1(a1)
9d00c228:	5719001e 	bnel	t8,t9,9d00c2a4 <memcmp+0x178>
9d00c22c:	03202021 	move	a0,t9
9d00c230:	90f80001 	lbu	t8,1(a3)
9d00c234:	90b90002 	lbu	t9,2(a1)
9d00c238:	5719001a 	bnel	t8,t9,9d00c2a4 <memcmp+0x178>
9d00c23c:	03202021 	move	a0,t9
9d00c240:	90f80002 	lbu	t8,2(a3)
9d00c244:	90b90003 	lbu	t9,3(a1)
9d00c248:	57190016 	bnel	t8,t9,9d00c2a4 <memcmp+0x178>
9d00c24c:	03202021 	move	a0,t9
9d00c250:	90f80003 	lbu	t8,3(a3)
9d00c254:	90b90004 	lbu	t9,4(a1)
9d00c258:	57190012 	bnel	t8,t9,9d00c2a4 <memcmp+0x178>
9d00c25c:	03202021 	move	a0,t9
9d00c260:	90f80004 	lbu	t8,4(a3)
9d00c264:	90b90005 	lbu	t9,5(a1)
9d00c268:	5719000e 	bnel	t8,t9,9d00c2a4 <memcmp+0x178>
9d00c26c:	03202021 	move	a0,t9
9d00c270:	90f80005 	lbu	t8,5(a3)
9d00c274:	90b90006 	lbu	t9,6(a1)
9d00c278:	5719000a 	bnel	t8,t9,9d00c2a4 <memcmp+0x178>
9d00c27c:	03202021 	move	a0,t9
9d00c280:	90b90007 	lbu	t9,7(a1)
9d00c284:	90f80006 	lbu	t8,6(a3)
9d00c288:	17190005 	bne	t8,t9,9d00c2a0 <memcmp+0x174>
9d00c28c:	24a50008 	addiu	a1,a1,8
9d00c290:	90f80007 	lbu	t8,7(a3)
9d00c294:	90b90000 	lbu	t9,0(a1)
9d00c298:	1319ffdf 	beq	t8,t9,9d00c218 <memcmp+0xec>
9d00c29c:	24e70008 	addiu	a3,a3,8
9d00c2a0:	03202021 	move	a0,t9
9d00c2a4:	0304282b 	sltu	a1,t8,a0
9d00c2a8:	2403ffff 	li	v1,-1
9d00c2ac:	24020001 	li	v0,1
9d00c2b0:	03e00008 	jr	ra
9d00c2b4:	0065100b 	movn	v0,v1,a1
9d00c2b8:	03e00008 	jr	ra
9d00c2bc:	00001021 	move	v0,zero
9d00c2c0:	1000fff8 	b	9d00c2a4 <memcmp+0x178>
9d00c2c4:	0060c021 	move	t8,v1

9d00c2c8 <memset>:
9d00c2c8:	00801021 	move	v0,a0
9d00c2cc:	10c00076 	beqz	a2,9d00c4a8 <memset+0x1e0>
9d00c2d0:	24c9ffff 	addiu	t1,a2,-1
9d00c2d4:	00041823 	negu	v1,a0
9d00c2d8:	30640003 	andi	a0,v1,0x3
9d00c2dc:	00c4402b 	sltu	t0,a2,a0
9d00c2e0:	00c8200b 	movn	a0,a2,t0
9d00c2e4:	2cc70007 	sltiu	a3,a2,7
9d00c2e8:	30a500ff 	andi	a1,a1,0xff
9d00c2ec:	10e00070 	beqz	a3,9d00c4b0 <memset+0x1e8>
9d00c2f0:	00807021 	move	t6,a0
9d00c2f4:	00c07021 	move	t6,a2
9d00c2f8:	240a0001 	li	t2,1
9d00c2fc:	24440001 	addiu	a0,v0,1
9d00c300:	a0450000 	sb	a1,0(v0)
9d00c304:	11ca0018 	beq	t6,t2,9d00c368 <memset+0xa0>
9d00c308:	24c7fffe 	addiu	a3,a2,-2
9d00c30c:	240b0002 	li	t3,2
9d00c310:	24440002 	addiu	a0,v0,2
9d00c314:	a0450001 	sb	a1,1(v0)
9d00c318:	11cb0013 	beq	t6,t3,9d00c368 <memset+0xa0>
9d00c31c:	24c7fffd 	addiu	a3,a2,-3
9d00c320:	240c0003 	li	t4,3
9d00c324:	24440003 	addiu	a0,v0,3
9d00c328:	a0450002 	sb	a1,2(v0)
9d00c32c:	11cc000e 	beq	t6,t4,9d00c368 <memset+0xa0>
9d00c330:	24c7fffc 	addiu	a3,a2,-4
9d00c334:	240d0004 	li	t5,4
9d00c338:	24440004 	addiu	a0,v0,4
9d00c33c:	a0450003 	sb	a1,3(v0)
9d00c340:	11cd0009 	beq	t6,t5,9d00c368 <memset+0xa0>
9d00c344:	24c7fffb 	addiu	a3,a2,-5
9d00c348:	240f0006 	li	t7,6
9d00c34c:	24440005 	addiu	a0,v0,5
9d00c350:	a0450004 	sb	a1,4(v0)
9d00c354:	15cf0004 	bne	t6,t7,9d00c368 <memset+0xa0>
9d00c358:	24c7fffa 	addiu	a3,a2,-6
9d00c35c:	24440006 	addiu	a0,v0,6
9d00c360:	a0450005 	sb	a1,5(v0)
9d00c364:	24c7fff9 	addiu	a3,a2,-7
9d00c368:	10ce004f 	beq	a2,t6,9d00c4a8 <memset+0x1e0>
9d00c36c:	00000000 	nop
9d00c370:	00ce3023 	subu	a2,a2,t6
9d00c374:	24d8fffc 	addiu	t8,a2,-4
9d00c378:	0018c882 	srl	t9,t8,0x2
9d00c37c:	012e4823 	subu	t1,t1,t6
9d00c380:	272c0001 	addiu	t4,t9,1
9d00c384:	2d230003 	sltiu	v1,t1,3
9d00c388:	14600040 	bnez	v1,9d00c48c <memset+0x1c4>
9d00c38c:	000c6880 	sll	t5,t4,0x2
9d00c390:	00005021 	move	t2,zero
9d00c394:	7caa3804 	ins	t2,a1,0x0,0x8
9d00c398:	7caa7a04 	ins	t2,a1,0x8,0x8
9d00c39c:	7caabc04 	ins	t2,a1,0x10,0x8
9d00c3a0:	240b0001 	li	t3,1
9d00c3a4:	004e7821 	addu	t7,v0,t6
9d00c3a8:	7caafe04 	ins	t2,a1,0x18,0x8
9d00c3ac:	016c702b 	sltu	t6,t3,t4
9d00c3b0:	33380007 	andi	t8,t9,0x7
9d00c3b4:	adea0000 	sw	t2,0(t7)
9d00c3b8:	11c00031 	beqz	t6,9d00c480 <memset+0x1b8>
9d00c3bc:	25e80004 	addiu	t0,t7,4
9d00c3c0:	53000024 	beqzl	t8,9d00c454 <memset+0x18c>
9d00c3c4:	256b0008 	addiu	t3,t3,8
9d00c3c8:	130b001c 	beq	t8,t3,9d00c43c <memset+0x174>
9d00c3cc:	24190002 	li	t9,2
9d00c3d0:	13190017 	beq	t8,t9,9d00c430 <memset+0x168>
9d00c3d4:	24090003 	li	t1,3
9d00c3d8:	13090012 	beq	t8,t1,9d00c424 <memset+0x15c>
9d00c3dc:	24030004 	li	v1,4
9d00c3e0:	1303000d 	beq	t8,v1,9d00c418 <memset+0x150>
9d00c3e4:	240e0005 	li	t6,5
9d00c3e8:	130e0008 	beq	t8,t6,9d00c40c <memset+0x144>
9d00c3ec:	24190006 	li	t9,6
9d00c3f0:	13190004 	beq	t8,t9,9d00c404 <memset+0x13c>
9d00c3f4:	ad0a0000 	sw	t2,0(t0)
9d00c3f8:	240b0002 	li	t3,2
9d00c3fc:	25e80008 	addiu	t0,t7,8
9d00c400:	ad0a0000 	sw	t2,0(t0)
9d00c404:	256b0001 	addiu	t3,t3,1
9d00c408:	25080004 	addiu	t0,t0,4
9d00c40c:	ad0a0000 	sw	t2,0(t0)
9d00c410:	256b0001 	addiu	t3,t3,1
9d00c414:	25080004 	addiu	t0,t0,4
9d00c418:	ad0a0000 	sw	t2,0(t0)
9d00c41c:	256b0001 	addiu	t3,t3,1
9d00c420:	25080004 	addiu	t0,t0,4
9d00c424:	ad0a0000 	sw	t2,0(t0)
9d00c428:	256b0001 	addiu	t3,t3,1
9d00c42c:	25080004 	addiu	t0,t0,4
9d00c430:	ad0a0000 	sw	t2,0(t0)
9d00c434:	256b0001 	addiu	t3,t3,1
9d00c438:	25080004 	addiu	t0,t0,4
9d00c43c:	256b0001 	addiu	t3,t3,1
9d00c440:	016c782b 	sltu	t7,t3,t4
9d00c444:	ad0a0000 	sw	t2,0(t0)
9d00c448:	11e0000d 	beqz	t7,9d00c480 <memset+0x1b8>
9d00c44c:	25080004 	addiu	t0,t0,4
9d00c450:	256b0008 	addiu	t3,t3,8
9d00c454:	016cc02b 	sltu	t8,t3,t4
9d00c458:	ad0a0000 	sw	t2,0(t0)
9d00c45c:	ad0a0004 	sw	t2,4(t0)
9d00c460:	ad0a0008 	sw	t2,8(t0)
9d00c464:	ad0a000c 	sw	t2,12(t0)
9d00c468:	ad0a0010 	sw	t2,16(t0)
9d00c46c:	ad0a0014 	sw	t2,20(t0)
9d00c470:	ad0a0018 	sw	t2,24(t0)
9d00c474:	ad0a001c 	sw	t2,28(t0)
9d00c478:	1700fff5 	bnez	t8,9d00c450 <memset+0x188>
9d00c47c:	25080020 	addiu	t0,t0,32
9d00c480:	008d2021 	addu	a0,a0,t5
9d00c484:	10cd0008 	beq	a2,t5,9d00c4a8 <memset+0x1e0>
9d00c488:	00ed3823 	subu	a3,a3,t5
9d00c48c:	10e00006 	beqz	a3,9d00c4a8 <memset+0x1e0>
9d00c490:	a0850000 	sb	a1,0(a0)
9d00c494:	240c0001 	li	t4,1
9d00c498:	10ec0003 	beq	a3,t4,9d00c4a8 <memset+0x1e0>
9d00c49c:	a0850001 	sb	a1,1(a0)
9d00c4a0:	03e00008 	jr	ra
9d00c4a4:	a0850002 	sb	a1,2(a0)
9d00c4a8:	03e00008 	jr	ra
9d00c4ac:	00000000 	nop
9d00c4b0:	01203821 	move	a3,t1
9d00c4b4:	15c0ff90 	bnez	t6,9d00c2f8 <memset+0x30>
9d00c4b8:	00402021 	move	a0,v0
9d00c4bc:	00ce3023 	subu	a2,a2,t6
9d00c4c0:	24d8fffc 	addiu	t8,a2,-4
9d00c4c4:	0018c882 	srl	t9,t8,0x2
9d00c4c8:	012e4823 	subu	t1,t1,t6
9d00c4cc:	272c0001 	addiu	t4,t9,1
9d00c4d0:	2d230003 	sltiu	v1,t1,3
9d00c4d4:	1060ffae 	beqz	v1,9d00c390 <memset+0xc8>
9d00c4d8:	000c6880 	sll	t5,t4,0x2
9d00c4dc:	1000ffeb 	b	9d00c48c <memset+0x1c4>
9d00c4e0:	00000000 	nop

9d00c4e4 <strtol>:
9d00c4e4:	90820000 	lbu	v0,0(a0)
9d00c4e8:	2403002d 	li	v1,45
9d00c4ec:	1043009f 	beq	v0,v1,9d00c76c <strtol+0x288>
9d00c4f0:	00005021 	move	t2,zero
9d00c4f4:	24070030 	li	a3,48
9d00c4f8:	50470096 	beql	v0,a3,9d00c754 <strtol+0x270>
9d00c4fc:	90880001 	lbu	t0,1(a0)
9d00c500:	908c0000 	lbu	t4,0(a0)
9d00c504:	2583ffd0 	addiu	v1,t4,-48
9d00c508:	2c6d000a 	sltiu	t5,v1,10
9d00c50c:	15a0000a 	bnez	t5,9d00c538 <strtol+0x54>
9d00c510:	248b0001 	addiu	t3,a0,1
9d00c514:	258effbf 	addiu	t6,t4,-65
9d00c518:	2dcf001a 	sltiu	t7,t6,26
9d00c51c:	55e00086 	bnezl	t7,9d00c738 <strtol+0x254>
9d00c520:	90890001 	lbu	t1,1(a0)
9d00c524:	2598ff9f 	addiu	t8,t4,-97
9d00c528:	2f19001a 	sltiu	t9,t8,26
9d00c52c:	532000d3 	beqzl	t9,9d00c87c <strtol+0x398>
9d00c530:	00803821 	move	a3,a0
9d00c534:	2583ffa9 	addiu	v1,t4,-87
9d00c538:	90890001 	lbu	t1,1(a0)
9d00c53c:	252fffd0 	addiu	t7,t1,-48
9d00c540:	2de2000a 	sltiu	v0,t7,10
9d00c544:	14400009 	bnez	v0,9d00c56c <strtol+0x88>
9d00c548:	24870002 	addiu	a3,a0,2
9d00c54c:	2528ffbf 	addiu	t0,t1,-65
9d00c550:	2d0c001a 	sltiu	t4,t0,26
9d00c554:	55800089 	bnezl	t4,9d00c77c <strtol+0x298>
9d00c558:	70c35802 	mul	t3,a2,v1
9d00c55c:	252dff9f 	addiu	t5,t1,-97
9d00c560:	2dae001a 	sltiu	t6,t5,26
9d00c564:	11c000c3 	beqz	t6,9d00c874 <strtol+0x390>
9d00c568:	252fffa9 	addiu	t7,t1,-87
9d00c56c:	70c35802 	mul	t3,a2,v1
9d00c570:	90980002 	lbu	t8,2(a0)
9d00c574:	270dffd0 	addiu	t5,t8,-48
9d00c578:	2db9000a 	sltiu	t9,t5,10
9d00c57c:	016f1821 	addu	v1,t3,t7
9d00c580:	17200009 	bnez	t9,9d00c5a8 <strtol+0xc4>
9d00c584:	248b0003 	addiu	t3,a0,3
9d00c588:	2709ffbf 	addiu	t1,t8,-65
9d00c58c:	2d22001a 	sltiu	v0,t1,26
9d00c590:	54400083 	bnezl	v0,9d00c7a0 <strtol+0x2bc>
9d00c594:	70c31802 	mul	v1,a2,v1
9d00c598:	2708ff9f 	addiu	t0,t8,-97
9d00c59c:	2d0c001a 	sltiu	t4,t0,26
9d00c5a0:	11800056 	beqz	t4,9d00c6fc <strtol+0x218>
9d00c5a4:	270dffa9 	addiu	t5,t8,-87
9d00c5a8:	70c31802 	mul	v1,a2,v1
9d00c5ac:	908e0003 	lbu	t6,3(a0)
9d00c5b0:	24870004 	addiu	a3,a0,4
9d00c5b4:	25c8ffd0 	addiu	t0,t6,-48
9d00c5b8:	2d0f000a 	sltiu	t7,t0,10
9d00c5bc:	15e0000a 	bnez	t7,9d00c5e8 <strtol+0x104>
9d00c5c0:	006d1821 	addu	v1,v1,t5
9d00c5c4:	25d8ffbf 	addiu	t8,t6,-65
9d00c5c8:	2f19001a 	sltiu	t9,t8,26
9d00c5cc:	5720007d 	bnezl	t9,9d00c7c4 <strtol+0x2e0>
9d00c5d0:	70c35802 	mul	t3,a2,v1
9d00c5d4:	25c9ff9f 	addiu	t1,t6,-97
9d00c5d8:	2d22001a 	sltiu	v0,t1,26
9d00c5dc:	50400047 	beqzl	v0,9d00c6fc <strtol+0x218>
9d00c5e0:	01603821 	move	a3,t3
9d00c5e4:	25c8ffa9 	addiu	t0,t6,-87
9d00c5e8:	70c35802 	mul	t3,a2,v1
9d00c5ec:	908c0004 	lbu	t4,4(a0)
9d00c5f0:	2589ffd0 	addiu	t1,t4,-48
9d00c5f4:	2d2d000a 	sltiu	t5,t1,10
9d00c5f8:	01681821 	addu	v1,t3,t0
9d00c5fc:	15a00009 	bnez	t5,9d00c624 <strtol+0x140>
9d00c600:	248b0005 	addiu	t3,a0,5
9d00c604:	258effbf 	addiu	t6,t4,-65
9d00c608:	2dcf001a 	sltiu	t7,t6,26
9d00c60c:	55e00076 	bnezl	t7,9d00c7e8 <strtol+0x304>
9d00c610:	70c33802 	mul	a3,a2,v1
9d00c614:	2598ff9f 	addiu	t8,t4,-97
9d00c618:	2f19001a 	sltiu	t9,t8,26
9d00c61c:	13200037 	beqz	t9,9d00c6fc <strtol+0x218>
9d00c620:	2589ffa9 	addiu	t1,t4,-87
9d00c624:	70c33802 	mul	a3,a2,v1
9d00c628:	908c0005 	lbu	t4,5(a0)
9d00c62c:	2598ffd0 	addiu	t8,t4,-48
9d00c630:	2f02000a 	sltiu	v0,t8,10
9d00c634:	00e91821 	addu	v1,a3,t1
9d00c638:	14400009 	bnez	v0,9d00c660 <strtol+0x17c>
9d00c63c:	24870006 	addiu	a3,a0,6
9d00c640:	2588ffbf 	addiu	t0,t4,-65
9d00c644:	2d0d001a 	sltiu	t5,t0,26
9d00c648:	55a00070 	bnezl	t5,9d00c80c <strtol+0x328>
9d00c64c:	70c31802 	mul	v1,a2,v1
9d00c650:	258eff9f 	addiu	t6,t4,-97
9d00c654:	2dcf001a 	sltiu	t7,t6,26
9d00c658:	11e00086 	beqz	t7,9d00c874 <strtol+0x390>
9d00c65c:	2598ffa9 	addiu	t8,t4,-87
9d00c660:	70c31802 	mul	v1,a2,v1
9d00c664:	90990006 	lbu	t9,6(a0)
9d00c668:	248b0007 	addiu	t3,a0,7
9d00c66c:	272effd0 	addiu	t6,t9,-48
9d00c670:	2dc9000a 	sltiu	t1,t6,10
9d00c674:	15200009 	bnez	t1,9d00c69c <strtol+0x1b8>
9d00c678:	00781821 	addu	v1,v1,t8
9d00c67c:	272cffbf 	addiu	t4,t9,-65
9d00c680:	2d82001a 	sltiu	v0,t4,26
9d00c684:	5440006a 	bnezl	v0,9d00c830 <strtol+0x34c>
9d00c688:	70c33802 	mul	a3,a2,v1
9d00c68c:	2728ff9f 	addiu	t0,t9,-97
9d00c690:	2d0d001a 	sltiu	t5,t0,26
9d00c694:	11a00019 	beqz	t5,9d00c6fc <strtol+0x218>
9d00c698:	272effa9 	addiu	t6,t9,-87
9d00c69c:	70c33802 	mul	a3,a2,v1
9d00c6a0:	908f0007 	lbu	t7,7(a0)
9d00c6a4:	25e8ffd0 	addiu	t0,t7,-48
9d00c6a8:	2d18000a 	sltiu	t8,t0,10
9d00c6ac:	00ee1821 	addu	v1,a3,t6
9d00c6b0:	1700000a 	bnez	t8,9d00c6dc <strtol+0x1f8>
9d00c6b4:	24870008 	addiu	a3,a0,8
9d00c6b8:	25f9ffbf 	addiu	t9,t7,-65
9d00c6bc:	2f29001a 	sltiu	t1,t9,26
9d00c6c0:	55200064 	bnezl	t1,9d00c854 <strtol+0x370>
9d00c6c4:	70c31802 	mul	v1,a2,v1
9d00c6c8:	25ecff9f 	addiu	t4,t7,-97
9d00c6cc:	2d82001a 	sltiu	v0,t4,26
9d00c6d0:	5040000a 	beqzl	v0,9d00c6fc <strtol+0x218>
9d00c6d4:	01603821 	move	a3,t3
9d00c6d8:	25e8ffa9 	addiu	t0,t7,-87
9d00c6dc:	70c31802 	mul	v1,a2,v1
9d00c6e0:	908b0008 	lbu	t3,8(a0)
9d00c6e4:	2579ffd0 	addiu	t9,t3,-48
9d00c6e8:	2f2d000a 	sltiu	t5,t9,10
9d00c6ec:	11a00008 	beqz	t5,9d00c710 <strtol+0x22c>
9d00c6f0:	00681821 	addu	v1,v1,t0
9d00c6f4:	70c33002 	mul	a2,a2,v1
9d00c6f8:	00d91821 	addu	v1,a2,t9
9d00c6fc:	54a00001 	bnezl	a1,9d00c704 <strtol+0x220>
9d00c700:	aca70000 	sw	a3,0(a1)
9d00c704:	00031023 	negu	v0,v1
9d00c708:	03e00008 	jr	ra
9d00c70c:	006a100a 	movz	v0,v1,t2
9d00c710:	2564ffbf 	addiu	a0,t3,-65
9d00c714:	2c8e001a 	sltiu	t6,a0,26
9d00c718:	15c0fff6 	bnez	t6,9d00c6f4 <strtol+0x210>
9d00c71c:	2579ffc9 	addiu	t9,t3,-55
9d00c720:	256fff9f 	addiu	t7,t3,-97
9d00c724:	2df8001a 	sltiu	t8,t7,26
9d00c728:	1700fff2 	bnez	t8,9d00c6f4 <strtol+0x210>
9d00c72c:	2579ffa9 	addiu	t9,t3,-87
9d00c730:	1000fff2 	b	9d00c6fc <strtol+0x218>
9d00c734:	00000000 	nop
9d00c738:	2583ffc9 	addiu	v1,t4,-55
9d00c73c:	252fffd0 	addiu	t7,t1,-48
9d00c740:	2de2000a 	sltiu	v0,t7,10
9d00c744:	1440ff89 	bnez	v0,9d00c56c <strtol+0x88>
9d00c748:	24870002 	addiu	a3,a0,2
9d00c74c:	1000ff80 	b	9d00c550 <strtol+0x6c>
9d00c750:	2528ffbf 	addiu	t0,t1,-65
9d00c754:	24090078 	li	t1,120
9d00c758:	5509ff6a 	bnel	t0,t1,9d00c504 <strtol+0x20>
9d00c75c:	908c0000 	lbu	t4,0(a0)
9d00c760:	24060010 	li	a2,16
9d00c764:	1000ff66 	b	9d00c500 <strtol+0x1c>
9d00c768:	24840002 	addiu	a0,a0,2
9d00c76c:	90820001 	lbu	v0,1(a0)
9d00c770:	240a0001 	li	t2,1
9d00c774:	1000ff5f 	b	9d00c4f4 <strtol+0x10>
9d00c778:	24840001 	addiu	a0,a0,1
9d00c77c:	90980002 	lbu	t8,2(a0)
9d00c780:	252fffc9 	addiu	t7,t1,-55
9d00c784:	270dffd0 	addiu	t5,t8,-48
9d00c788:	2db9000a 	sltiu	t9,t5,10
9d00c78c:	016f1821 	addu	v1,t3,t7
9d00c790:	1720ff85 	bnez	t9,9d00c5a8 <strtol+0xc4>
9d00c794:	248b0003 	addiu	t3,a0,3
9d00c798:	1000ff7c 	b	9d00c58c <strtol+0xa8>
9d00c79c:	2709ffbf 	addiu	t1,t8,-65
9d00c7a0:	908e0003 	lbu	t6,3(a0)
9d00c7a4:	270dffc9 	addiu	t5,t8,-55
9d00c7a8:	24870004 	addiu	a3,a0,4
9d00c7ac:	25c8ffd0 	addiu	t0,t6,-48
9d00c7b0:	2d0f000a 	sltiu	t7,t0,10
9d00c7b4:	15e0ff8c 	bnez	t7,9d00c5e8 <strtol+0x104>
9d00c7b8:	006d1821 	addu	v1,v1,t5
9d00c7bc:	1000ff82 	b	9d00c5c8 <strtol+0xe4>
9d00c7c0:	25d8ffbf 	addiu	t8,t6,-65
9d00c7c4:	908c0004 	lbu	t4,4(a0)
9d00c7c8:	25c8ffc9 	addiu	t0,t6,-55
9d00c7cc:	2589ffd0 	addiu	t1,t4,-48
9d00c7d0:	2d2d000a 	sltiu	t5,t1,10
9d00c7d4:	01681821 	addu	v1,t3,t0
9d00c7d8:	15a0ff92 	bnez	t5,9d00c624 <strtol+0x140>
9d00c7dc:	248b0005 	addiu	t3,a0,5
9d00c7e0:	1000ff89 	b	9d00c608 <strtol+0x124>
9d00c7e4:	258effbf 	addiu	t6,t4,-65
9d00c7e8:	2589ffc9 	addiu	t1,t4,-55
9d00c7ec:	908c0005 	lbu	t4,5(a0)
9d00c7f0:	2598ffd0 	addiu	t8,t4,-48
9d00c7f4:	2f02000a 	sltiu	v0,t8,10
9d00c7f8:	00e91821 	addu	v1,a3,t1
9d00c7fc:	1440ff98 	bnez	v0,9d00c660 <strtol+0x17c>
9d00c800:	24870006 	addiu	a3,a0,6
9d00c804:	1000ff8f 	b	9d00c644 <strtol+0x160>
9d00c808:	2588ffbf 	addiu	t0,t4,-65
9d00c80c:	90990006 	lbu	t9,6(a0)
9d00c810:	2598ffc9 	addiu	t8,t4,-55
9d00c814:	248b0007 	addiu	t3,a0,7
9d00c818:	272effd0 	addiu	t6,t9,-48
9d00c81c:	2dc9000a 	sltiu	t1,t6,10
9d00c820:	1520ff9e 	bnez	t1,9d00c69c <strtol+0x1b8>
9d00c824:	00781821 	addu	v1,v1,t8
9d00c828:	1000ff95 	b	9d00c680 <strtol+0x19c>
9d00c82c:	272cffbf 	addiu	t4,t9,-65
9d00c830:	908f0007 	lbu	t7,7(a0)
9d00c834:	272effc9 	addiu	t6,t9,-55
9d00c838:	25e8ffd0 	addiu	t0,t7,-48
9d00c83c:	2d18000a 	sltiu	t8,t0,10
9d00c840:	00ee1821 	addu	v1,a3,t6
9d00c844:	1700ffa5 	bnez	t8,9d00c6dc <strtol+0x1f8>
9d00c848:	24870008 	addiu	a3,a0,8
9d00c84c:	1000ff9b 	b	9d00c6bc <strtol+0x1d8>
9d00c850:	25f9ffbf 	addiu	t9,t7,-65
9d00c854:	908b0008 	lbu	t3,8(a0)
9d00c858:	25e8ffc9 	addiu	t0,t7,-55
9d00c85c:	2579ffd0 	addiu	t9,t3,-48
9d00c860:	2f2d000a 	sltiu	t5,t9,10
9d00c864:	15a0ffa3 	bnez	t5,9d00c6f4 <strtol+0x210>
9d00c868:	00681821 	addu	v1,v1,t0
9d00c86c:	1000ffa9 	b	9d00c714 <strtol+0x230>
9d00c870:	2564ffbf 	addiu	a0,t3,-65
9d00c874:	1000ffa1 	b	9d00c6fc <strtol+0x218>
9d00c878:	01603821 	move	a3,t3
9d00c87c:	1000ff9f 	b	9d00c6fc <strtol+0x218>
9d00c880:	00001821 	move	v1,zero

9d00c884 <atoi>:
9d00c884:	24020020 	li	v0,32
9d00c888:	24060009 	li	a2,9
9d00c88c:	90830000 	lbu	v1,0(a0)
9d00c890:	1062003d 	beq	v1,v0,9d00c988 <atoi+0x104>
9d00c894:	2c650021 	sltiu	a1,v1,33
9d00c898:	14a00036 	bnez	a1,9d00c974 <atoi+0xf0>
9d00c89c:	2407002b 	li	a3,43
9d00c8a0:	1067003b 	beq	v1,a3,9d00c990 <atoi+0x10c>
9d00c8a4:	2408002d 	li	t0,45
9d00c8a8:	14680035 	bne	v1,t0,9d00c980 <atoi+0xfc>
9d00c8ac:	00005021 	move	t2,zero
9d00c8b0:	240affff 	li	t2,-1
9d00c8b4:	240b0001 	li	t3,1
9d00c8b8:	90830001 	lbu	v1,1(a0)
9d00c8bc:	24840001 	addiu	a0,a0,1
9d00c8c0:	2469ffd0 	addiu	t1,v1,-48
9d00c8c4:	2d2c000a 	sltiu	t4,t1,10
9d00c8c8:	11800027 	beqz	t4,9d00c968 <atoi+0xe4>
9d00c8cc:	0000c021 	move	t8,zero
9d00c8d0:	00604021 	move	t0,v1
9d00c8d4:	908d0001 	lbu	t5,1(a0)
9d00c8d8:	00187040 	sll	t6,t8,0x1
9d00c8dc:	001878c0 	sll	t7,t8,0x3
9d00c8e0:	01cfc021 	addu	t8,t6,t7
9d00c8e4:	25b9ffd0 	addiu	t9,t5,-48
9d00c8e8:	03081021 	addu	v0,t8,t0
9d00c8ec:	2f26000a 	sltiu	a2,t9,10
9d00c8f0:	10c0001d 	beqz	a2,9d00c968 <atoi+0xe4>
9d00c8f4:	2458ffd0 	addiu	t8,v0,-48
9d00c8f8:	90870002 	lbu	a3,2(a0)
9d00c8fc:	00182840 	sll	a1,t8,0x1
9d00c900:	001818c0 	sll	v1,t8,0x3
9d00c904:	00a34021 	addu	t0,a1,v1
9d00c908:	24e9ffd0 	addiu	t1,a3,-48
9d00c90c:	010d6021 	addu	t4,t0,t5
9d00c910:	2d2d000a 	sltiu	t5,t1,10
9d00c914:	11a00014 	beqz	t5,9d00c968 <atoi+0xe4>
9d00c918:	2598ffd0 	addiu	t8,t4,-48
9d00c91c:	908e0003 	lbu	t6,3(a0)
9d00c920:	00187840 	sll	t7,t8,0x1
9d00c924:	0018c0c0 	sll	t8,t8,0x3
9d00c928:	01f8c821 	addu	t9,t7,t8
9d00c92c:	25c2ffd0 	addiu	v0,t6,-48
9d00c930:	03273021 	addu	a2,t9,a3
9d00c934:	2c47000a 	sltiu	a3,v0,10
9d00c938:	24840004 	addiu	a0,a0,4
9d00c93c:	10e0000a 	beqz	a3,9d00c968 <atoi+0xe4>
9d00c940:	24d8ffd0 	addiu	t8,a2,-48
9d00c944:	90880000 	lbu	t0,0(a0)
9d00c948:	00182840 	sll	a1,t8,0x1
9d00c94c:	001818c0 	sll	v1,t8,0x3
9d00c950:	00a34821 	addu	t1,a1,v1
9d00c954:	250cffd0 	addiu	t4,t0,-48
9d00c958:	012e6821 	addu	t5,t1,t6
9d00c95c:	2d8e000a 	sltiu	t6,t4,10
9d00c960:	15c0ffdc 	bnez	t6,9d00c8d4 <atoi+0x50>
9d00c964:	25b8ffd0 	addiu	t8,t5,-48
9d00c968:	030a2026 	xor	a0,t8,t2
9d00c96c:	03e00008 	jr	ra
9d00c970:	008b1021 	addu	v0,a0,t3
9d00c974:	5066ffc5 	beql	v1,a2,9d00c88c <atoi+0x8>
9d00c978:	24840001 	addiu	a0,a0,1
9d00c97c:	00005021 	move	t2,zero
9d00c980:	1000ffcf 	b	9d00c8c0 <atoi+0x3c>
9d00c984:	00005821 	move	t3,zero
9d00c988:	1000ffc0 	b	9d00c88c <atoi+0x8>
9d00c98c:	24840001 	addiu	a0,a0,1
9d00c990:	00005021 	move	t2,zero
9d00c994:	1000ffc8 	b	9d00c8b8 <atoi+0x34>
9d00c998:	00005821 	move	t3,zero

9d00c99c <itoa>:
9d00c99c:	24c3fffe 	addiu	v1,a2,-2
9d00c9a0:	2c670023 	sltiu	a3,v1,35
9d00c9a4:	10e000c2 	beqz	a3,9d00ccb0 <itoa+0x314>
9d00c9a8:	00a01021 	move	v0,a1
9d00c9ac:	0086001a 	div	zero,a0,a2
9d00c9b0:	00a03821 	move	a3,a1
9d00c9b4:	3c089d01 	lui	t0,0x9d01
9d00c9b8:	250c046c 	addiu	t4,t0,1132
9d00c9bc:	24e30001 	addiu	v1,a3,1
9d00c9c0:	00604821 	move	t1,v1
9d00c9c4:	00005812 	mflo	t3
9d00c9c8:	70cb2802 	mul	a1,a2,t3
9d00c9cc:	00855023 	subu	t2,a0,a1
9d00c9d0:	018a6821 	addu	t5,t4,t2
9d00c9d4:	91ae0023 	lbu	t6,35(t5)
9d00c9d8:	1160005a 	beqz	t3,9d00cb44 <itoa+0x1a8>
9d00c9dc:	a06effff 	sb	t6,-1(v1)
9d00c9e0:	0166001a 	div	zero,t3,a2
9d00c9e4:	01602021 	move	a0,t3
9d00c9e8:	00603821 	move	a3,v1
9d00c9ec:	24630001 	addiu	v1,v1,1
9d00c9f0:	00007812 	mflo	t7
9d00c9f4:	70cfc002 	mul	t8,a2,t7
9d00c9f8:	0178c823 	subu	t9,t3,t8
9d00c9fc:	01994021 	addu	t0,t4,t9
9d00ca00:	910b0023 	lbu	t3,35(t0)
9d00ca04:	11e0004f 	beqz	t7,9d00cb44 <itoa+0x1a8>
9d00ca08:	a06bffff 	sb	t3,-1(v1)
9d00ca0c:	01e6001a 	div	zero,t7,a2
9d00ca10:	01e02021 	move	a0,t7
9d00ca14:	00603821 	move	a3,v1
9d00ca18:	24630001 	addiu	v1,v1,1
9d00ca1c:	00005012 	mflo	t2
9d00ca20:	70ca2802 	mul	a1,a2,t2
9d00ca24:	01e56823 	subu	t5,t7,a1
9d00ca28:	018d7021 	addu	t6,t4,t5
9d00ca2c:	91cf0023 	lbu	t7,35(t6)
9d00ca30:	11400044 	beqz	t2,9d00cb44 <itoa+0x1a8>
9d00ca34:	a06fffff 	sb	t7,-1(v1)
9d00ca38:	0146001a 	div	zero,t2,a2
9d00ca3c:	01402021 	move	a0,t2
9d00ca40:	25230003 	addiu	v1,t1,3
9d00ca44:	25270002 	addiu	a3,t1,2
9d00ca48:	0000c012 	mflo	t8
9d00ca4c:	70d8c802 	mul	t9,a2,t8
9d00ca50:	01594023 	subu	t0,t2,t9
9d00ca54:	01885821 	addu	t3,t4,t0
9d00ca58:	916a0023 	lbu	t2,35(t3)
9d00ca5c:	13000039 	beqz	t8,9d00cb44 <itoa+0x1a8>
9d00ca60:	a06affff 	sb	t2,-1(v1)
9d00ca64:	0306001a 	div	zero,t8,a2
9d00ca68:	03002021 	move	a0,t8
9d00ca6c:	00603821 	move	a3,v1
9d00ca70:	25230004 	addiu	v1,t1,4
9d00ca74:	00006812 	mflo	t5
9d00ca78:	70cd2802 	mul	a1,a2,t5
9d00ca7c:	03057023 	subu	t6,t8,a1
9d00ca80:	018e7821 	addu	t7,t4,t6
9d00ca84:	91f80023 	lbu	t8,35(t7)
9d00ca88:	11a0002e 	beqz	t5,9d00cb44 <itoa+0x1a8>
9d00ca8c:	a078ffff 	sb	t8,-1(v1)
9d00ca90:	01a6001a 	div	zero,t5,a2
9d00ca94:	01a02021 	move	a0,t5
9d00ca98:	00603821 	move	a3,v1
9d00ca9c:	25230005 	addiu	v1,t1,5
9d00caa0:	0000c812 	mflo	t9
9d00caa4:	70d94002 	mul	t0,a2,t9
9d00caa8:	01a85823 	subu	t3,t5,t0
9d00caac:	018b5021 	addu	t2,t4,t3
9d00cab0:	914d0023 	lbu	t5,35(t2)
9d00cab4:	13200023 	beqz	t9,9d00cb44 <itoa+0x1a8>
9d00cab8:	a06dffff 	sb	t5,-1(v1)
9d00cabc:	0326001a 	div	zero,t9,a2
9d00cac0:	03202021 	move	a0,t9
9d00cac4:	00603821 	move	a3,v1
9d00cac8:	25230006 	addiu	v1,t1,6
9d00cacc:	00007012 	mflo	t6
9d00cad0:	70ce2802 	mul	a1,a2,t6
9d00cad4:	03257823 	subu	t7,t9,a1
9d00cad8:	018fc021 	addu	t8,t4,t7
9d00cadc:	93190023 	lbu	t9,35(t8)
9d00cae0:	11c00018 	beqz	t6,9d00cb44 <itoa+0x1a8>
9d00cae4:	a079ffff 	sb	t9,-1(v1)
9d00cae8:	01c6001a 	div	zero,t6,a2
9d00caec:	00603821 	move	a3,v1
9d00caf0:	25230007 	addiu	v1,t1,7
9d00caf4:	01c02021 	move	a0,t6
9d00caf8:	00004012 	mflo	t0
9d00cafc:	70c84802 	mul	t1,a2,t0
9d00cb00:	01c95823 	subu	t3,t6,t1
9d00cb04:	018b5021 	addu	t2,t4,t3
9d00cb08:	914d0023 	lbu	t5,35(t2)
9d00cb0c:	1100000d 	beqz	t0,9d00cb44 <itoa+0x1a8>
9d00cb10:	a06dffff 	sb	t5,-1(v1)
9d00cb14:	01002021 	move	a0,t0
9d00cb18:	0086001a 	div	zero,a0,a2
9d00cb1c:	00603821 	move	a3,v1
9d00cb20:	24e30001 	addiu	v1,a3,1
9d00cb24:	00604821 	move	t1,v1
9d00cb28:	00005812 	mflo	t3
9d00cb2c:	70cb2802 	mul	a1,a2,t3
9d00cb30:	00855023 	subu	t2,a0,a1
9d00cb34:	018a6821 	addu	t5,t4,t2
9d00cb38:	91ae0023 	lbu	t6,35(t5)
9d00cb3c:	1560ffa8 	bnez	t3,9d00c9e0 <itoa+0x44>
9d00cb40:	a06effff 	sb	t6,-1(v1)
9d00cb44:	0480005c 	bltz	a0,9d00ccb8 <itoa+0x31c>
9d00cb48:	2404002d 	li	a0,45
9d00cb4c:	2464ffff 	addiu	a0,v1,-1
9d00cb50:	0044382b 	sltu	a3,v0,a0
9d00cb54:	00403021 	move	a2,v0
9d00cb58:	10e00053 	beqz	a3,9d00cca8 <itoa+0x30c>
9d00cb5c:	a0600000 	sb	zero,0(v1)
9d00cb60:	27bdffe0 	addiu	sp,sp,-32
9d00cb64:	afb7001c 	sw	s7,28(sp)
9d00cb68:	afb60018 	sw	s6,24(sp)
9d00cb6c:	afb50014 	sw	s5,20(sp)
9d00cb70:	afb40010 	sw	s4,16(sp)
9d00cb74:	afb3000c 	sw	s3,12(sp)
9d00cb78:	afb20008 	sw	s2,8(sp)
9d00cb7c:	afb10004 	sw	s1,4(sp)
9d00cb80:	afb00000 	sw	s0,0(sp)
9d00cb84:	90910000 	lbu	s1,0(a0)
9d00cb88:	90d20000 	lbu	s2,0(a2)
9d00cb8c:	24d30001 	addiu	s3,a2,1
9d00cb90:	2490ffff 	addiu	s0,a0,-1
9d00cb94:	2488fffe 	addiu	t0,a0,-2
9d00cb98:	24c50002 	addiu	a1,a2,2
9d00cb9c:	248afffd 	addiu	t2,a0,-3
9d00cba0:	24c90003 	addiu	t1,a2,3
9d00cba4:	248cfffc 	addiu	t4,a0,-4
9d00cba8:	24cb0004 	addiu	t3,a2,4
9d00cbac:	248efffb 	addiu	t6,a0,-5
9d00cbb0:	24cd0005 	addiu	t5,a2,5
9d00cbb4:	0270182b 	sltu	v1,s3,s0
9d00cbb8:	2498fffa 	addiu	t8,a0,-6
9d00cbbc:	24cf0006 	addiu	t7,a2,6
9d00cbc0:	a0920000 	sb	s2,0(a0)
9d00cbc4:	00a8982b 	sltu	s3,a1,t0
9d00cbc8:	2499fff9 	addiu	t9,a0,-7
9d00cbcc:	012aa02b 	sltu	s4,t1,t2
9d00cbd0:	016ca82b 	sltu	s5,t3,t4
9d00cbd4:	01aeb02b 	sltu	s6,t5,t6
9d00cbd8:	01f8b82b 	sltu	s7,t7,t8
9d00cbdc:	10600029 	beqz	v1,9d00cc84 <itoa+0x2e8>
9d00cbe0:	a0d10000 	sb	s1,0(a2)
9d00cbe4:	9087ffff 	lbu	a3,-1(a0)
9d00cbe8:	90d20001 	lbu	s2,1(a2)
9d00cbec:	24d10007 	addiu	s1,a2,7
9d00cbf0:	0239802b 	sltu	s0,s1,t9
9d00cbf4:	a1120001 	sb	s2,1(t0)
9d00cbf8:	12600022 	beqz	s3,9d00cc84 <itoa+0x2e8>
9d00cbfc:	a0a7ffff 	sb	a3,-1(a1)
9d00cc00:	9088fffe 	lbu	t0,-2(a0)
9d00cc04:	90c50002 	lbu	a1,2(a2)
9d00cc08:	a1450001 	sb	a1,1(t2)
9d00cc0c:	1280001d 	beqz	s4,9d00cc84 <itoa+0x2e8>
9d00cc10:	a128ffff 	sb	t0,-1(t1)
9d00cc14:	908afffd 	lbu	t2,-3(a0)
9d00cc18:	90c90003 	lbu	t1,3(a2)
9d00cc1c:	a1890001 	sb	t1,1(t4)
9d00cc20:	12a00018 	beqz	s5,9d00cc84 <itoa+0x2e8>
9d00cc24:	a16affff 	sb	t2,-1(t3)
9d00cc28:	908cfffc 	lbu	t4,-4(a0)
9d00cc2c:	90cb0004 	lbu	t3,4(a2)
9d00cc30:	a1cb0001 	sb	t3,1(t6)
9d00cc34:	12c00013 	beqz	s6,9d00cc84 <itoa+0x2e8>
9d00cc38:	a1acffff 	sb	t4,-1(t5)
9d00cc3c:	908efffb 	lbu	t6,-5(a0)
9d00cc40:	90cd0005 	lbu	t5,5(a2)
9d00cc44:	a30d0001 	sb	t5,1(t8)
9d00cc48:	12e0000e 	beqz	s7,9d00cc84 <itoa+0x2e8>
9d00cc4c:	a1eeffff 	sb	t6,-1(t7)
9d00cc50:	9083fffa 	lbu	v1,-6(a0)
9d00cc54:	90d80006 	lbu	t8,6(a2)
9d00cc58:	a3380001 	sb	t8,1(t9)
9d00cc5c:	12000009 	beqz	s0,9d00cc84 <itoa+0x2e8>
9d00cc60:	a0c30006 	sb	v1,6(a2)
9d00cc64:	908ffff9 	lbu	t7,-7(a0)
9d00cc68:	90d30007 	lbu	s3,7(a2)
9d00cc6c:	2484fff8 	addiu	a0,a0,-8
9d00cc70:	24c60008 	addiu	a2,a2,8
9d00cc74:	00c4c82b 	sltu	t9,a2,a0
9d00cc78:	a0930001 	sb	s3,1(a0)
9d00cc7c:	1720ffc1 	bnez	t9,9d00cb84 <itoa+0x1e8>
9d00cc80:	a0cfffff 	sb	t7,-1(a2)
9d00cc84:	8fb7001c 	lw	s7,28(sp)
9d00cc88:	8fb60018 	lw	s6,24(sp)
9d00cc8c:	8fb50014 	lw	s5,20(sp)
9d00cc90:	8fb40010 	lw	s4,16(sp)
9d00cc94:	8fb3000c 	lw	s3,12(sp)
9d00cc98:	8fb20008 	lw	s2,8(sp)
9d00cc9c:	8fb10004 	lw	s1,4(sp)
9d00cca0:	8fb00000 	lw	s0,0(sp)
9d00cca4:	27bd0020 	addiu	sp,sp,32
9d00cca8:	03e00008 	jr	ra
9d00ccac:	00000000 	nop
9d00ccb0:	03e00008 	jr	ra
9d00ccb4:	a0a00000 	sb	zero,0(a1)
9d00ccb8:	24e30002 	addiu	v1,a3,2
9d00ccbc:	1000ffa3 	b	9d00cb4c <itoa+0x1b0>
9d00ccc0:	a0e40001 	sb	a0,1(a3)

9d00ccc4 <puts>:
9d00ccc4:	90850000 	lbu	a1,0(a0)
9d00ccc8:	3c02bf82 	lui	v0,0xbf82
9d00cccc:	10a00026 	beqz	a1,9d00cd68 <puts+0xa4>
9d00ccd0:	3c06bf82 	lui	a2,0xbf82
9d00ccd4:	24840001 	addiu	a0,a0,1
9d00ccd8:	8c432210 	lw	v1,8720(v0)
9d00ccdc:	30670200 	andi	a3,v1,0x200
9d00cce0:	10e0001d 	beqz	a3,9d00cd58 <puts+0x94>
9d00cce4:	00000000 	nop
9d00cce8:	8c482210 	lw	t0,8720(v0)
9d00ccec:	31090200 	andi	t1,t0,0x200
9d00ccf0:	11200019 	beqz	t1,9d00cd58 <puts+0x94>
9d00ccf4:	00000000 	nop
9d00ccf8:	8c4a2210 	lw	t2,8720(v0)
9d00ccfc:	314b0200 	andi	t3,t2,0x200
9d00cd00:	11600015 	beqz	t3,9d00cd58 <puts+0x94>
9d00cd04:	00000000 	nop
9d00cd08:	8c4c2210 	lw	t4,8720(v0)
9d00cd0c:	318d0200 	andi	t5,t4,0x200
9d00cd10:	11a00011 	beqz	t5,9d00cd58 <puts+0x94>
9d00cd14:	00000000 	nop
9d00cd18:	8c4e2210 	lw	t6,8720(v0)
9d00cd1c:	31cf0200 	andi	t7,t6,0x200
9d00cd20:	11e0000d 	beqz	t7,9d00cd58 <puts+0x94>
9d00cd24:	00000000 	nop
9d00cd28:	8c582210 	lw	t8,8720(v0)
9d00cd2c:	33190200 	andi	t9,t8,0x200
9d00cd30:	13200009 	beqz	t9,9d00cd58 <puts+0x94>
9d00cd34:	00000000 	nop
9d00cd38:	8c432210 	lw	v1,8720(v0)
9d00cd3c:	30670200 	andi	a3,v1,0x200
9d00cd40:	10e00005 	beqz	a3,9d00cd58 <puts+0x94>
9d00cd44:	00000000 	nop
9d00cd48:	8c482210 	lw	t0,8720(v0)
9d00cd4c:	31090200 	andi	t1,t0,0x200
9d00cd50:	1520ffe1 	bnez	t1,9d00ccd8 <puts+0x14>
9d00cd54:	00000000 	nop
9d00cd58:	acc52220 	sw	a1,8736(a2)
9d00cd5c:	90850000 	lbu	a1,0(a0)
9d00cd60:	14a0ffdd 	bnez	a1,9d00ccd8 <puts+0x14>
9d00cd64:	24840001 	addiu	a0,a0,1
9d00cd68:	3c04bf82 	lui	a0,0xbf82
9d00cd6c:	8c822210 	lw	v0,8720(a0)
9d00cd70:	30460200 	andi	a2,v0,0x200
9d00cd74:	50c0001e 	beqzl	a2,9d00cdf0 <puts+0x12c>
9d00cd78:	2404000a 	li	a0,10
9d00cd7c:	8c8a2210 	lw	t2,8720(a0)
9d00cd80:	314b0200 	andi	t3,t2,0x200
9d00cd84:	5160001a 	beqzl	t3,9d00cdf0 <puts+0x12c>
9d00cd88:	2404000a 	li	a0,10
9d00cd8c:	8c8c2210 	lw	t4,8720(a0)
9d00cd90:	318d0200 	andi	t5,t4,0x200
9d00cd94:	51a00016 	beqzl	t5,9d00cdf0 <puts+0x12c>
9d00cd98:	2404000a 	li	a0,10
9d00cd9c:	8c8e2210 	lw	t6,8720(a0)
9d00cda0:	31cf0200 	andi	t7,t6,0x200
9d00cda4:	51e00012 	beqzl	t7,9d00cdf0 <puts+0x12c>
9d00cda8:	2404000a 	li	a0,10
9d00cdac:	8c982210 	lw	t8,8720(a0)
9d00cdb0:	33190200 	andi	t9,t8,0x200
9d00cdb4:	5320000e 	beqzl	t9,9d00cdf0 <puts+0x12c>
9d00cdb8:	2404000a 	li	a0,10
9d00cdbc:	8c832210 	lw	v1,8720(a0)
9d00cdc0:	30670200 	andi	a3,v1,0x200
9d00cdc4:	50e0000a 	beqzl	a3,9d00cdf0 <puts+0x12c>
9d00cdc8:	2404000a 	li	a0,10
9d00cdcc:	8c882210 	lw	t0,8720(a0)
9d00cdd0:	31090200 	andi	t1,t0,0x200
9d00cdd4:	51200006 	beqzl	t1,9d00cdf0 <puts+0x12c>
9d00cdd8:	2404000a 	li	a0,10
9d00cddc:	8c852210 	lw	a1,8720(a0)
9d00cde0:	30a20200 	andi	v0,a1,0x200
9d00cde4:	1440ffe1 	bnez	v0,9d00cd6c <puts+0xa8>
9d00cde8:	00000000 	nop
9d00cdec:	2404000a 	li	a0,10
9d00cdf0:	3c06bf82 	lui	a2,0xbf82
9d00cdf4:	acc42220 	sw	a0,8736(a2)
9d00cdf8:	03e00008 	jr	ra
9d00cdfc:	00001021 	move	v0,zero

9d00ce00 <gets>:
9d00ce00:	00803021 	move	a2,a0
9d00ce04:	3c03bf82 	lui	v1,0xbf82
9d00ce08:	2408000a 	li	t0,10
9d00ce0c:	3c07bf82 	lui	a3,0xbf82
9d00ce10:	8c652210 	lw	a1,8720(v1)
9d00ce14:	30a20001 	andi	v0,a1,0x1
9d00ce18:	1440001d 	bnez	v0,9d00ce90 <gets+0x90>
9d00ce1c:	00000000 	nop
9d00ce20:	8c692210 	lw	t1,8720(v1)
9d00ce24:	312a0001 	andi	t2,t1,0x1
9d00ce28:	15400019 	bnez	t2,9d00ce90 <gets+0x90>
9d00ce2c:	00000000 	nop
9d00ce30:	8c6b2210 	lw	t3,8720(v1)
9d00ce34:	316c0001 	andi	t4,t3,0x1
9d00ce38:	15800015 	bnez	t4,9d00ce90 <gets+0x90>
9d00ce3c:	00000000 	nop
9d00ce40:	8c6d2210 	lw	t5,8720(v1)
9d00ce44:	31ae0001 	andi	t6,t5,0x1
9d00ce48:	15c00011 	bnez	t6,9d00ce90 <gets+0x90>
9d00ce4c:	00000000 	nop
9d00ce50:	8c6f2210 	lw	t7,8720(v1)
9d00ce54:	31f80001 	andi	t8,t7,0x1
9d00ce58:	1700000d 	bnez	t8,9d00ce90 <gets+0x90>
9d00ce5c:	00000000 	nop
9d00ce60:	8c792210 	lw	t9,8720(v1)
9d00ce64:	33250001 	andi	a1,t9,0x1
9d00ce68:	14a00009 	bnez	a1,9d00ce90 <gets+0x90>
9d00ce6c:	00000000 	nop
9d00ce70:	8c622210 	lw	v0,8720(v1)
9d00ce74:	30490001 	andi	t1,v0,0x1
9d00ce78:	15200005 	bnez	t1,9d00ce90 <gets+0x90>
9d00ce7c:	00000000 	nop
9d00ce80:	8c6a2210 	lw	t2,8720(v1)
9d00ce84:	314b0001 	andi	t3,t2,0x1
9d00ce88:	1160ffe1 	beqz	t3,9d00ce10 <gets+0x10>
9d00ce8c:	00000000 	nop
9d00ce90:	8cec2230 	lw	t4,8752(a3)
9d00ce94:	318d00ff 	andi	t5,t4,0xff
9d00ce98:	51a80004 	beql	t5,t0,9d00ceac <gets+0xac>
9d00ce9c:	a0c00000 	sb	zero,0(a2)
9d00cea0:	24c60001 	addiu	a2,a2,1
9d00cea4:	1000ffda 	b	9d00ce10 <gets+0x10>
9d00cea8:	a0cdffff 	sb	t5,-1(a2)
9d00ceac:	03e00008 	jr	ra
9d00ceb0:	00801021 	move	v0,a0

9d00ceb4 <abs>:
9d00ceb4:	000417c3 	sra	v0,a0,0x1f
9d00ceb8:	00442026 	xor	a0,v0,a0
9d00cebc:	03e00008 	jr	ra
9d00cec0:	00821023 	subu	v0,a0,v0

9d00cec4 <random>:
9d00cec4:	3c048000 	lui	a0,0x8000
9d00cec8:	8c830014 	lw	v1,20(a0)
9d00cecc:	3c0241c6 	lui	v0,0x41c6
9d00ced0:	24454e6d 	addiu	a1,v0,20077
9d00ced4:	70653002 	mul	a2,v1,a1
9d00ced8:	24c73039 	addiu	a3,a2,12345
9d00cedc:	ac870014 	sw	a3,20(a0)
9d00cee0:	03e00008 	jr	ra
9d00cee4:	7ce27400 	ext	v0,a3,0x10,0xf

9d00cee8 <srand>:
9d00cee8:	3c028000 	lui	v0,0x8000
9d00ceec:	03e00008 	jr	ra
9d00cef0:	ac440014 	sw	a0,20(v0)

9d00cef4 <atof>:
9d00cef4:	27bdffc8 	addiu	sp,sp,-56
9d00cef8:	240f000d 	li	t7,13
9d00cefc:	afb50024 	sw	s5,36(sp)
9d00cf00:	afb40020 	sw	s4,32(sp)
9d00cf04:	afb10014 	sw	s1,20(sp)
9d00cf08:	afbf0034 	sw	ra,52(sp)
9d00cf0c:	afbe0030 	sw	s8,48(sp)
9d00cf10:	afb7002c 	sw	s7,44(sp)
9d00cf14:	afb60028 	sw	s6,40(sp)
9d00cf18:	afb3001c 	sw	s3,28(sp)
9d00cf1c:	afb20018 	sw	s2,24(sp)
9d00cf20:	afb00010 	sw	s0,16(sp)
9d00cf24:	0080a821 	move	s5,a0
9d00cf28:	0000a021 	move	s4,zero
9d00cf2c:	24110020 	li	s1,32
9d00cf30:	02b43021 	addu	a2,s5,s4
9d00cf34:	90c80000 	lbu	t0,0(a2)
9d00cf38:	11110006 	beq	t0,s1,9d00cf54 <atof+0x60>
9d00cf3c:	2503fff7 	addiu	v1,t0,-9
9d00cf40:	2c640002 	sltiu	a0,v1,2
9d00cf44:	5480fffa 	bnezl	a0,9d00cf30 <atof+0x3c>
9d00cf48:	26940001 	addiu	s4,s4,1
9d00cf4c:	150f0003 	bne	t0,t7,9d00cf5c <atof+0x68>
9d00cf50:	2405002d 	li	a1,45
9d00cf54:	1000fff6 	b	9d00cf30 <atof+0x3c>
9d00cf58:	26940001 	addiu	s4,s4,1
9d00cf5c:	11050068 	beq	t0,a1,9d00d100 <atof+0x20c>
9d00cf60:	2407002b 	li	a3,43
9d00cf64:	3c129d01 	lui	s2,0x9d01
9d00cf68:	11070068 	beq	t0,a3,9d00d10c <atof+0x218>
9d00cf6c:	8e5104ec 	lw	s1,1260(s2)
9d00cf70:	251effd0 	addiu	s8,t0,-48
9d00cf74:	33c900ff 	andi	t1,s8,0xff
9d00cf78:	2d2a000a 	sltiu	t2,t1,10
9d00cf7c:	1140009c 	beqz	t2,9d00d1f0 <atof+0x2fc>
9d00cf80:	01001821 	move	v1,t0
9d00cf84:	3c069d01 	lui	a2,0x9d01
9d00cf88:	8cd004f4 	lw	s0,1268(a2)
9d00cf8c:	0000b021 	move	s6,zero
9d00cf90:	02c02021 	move	a0,s6
9d00cf94:	0f4036a2 	jal	9d00da88 <__mulsf3>
9d00cf98:	02002821 	move	a1,s0
9d00cf9c:	03c02021 	move	a0,s8
9d00cfa0:	0f403766 	jal	9d00dd98 <__floatsisf>
9d00cfa4:	0040b021 	move	s6,v0
9d00cfa8:	00402021 	move	a0,v0
9d00cfac:	0f403574 	jal	9d00d5d0 <__addsf3>
9d00cfb0:	02c02821 	move	a1,s6
9d00cfb4:	268b0001 	addiu	t3,s4,1
9d00cfb8:	02ab3021 	addu	a2,s5,t3
9d00cfbc:	90c30000 	lbu	v1,0(a2)
9d00cfc0:	0040b021 	move	s6,v0
9d00cfc4:	00402021 	move	a0,v0
9d00cfc8:	2477ffd0 	addiu	s7,v1,-48
9d00cfcc:	32ec00ff 	andi	t4,s7,0xff
9d00cfd0:	2d8d000a 	sltiu	t5,t4,10
9d00cfd4:	02002821 	move	a1,s0
9d00cfd8:	269e0002 	addiu	s8,s4,2
9d00cfdc:	11a00032 	beqz	t5,9d00d0a8 <atof+0x1b4>
9d00cfe0:	26930003 	addiu	s3,s4,3
9d00cfe4:	0f4036a2 	jal	9d00da88 <__mulsf3>
9d00cfe8:	26940004 	addiu	s4,s4,4
9d00cfec:	02e02021 	move	a0,s7
9d00cff0:	0f403766 	jal	9d00dd98 <__floatsisf>
9d00cff4:	0040b021 	move	s6,v0
9d00cff8:	00402021 	move	a0,v0
9d00cffc:	0f403574 	jal	9d00d5d0 <__addsf3>
9d00d000:	02c02821 	move	a1,s6
9d00d004:	02be3021 	addu	a2,s5,s8
9d00d008:	90c30000 	lbu	v1,0(a2)
9d00d00c:	0040b021 	move	s6,v0
9d00d010:	00402021 	move	a0,v0
9d00d014:	247effd0 	addiu	s8,v1,-48
9d00d018:	33ce00ff 	andi	t6,s8,0xff
9d00d01c:	2dcf000a 	sltiu	t7,t6,10
9d00d020:	11e00021 	beqz	t7,9d00d0a8 <atof+0x1b4>
9d00d024:	02002821 	move	a1,s0
9d00d028:	0f4036a2 	jal	9d00da88 <__mulsf3>
9d00d02c:	00000000 	nop
9d00d030:	03c02021 	move	a0,s8
9d00d034:	0f403766 	jal	9d00dd98 <__floatsisf>
9d00d038:	0040b821 	move	s7,v0
9d00d03c:	00402021 	move	a0,v0
9d00d040:	0f403574 	jal	9d00d5d0 <__addsf3>
9d00d044:	02e02821 	move	a1,s7
9d00d048:	02b33021 	addu	a2,s5,s3
9d00d04c:	90c30000 	lbu	v1,0(a2)
9d00d050:	0040b021 	move	s6,v0
9d00d054:	00402021 	move	a0,v0
9d00d058:	2473ffd0 	addiu	s3,v1,-48
9d00d05c:	327800ff 	andi	t8,s3,0xff
9d00d060:	2f19000a 	sltiu	t9,t8,10
9d00d064:	13200010 	beqz	t9,9d00d0a8 <atof+0x1b4>
9d00d068:	02002821 	move	a1,s0
9d00d06c:	0f4036a2 	jal	9d00da88 <__mulsf3>
9d00d070:	00000000 	nop
9d00d074:	02602021 	move	a0,s3
9d00d078:	0f403766 	jal	9d00dd98 <__floatsisf>
9d00d07c:	0040b021 	move	s6,v0
9d00d080:	00402021 	move	a0,v0
9d00d084:	0f403574 	jal	9d00d5d0 <__addsf3>
9d00d088:	02c02821 	move	a1,s6
9d00d08c:	02b43021 	addu	a2,s5,s4
9d00d090:	90c30000 	lbu	v1,0(a2)
9d00d094:	247effd0 	addiu	s8,v1,-48
9d00d098:	33c400ff 	andi	a0,s8,0xff
9d00d09c:	2c85000a 	sltiu	a1,a0,10
9d00d0a0:	14a0ffbb 	bnez	a1,9d00cf90 <atof+0x9c>
9d00d0a4:	0040b021 	move	s6,v0
9d00d0a8:	2415002e 	li	s5,46
9d00d0ac:	5075001b 	beql	v1,s5,9d00d11c <atof+0x228>
9d00d0b0:	90df0001 	lbu	ra,1(a2)
9d00d0b4:	8e5204ec 	lw	s2,1260(s2)
9d00d0b8:	02c02021 	move	a0,s6
9d00d0bc:	0f4036a2 	jal	9d00da88 <__mulsf3>
9d00d0c0:	02202821 	move	a1,s1
9d00d0c4:	00402021 	move	a0,v0
9d00d0c8:	0f4036d2 	jal	9d00db48 <__divsf3>
9d00d0cc:	02402821 	move	a1,s2
9d00d0d0:	8fbf0034 	lw	ra,52(sp)
9d00d0d4:	8fbe0030 	lw	s8,48(sp)
9d00d0d8:	8fb7002c 	lw	s7,44(sp)
9d00d0dc:	8fb60028 	lw	s6,40(sp)
9d00d0e0:	8fb50024 	lw	s5,36(sp)
9d00d0e4:	8fb40020 	lw	s4,32(sp)
9d00d0e8:	8fb3001c 	lw	s3,28(sp)
9d00d0ec:	8fb20018 	lw	s2,24(sp)
9d00d0f0:	8fb10014 	lw	s1,20(sp)
9d00d0f4:	8fb00010 	lw	s0,16(sp)
9d00d0f8:	03e00008 	jr	ra
9d00d0fc:	27bd0038 	addiu	sp,sp,56
9d00d100:	3c029d01 	lui	v0,0x9d01
9d00d104:	8c5104f0 	lw	s1,1264(v0)
9d00d108:	3c129d01 	lui	s2,0x9d01
9d00d10c:	26940001 	addiu	s4,s4,1
9d00d110:	02b43021 	addu	a2,s5,s4
9d00d114:	1000ff96 	b	9d00cf70 <atof+0x7c>
9d00d118:	90c80000 	lbu	t0,0(a2)
9d00d11c:	27f5ffd0 	addiu	s5,ra,-48
9d00d120:	32a700ff 	andi	a3,s5,0xff
9d00d124:	2ce2000a 	sltiu	v0,a3,10
9d00d128:	1040ffe2 	beqz	v0,9d00d0b4 <atof+0x1c0>
9d00d12c:	3c089d01 	lui	t0,0x9d01
9d00d130:	8d1404f4 	lw	s4,1268(t0)
9d00d134:	8e5204ec 	lw	s2,1260(s2)
9d00d138:	00c09821 	move	s3,a2
9d00d13c:	10000013 	b	9d00d18c <atof+0x298>
9d00d140:	0280f021 	move	s8,s4
9d00d144:	0f4036a2 	jal	9d00da88 <__mulsf3>
9d00d148:	00000000 	nop
9d00d14c:	02002021 	move	a0,s0
9d00d150:	0f403766 	jal	9d00dd98 <__floatsisf>
9d00d154:	0040b021 	move	s6,v0
9d00d158:	00402021 	move	a0,v0
9d00d15c:	0f403574 	jal	9d00d5d0 <__addsf3>
9d00d160:	02c02821 	move	a1,s6
9d00d164:	02402021 	move	a0,s2
9d00d168:	02802821 	move	a1,s4
9d00d16c:	0f4036a2 	jal	9d00da88 <__mulsf3>
9d00d170:	0040b021 	move	s6,v0
9d00d174:	92ac0002 	lbu	t4,2(s5)
9d00d178:	2595ffd0 	addiu	s5,t4,-48
9d00d17c:	32ad00ff 	andi	t5,s5,0xff
9d00d180:	2dae000a 	sltiu	t6,t5,10
9d00d184:	11c0ffcc 	beqz	t6,9d00d0b8 <atof+0x1c4>
9d00d188:	00409021 	move	s2,v0
9d00d18c:	02c02021 	move	a0,s6
9d00d190:	0f4036a2 	jal	9d00da88 <__mulsf3>
9d00d194:	02802821 	move	a1,s4
9d00d198:	02a02021 	move	a0,s5
9d00d19c:	0f403766 	jal	9d00dd98 <__floatsisf>
9d00d1a0:	0040b821 	move	s7,v0
9d00d1a4:	00402021 	move	a0,v0
9d00d1a8:	0f403574 	jal	9d00d5d0 <__addsf3>
9d00d1ac:	02e02821 	move	a1,s7
9d00d1b0:	02402021 	move	a0,s2
9d00d1b4:	03c02821 	move	a1,s8
9d00d1b8:	0f4036a2 	jal	9d00da88 <__mulsf3>
9d00d1bc:	0040b021 	move	s6,v0
9d00d1c0:	92690002 	lbu	t1,2(s3)
9d00d1c4:	26750001 	addiu	s5,s3,1
9d00d1c8:	00409021 	move	s2,v0
9d00d1cc:	2530ffd0 	addiu	s0,t1,-48
9d00d1d0:	320a00ff 	andi	t2,s0,0xff
9d00d1d4:	2d4b000a 	sltiu	t3,t2,10
9d00d1d8:	02c02021 	move	a0,s6
9d00d1dc:	02802821 	move	a1,s4
9d00d1e0:	1560ffd8 	bnez	t3,9d00d144 <atof+0x250>
9d00d1e4:	26730002 	addiu	s3,s3,2
9d00d1e8:	1000ffb3 	b	9d00d0b8 <atof+0x1c4>
9d00d1ec:	00000000 	nop
9d00d1f0:	1000ffad 	b	9d00d0a8 <atof+0x1b4>
9d00d1f4:	0000b021 	move	s6,zero

9d00d1f8 <printf>:
9d00d1f8:	27bdffe0 	addiu	sp,sp,-32
9d00d1fc:	27a20024 	addiu	v0,sp,36
9d00d200:	afa50024 	sw	a1,36(sp)
9d00d204:	00402821 	move	a1,v0
9d00d208:	afbf001c 	sw	ra,28(sp)
9d00d20c:	afa60028 	sw	a2,40(sp)
9d00d210:	afa7002c 	sw	a3,44(sp)
9d00d214:	0f401e9e 	jal	9d007a78 <print.constprop.4>
9d00d218:	afa20010 	sw	v0,16(sp)
9d00d21c:	8fbf001c 	lw	ra,28(sp)
9d00d220:	03e00008 	jr	ra
9d00d224:	27bd0020 	addiu	sp,sp,32

9d00d228 <sprintf>:
9d00d228:	27bdffe0 	addiu	sp,sp,-32
9d00d22c:	27a20028 	addiu	v0,sp,40
9d00d230:	afa40020 	sw	a0,32(sp)
9d00d234:	afa60028 	sw	a2,40(sp)
9d00d238:	27a40020 	addiu	a0,sp,32
9d00d23c:	00403021 	move	a2,v0
9d00d240:	afbf001c 	sw	ra,28(sp)
9d00d244:	afa7002c 	sw	a3,44(sp)
9d00d248:	0f402609 	jal	9d009824 <print>
9d00d24c:	afa20010 	sw	v0,16(sp)
9d00d250:	8fbf001c 	lw	ra,28(sp)
9d00d254:	03e00008 	jr	ra
9d00d258:	27bd0020 	addiu	sp,sp,32

9d00d25c <udelay>:
9d00d25c:	40024800 	mfc0	v0,c0_count
9d00d260:	000418c0 	sll	v1,a0,0x3
9d00d264:	00042140 	sll	a0,a0,0x5
9d00d268:	00642821 	addu	a1,v1,a0
9d00d26c:	00053080 	sll	a2,a1,0x2
9d00d270:	00a63821 	addu	a3,a1,a2
9d00d274:	00074042 	srl	t0,a3,0x1
9d00d278:	00484821 	addu	t1,v0,t0
9d00d27c:	400a4800 	mfc0	t2,c0_count
9d00d280:	01495823 	subu	t3,t2,t1
9d00d284:	0561001f 	bgez	t3,9d00d304 <udelay+0xa8>
9d00d288:	00000000 	nop
9d00d28c:	400c4800 	mfc0	t4,c0_count
9d00d290:	01896823 	subu	t5,t4,t1
9d00d294:	05a1001b 	bgez	t5,9d00d304 <udelay+0xa8>
9d00d298:	00000000 	nop
9d00d29c:	400e4800 	mfc0	t6,c0_count
9d00d2a0:	01c97823 	subu	t7,t6,t1
9d00d2a4:	05e10017 	bgez	t7,9d00d304 <udelay+0xa8>
9d00d2a8:	00000000 	nop
9d00d2ac:	40184800 	mfc0	t8,c0_count
9d00d2b0:	0309c823 	subu	t9,t8,t1
9d00d2b4:	07210013 	bgez	t9,9d00d304 <udelay+0xa8>
9d00d2b8:	00000000 	nop
9d00d2bc:	40024800 	mfc0	v0,c0_count
9d00d2c0:	00491823 	subu	v1,v0,t1
9d00d2c4:	0461000f 	bgez	v1,9d00d304 <udelay+0xa8>
9d00d2c8:	00000000 	nop
9d00d2cc:	40044800 	mfc0	a0,c0_count
9d00d2d0:	00892823 	subu	a1,a0,t1
9d00d2d4:	04a1000b 	bgez	a1,9d00d304 <udelay+0xa8>
9d00d2d8:	00000000 	nop
9d00d2dc:	40064800 	mfc0	a2,c0_count
9d00d2e0:	00c93823 	subu	a3,a2,t1
9d00d2e4:	04e10007 	bgez	a3,9d00d304 <udelay+0xa8>
9d00d2e8:	00000000 	nop
9d00d2ec:	40084800 	mfc0	t0,c0_count
9d00d2f0:	01095023 	subu	t2,t0,t1
9d00d2f4:	0540ffe1 	bltz	t2,9d00d27c <udelay+0x20>
9d00d2f8:	00000000 	nop
9d00d2fc:	03e00008 	jr	ra
9d00d300:	00000000 	nop
9d00d304:	03e00008 	jr	ra
9d00d308:	00000000 	nop

9d00d30c <putchar>:
9d00d30c:	3c02bf82 	lui	v0,0xbf82
9d00d310:	8c432210 	lw	v1,8720(v0)
9d00d314:	30650200 	andi	a1,v1,0x200
9d00d318:	50a0001e 	beqzl	a1,9d00d394 <putchar+0x88>
9d00d31c:	3c02bf82 	lui	v0,0xbf82
9d00d320:	8c462210 	lw	a2,8720(v0)
9d00d324:	30c70200 	andi	a3,a2,0x200
9d00d328:	50e0001a 	beqzl	a3,9d00d394 <putchar+0x88>
9d00d32c:	3c02bf82 	lui	v0,0xbf82
9d00d330:	8c482210 	lw	t0,8720(v0)
9d00d334:	31090200 	andi	t1,t0,0x200
9d00d338:	51200016 	beqzl	t1,9d00d394 <putchar+0x88>
9d00d33c:	3c02bf82 	lui	v0,0xbf82
9d00d340:	8c4a2210 	lw	t2,8720(v0)
9d00d344:	314b0200 	andi	t3,t2,0x200
9d00d348:	51600012 	beqzl	t3,9d00d394 <putchar+0x88>
9d00d34c:	3c02bf82 	lui	v0,0xbf82
9d00d350:	8c4c2210 	lw	t4,8720(v0)
9d00d354:	318d0200 	andi	t5,t4,0x200
9d00d358:	51a0000e 	beqzl	t5,9d00d394 <putchar+0x88>
9d00d35c:	3c02bf82 	lui	v0,0xbf82
9d00d360:	8c4e2210 	lw	t6,8720(v0)
9d00d364:	31cf0200 	andi	t7,t6,0x200
9d00d368:	51e0000a 	beqzl	t7,9d00d394 <putchar+0x88>
9d00d36c:	3c02bf82 	lui	v0,0xbf82
9d00d370:	8c582210 	lw	t8,8720(v0)
9d00d374:	33190200 	andi	t9,t8,0x200
9d00d378:	53200006 	beqzl	t9,9d00d394 <putchar+0x88>
9d00d37c:	3c02bf82 	lui	v0,0xbf82
9d00d380:	8c432210 	lw	v1,8720(v0)
9d00d384:	30650200 	andi	a1,v1,0x200
9d00d388:	14a0ffe1 	bnez	a1,9d00d310 <putchar+0x4>
9d00d38c:	00000000 	nop
9d00d390:	3c02bf82 	lui	v0,0xbf82
9d00d394:	ac442220 	sw	a0,8736(v0)
9d00d398:	03e00008 	jr	ra
9d00d39c:	00000000 	nop

9d00d3a0 <kbhit>:
9d00d3a0:	3c02bf82 	lui	v0,0xbf82
9d00d3a4:	8c432210 	lw	v1,8720(v0)
9d00d3a8:	03e00008 	jr	ra
9d00d3ac:	30620001 	andi	v0,v1,0x1

9d00d3b0 <getchar>:
9d00d3b0:	3c02bf82 	lui	v0,0xbf82
9d00d3b4:	8c432210 	lw	v1,8720(v0)
9d00d3b8:	30640001 	andi	a0,v1,0x1
9d00d3bc:	5480001e 	bnezl	a0,9d00d438 <getchar+0x88>
9d00d3c0:	3c02bf82 	lui	v0,0xbf82
9d00d3c4:	8c452210 	lw	a1,8720(v0)
9d00d3c8:	30a60001 	andi	a2,a1,0x1
9d00d3cc:	54c0001a 	bnezl	a2,9d00d438 <getchar+0x88>
9d00d3d0:	3c02bf82 	lui	v0,0xbf82
9d00d3d4:	8c472210 	lw	a3,8720(v0)
9d00d3d8:	30e80001 	andi	t0,a3,0x1
9d00d3dc:	55000016 	bnezl	t0,9d00d438 <getchar+0x88>
9d00d3e0:	3c02bf82 	lui	v0,0xbf82
9d00d3e4:	8c492210 	lw	t1,8720(v0)
9d00d3e8:	312a0001 	andi	t2,t1,0x1
9d00d3ec:	55400012 	bnezl	t2,9d00d438 <getchar+0x88>
9d00d3f0:	3c02bf82 	lui	v0,0xbf82
9d00d3f4:	8c4b2210 	lw	t3,8720(v0)
9d00d3f8:	316c0001 	andi	t4,t3,0x1
9d00d3fc:	5580000e 	bnezl	t4,9d00d438 <getchar+0x88>
9d00d400:	3c02bf82 	lui	v0,0xbf82
9d00d404:	8c4d2210 	lw	t5,8720(v0)
9d00d408:	31ae0001 	andi	t6,t5,0x1
9d00d40c:	55c0000a 	bnezl	t6,9d00d438 <getchar+0x88>
9d00d410:	3c02bf82 	lui	v0,0xbf82
9d00d414:	8c4f2210 	lw	t7,8720(v0)
9d00d418:	31f80001 	andi	t8,t7,0x1
9d00d41c:	57000006 	bnezl	t8,9d00d438 <getchar+0x88>
9d00d420:	3c02bf82 	lui	v0,0xbf82
9d00d424:	8c592210 	lw	t9,8720(v0)
9d00d428:	33230001 	andi	v1,t9,0x1
9d00d42c:	1060ffe1 	beqz	v1,9d00d3b4 <getchar+0x4>
9d00d430:	00000000 	nop
9d00d434:	3c02bf82 	lui	v0,0xbf82
9d00d438:	8c442230 	lw	a0,8752(v0)
9d00d43c:	03e00008 	jr	ra
9d00d440:	308200ff 	andi	v0,a0,0xff

9d00d444 <proc_init>:
9d00d444:	3c04bf81 	lui	a0,0xbf81
9d00d448:	ac800010 	sw	zero,16(a0)
9d00d44c:	3c029d00 	lui	v0,0x9d00
9d00d450:	40827801 	mtc0	v0,c0_ebase
9d00d454:	40056800 	mfc0	a1,c0_cause
9d00d458:	3c030080 	lui	v1,0x80
9d00d45c:	00a33025 	or	a2,a1,v1
9d00d460:	40866800 	mtc0	a2,c0_cause
9d00d464:	24071000 	li	a3,4096
9d00d468:	ac870008 	sw	a3,8(a0)
9d00d46c:	40086000 	mfc0	t0,c0_status
9d00d470:	3c09ffbf 	lui	t1,0xffbf
9d00d474:	352afffd 	ori	t2,t1,0xfffd
9d00d478:	010a5824 	and	t3,t0,t2
9d00d47c:	408b6000 	mtc0	t3,c0_status
9d00d480:	3c0cbf86 	lui	t4,0xbf86
9d00d484:	ad870118 	sw	a3,280(t4)
9d00d488:	03e00008 	jr	ra
9d00d48c:	ad870158 	sw	a3,344(t4)

9d00d490 <start_timer>:
9d00d490:	3c02bf81 	lui	v0,0xbf81
9d00d494:	24030001 	li	v1,1
9d00d498:	24040200 	li	a0,512
9d00d49c:	2405001f 	li	a1,31
9d00d4a0:	ac440540 	sw	a0,1344(v0)
9d00d4a4:	ac450140 	sw	a1,320(v0)
9d00d4a8:	ac430044 	sw	v1,68(v0)
9d00d4ac:	ac4300c8 	sw	v1,200(v0)
9d00d4b0:	40064800 	mfc0	a2,c0_count
9d00d4b4:	24c72710 	addiu	a3,a2,10000
9d00d4b8:	40875800 	mtc0	a3,c0_compare
9d00d4bc:	03e00008 	jr	ra
9d00d4c0:	41606020 	ei

9d00d4c4 <init_uart>:
9d00d4c4:	00052842 	srl	a1,a1,0x1
9d00d4c8:	00042100 	sll	a0,a0,0x4
9d00d4cc:	00a4001b 	divu	zero,a1,a0
9d00d4d0:	3c02bf82 	lui	v0,0xbf82
9d00d4d4:	24031400 	li	v1,5120
9d00d4d8:	34078840 	li	a3,0x8840
9d00d4dc:	ac402200 	sw	zero,8704(v0)
9d00d4e0:	ac432210 	sw	v1,8720(v0)
9d00d4e4:	00003012 	mflo	a2
9d00d4e8:	ac462240 	sw	a2,8768(v0)
9d00d4ec:	ac472208 	sw	a3,8712(v0)
9d00d4f0:	03e00008 	jr	ra
9d00d4f4:	00000000 	nop

9d00d4f8 <SoftReset>:
9d00d4f8:	3c049d01 	lui	a0,0x9d01
9d00d4fc:	27bdffe8 	addiu	sp,sp,-24
9d00d500:	afbf0014 	sw	ra,20(sp)
9d00d504:	0f40347e 	jal	9d00d1f8 <printf>
9d00d508:	248404b4 	addiu	a0,a0,1204
9d00d50c:	40024800 	mfc0	v0,c0_count
9d00d510:	3c0305f5 	lui	v1,0x5f5
9d00d514:	3465e100 	ori	a1,v1,0xe100
9d00d518:	00453021 	addu	a2,v0,a1
9d00d51c:	40074800 	mfc0	a3,c0_count
9d00d520:	00e64023 	subu	t0,a3,a2
9d00d524:	0503001d 	bgezl	t0,9d00d59c <SoftReset+0xa4>
9d00d528:	3c07aa99 	lui	a3,0xaa99
9d00d52c:	40094800 	mfc0	t1,c0_count
9d00d530:	01265023 	subu	t2,t1,a2
9d00d534:	05430019 	bgezl	t2,9d00d59c <SoftReset+0xa4>
9d00d538:	3c07aa99 	lui	a3,0xaa99
9d00d53c:	400b4800 	mfc0	t3,c0_count
9d00d540:	01666023 	subu	t4,t3,a2
9d00d544:	05830015 	bgezl	t4,9d00d59c <SoftReset+0xa4>
9d00d548:	3c07aa99 	lui	a3,0xaa99
9d00d54c:	400d4800 	mfc0	t5,c0_count
9d00d550:	01a67023 	subu	t6,t5,a2
9d00d554:	05c30011 	bgezl	t6,9d00d59c <SoftReset+0xa4>
9d00d558:	3c07aa99 	lui	a3,0xaa99
9d00d55c:	400f4800 	mfc0	t7,c0_count
9d00d560:	01e6c023 	subu	t8,t7,a2
9d00d564:	0703000d 	bgezl	t8,9d00d59c <SoftReset+0xa4>
9d00d568:	3c07aa99 	lui	a3,0xaa99
9d00d56c:	40194800 	mfc0	t9,c0_count
9d00d570:	0326f823 	subu	ra,t9,a2
9d00d574:	07e30009 	bgezl	ra,9d00d59c <SoftReset+0xa4>
9d00d578:	3c07aa99 	lui	a3,0xaa99
9d00d57c:	40044800 	mfc0	a0,c0_count
9d00d580:	00861023 	subu	v0,a0,a2
9d00d584:	04410005 	bgez	v0,9d00d59c <SoftReset+0xa4>
9d00d588:	3c07aa99 	lui	a3,0xaa99
9d00d58c:	40034800 	mfc0	v1,c0_count
9d00d590:	00662823 	subu	a1,v1,a2
9d00d594:	04a0ffe1 	bltz	a1,9d00d51c <SoftReset+0x24>
9d00d598:	3c07aa99 	lui	a3,0xaa99
9d00d59c:	3c095566 	lui	t1,0x5566
9d00d5a0:	3c06bf80 	lui	a2,0xbf80
9d00d5a4:	24e86655 	addiu	t0,a3,26197
9d00d5a8:	352a99aa 	ori	t2,t1,0x99aa
9d00d5ac:	acc00610 	sw	zero,1552(a2)
9d00d5b0:	acc80610 	sw	t0,1552(a2)
9d00d5b4:	acca0610 	sw	t2,1552(a2)
9d00d5b8:	8ccb1250 	lw	t3,4688(a2)
9d00d5bc:	356c0001 	ori	t4,t3,0x1
9d00d5c0:	accc1250 	sw	t4,4688(a2)
9d00d5c4:	8cc21250 	lw	v0,4688(a2)
9d00d5c8:	1000ffff 	b	9d00d5c8 <SoftReset+0xd0>
9d00d5cc:	00000000 	nop

9d00d5d0 <__addsf3>:
9d00d5d0:	1080005b 	beqz	a0,9d00d740 <__addsf3+0x170>
9d00d5d4:	00a01021 	move	v0,a1
9d00d5d8:	10a00058 	beqz	a1,9d00d73c <__addsf3+0x16c>
9d00d5dc:	7c483dc0 	ext	t0,v0,0x17,0x8
9d00d5e0:	7c863dc0 	ext	a2,a0,0x17,0x8
9d00d5e4:	25030019 	addiu	v1,t0,25
9d00d5e8:	0066382a 	slt	a3,v1,a2
9d00d5ec:	14e00053 	bnez	a3,9d00d73c <__addsf3+0x16c>
9d00d5f0:	24c90019 	addiu	t1,a2,25
9d00d5f4:	0128502a 	slt	t2,t1,t0
9d00d5f8:	15400051 	bnez	t2,9d00d740 <__addsf3+0x170>
9d00d5fc:	00000000 	nop
9d00d600:	3c0b0080 	lui	t3,0x80
9d00d604:	7cacb000 	ext	t4,a1,0x0,0x17
9d00d608:	7c82b000 	ext	v0,a0,0x0,0x17
9d00d60c:	00046fc2 	srl	t5,a0,0x1f
9d00d610:	000577c2 	srl	t6,a1,0x1f
9d00d614:	004b2025 	or	a0,v0,t3
9d00d618:	018b7825 	or	t7,t4,t3
9d00d61c:	000dc023 	negu	t8,t5
9d00d620:	0004c980 	sll	t9,a0,0x6
9d00d624:	000e2823 	negu	a1,t6
9d00d628:	000f1980 	sll	v1,t7,0x6
9d00d62c:	03193826 	xor	a3,t8,t9
9d00d630:	00a35026 	xor	t2,a1,v1
9d00d634:	0106482a 	slt	t1,t0,a2
9d00d638:	00ed6821 	addu	t5,a3,t5
9d00d63c:	11200042 	beqz	t1,9d00d748 <__addsf3+0x178>
9d00d640:	014e5821 	addu	t3,t2,t6
9d00d644:	00c84023 	subu	t0,a2,t0
9d00d648:	010b5807 	srav	t3,t3,t0
9d00d64c:	01ab1821 	addu	v1,t5,t3
9d00d650:	04620041 	bltzl	v1,9d00d758 <__addsf3+0x188>
9d00d654:	3c0e8000 	lui	t6,0x8000
9d00d658:	10600039 	beqz	v1,9d00d740 <__addsf3+0x170>
9d00d65c:	00001021 	move	v0,zero
9d00d660:	00007021 	move	t6,zero
9d00d664:	3c04e000 	lui	a0,0xe000
9d00d668:	00647824 	and	t7,v1,a0
9d00d66c:	15e0003c 	bnez	t7,9d00d760 <__addsf3+0x190>
9d00d670:	3c18e000 	lui	t8,0xe000
9d00d674:	00031840 	sll	v1,v1,0x1
9d00d678:	24c6ffff 	addiu	a2,a2,-1
9d00d67c:	00782824 	and	a1,v1,t8
9d00d680:	14a0001d 	bnez	a1,9d00d6f8 <__addsf3+0x128>
9d00d684:	00c03821 	move	a3,a2
9d00d688:	00031840 	sll	v1,v1,0x1
9d00d68c:	00785024 	and	t2,v1,t8
9d00d690:	15400019 	bnez	t2,9d00d6f8 <__addsf3+0x128>
9d00d694:	24c6ffff 	addiu	a2,a2,-1
9d00d698:	00031840 	sll	v1,v1,0x1
9d00d69c:	00784824 	and	t1,v1,t8
9d00d6a0:	15200015 	bnez	t1,9d00d6f8 <__addsf3+0x128>
9d00d6a4:	24e6fffe 	addiu	a2,a3,-2
9d00d6a8:	00031840 	sll	v1,v1,0x1
9d00d6ac:	00785824 	and	t3,v1,t8
9d00d6b0:	15600011 	bnez	t3,9d00d6f8 <__addsf3+0x128>
9d00d6b4:	24e6fffd 	addiu	a2,a3,-3
9d00d6b8:	00031840 	sll	v1,v1,0x1
9d00d6bc:	00781024 	and	v0,v1,t8
9d00d6c0:	1440000d 	bnez	v0,9d00d6f8 <__addsf3+0x128>
9d00d6c4:	24e6fffc 	addiu	a2,a3,-4
9d00d6c8:	00031840 	sll	v1,v1,0x1
9d00d6cc:	00786024 	and	t4,v1,t8
9d00d6d0:	15800009 	bnez	t4,9d00d6f8 <__addsf3+0x128>
9d00d6d4:	24e6fffb 	addiu	a2,a3,-5
9d00d6d8:	00031840 	sll	v1,v1,0x1
9d00d6dc:	00786824 	and	t5,v1,t8
9d00d6e0:	15a00005 	bnez	t5,9d00d6f8 <__addsf3+0x128>
9d00d6e4:	24e6fffa 	addiu	a2,a3,-6
9d00d6e8:	00031840 	sll	v1,v1,0x1
9d00d6ec:	00784024 	and	t0,v1,t8
9d00d6f0:	1100ffe0 	beqz	t0,9d00d674 <__addsf3+0xa4>
9d00d6f4:	24e6fff9 	addiu	a2,a3,-7
9d00d6f8:	306f0040 	andi	t7,v1,0x40
9d00d6fc:	2404001f 	li	a0,31
9d00d700:	24180020 	li	t8,32
9d00d704:	008fc00a 	movz	t8,a0,t7
9d00d708:	03032821 	addu	a1,t8,v1
9d00d70c:	7cb90780 	ext	t9,a1,0x1e,0x1
9d00d710:	13200003 	beqz	t9,9d00d720 <__addsf3+0x150>
9d00d714:	3c09ff7f 	lui	t1,0xff7f
9d00d718:	00052843 	sra	a1,a1,0x1
9d00d71c:	24c60001 	addiu	a2,a2,1
9d00d720:	00053983 	sra	a3,a1,0x6
9d00d724:	000655c0 	sll	t2,a2,0x17
9d00d728:	352bffff 	ori	t3,t1,0xffff
9d00d72c:	014e7025 	or	t6,t2,t6
9d00d730:	00eb1024 	and	v0,a3,t3
9d00d734:	03e00008 	jr	ra
9d00d738:	01c21025 	or	v0,t6,v0
9d00d73c:	00801021 	move	v0,a0
9d00d740:	03e00008 	jr	ra
9d00d744:	00000000 	nop
9d00d748:	01066023 	subu	t4,t0,a2
9d00d74c:	018d6807 	srav	t5,t5,t4
9d00d750:	1000ffbe 	b	9d00d64c <__addsf3+0x7c>
9d00d754:	01003021 	move	a2,t0
9d00d758:	1000ffc2 	b	9d00d664 <__addsf3+0x94>
9d00d75c:	00031823 	negu	v1,v1
9d00d760:	7c790780 	ext	t9,v1,0x1e,0x1
9d00d764:	1320ffe5 	beqz	t9,9d00d6fc <__addsf3+0x12c>
9d00d768:	306f0040 	andi	t7,v1,0x40
9d00d76c:	00031843 	sra	v1,v1,0x1
9d00d770:	1000ffe1 	b	9d00d6f8 <__addsf3+0x128>
9d00d774:	24c60001 	addiu	a2,a2,1

9d00d778 <__subsf3>:
9d00d778:	10a0005f 	beqz	a1,9d00d8f8 <__subsf3+0x180>
9d00d77c:	00801021 	move	v0,a0
9d00d780:	1080005f 	beqz	a0,9d00d900 <__subsf3+0x188>
9d00d784:	3c038000 	lui	v1,0x8000
9d00d788:	00652826 	xor	a1,v1,a1
9d00d78c:	10a0005a 	beqz	a1,9d00d8f8 <__subsf3+0x180>
9d00d790:	00000000 	nop
9d00d794:	7ca83dc0 	ext	t0,a1,0x17,0x8
9d00d798:	7c833dc0 	ext	v1,a0,0x17,0x8
9d00d79c:	25060019 	addiu	a2,t0,25
9d00d7a0:	00c3382a 	slt	a3,a2,v1
9d00d7a4:	14e00054 	bnez	a3,9d00d8f8 <__subsf3+0x180>
9d00d7a8:	00000000 	nop
9d00d7ac:	24620019 	addiu	v0,v1,25
9d00d7b0:	0048482a 	slt	t1,v0,t0
9d00d7b4:	15200058 	bnez	t1,9d00d918 <__subsf3+0x1a0>
9d00d7b8:	00000000 	nop
9d00d7bc:	7c8ab000 	ext	t2,a0,0x0,0x17
9d00d7c0:	3c0b0080 	lui	t3,0x80
9d00d7c4:	7cacb000 	ext	t4,a1,0x0,0x17
9d00d7c8:	000427c2 	srl	a0,a0,0x1f
9d00d7cc:	014b6825 	or	t5,t2,t3
9d00d7d0:	000577c2 	srl	t6,a1,0x1f
9d00d7d4:	018b7825 	or	t7,t4,t3
9d00d7d8:	0004c023 	negu	t8,a0
9d00d7dc:	000dc980 	sll	t9,t5,0x6
9d00d7e0:	000e2823 	negu	a1,t6
9d00d7e4:	000f3980 	sll	a3,t7,0x6
9d00d7e8:	03193026 	xor	a2,t8,t9
9d00d7ec:	00a71026 	xor	v0,a1,a3
9d00d7f0:	0103482a 	slt	t1,t0,v1
9d00d7f4:	00c42021 	addu	a0,a2,a0
9d00d7f8:	15200044 	bnez	t1,9d00d90c <__subsf3+0x194>
9d00d7fc:	004e5021 	addu	t2,v0,t6
9d00d800:	01036023 	subu	t4,t0,v1
9d00d804:	01842007 	srav	a0,a0,t4
9d00d808:	01001821 	move	v1,t0
9d00d80c:	008a2021 	addu	a0,a0,t2
9d00d810:	04800043 	bltz	a0,9d00d920 <__subsf3+0x1a8>
9d00d814:	3c0d8000 	lui	t5,0x8000
9d00d818:	10800037 	beqz	a0,9d00d8f8 <__subsf3+0x180>
9d00d81c:	00001021 	move	v0,zero
9d00d820:	00006821 	move	t5,zero
9d00d824:	3c0ee000 	lui	t6,0xe000
9d00d828:	008e7824 	and	t7,a0,t6
9d00d82c:	15e0003e 	bnez	t7,9d00d928 <__subsf3+0x1b0>
9d00d830:	3c18e000 	lui	t8,0xe000
9d00d834:	00042040 	sll	a0,a0,0x1
9d00d838:	2463ffff 	addiu	v1,v1,-1
9d00d83c:	00982824 	and	a1,a0,t8
9d00d840:	14a0001d 	bnez	a1,9d00d8b8 <__subsf3+0x140>
9d00d844:	00603021 	move	a2,v1
9d00d848:	00042040 	sll	a0,a0,0x1
9d00d84c:	00983824 	and	a3,a0,t8
9d00d850:	14e00019 	bnez	a3,9d00d8b8 <__subsf3+0x140>
9d00d854:	2463ffff 	addiu	v1,v1,-1
9d00d858:	00042040 	sll	a0,a0,0x1
9d00d85c:	00981024 	and	v0,a0,t8
9d00d860:	14400015 	bnez	v0,9d00d8b8 <__subsf3+0x140>
9d00d864:	24c3fffe 	addiu	v1,a2,-2
9d00d868:	00042040 	sll	a0,a0,0x1
9d00d86c:	00984824 	and	t1,a0,t8
9d00d870:	15200011 	bnez	t1,9d00d8b8 <__subsf3+0x140>
9d00d874:	24c3fffd 	addiu	v1,a2,-3
9d00d878:	00042040 	sll	a0,a0,0x1
9d00d87c:	00985024 	and	t2,a0,t8
9d00d880:	1540000d 	bnez	t2,9d00d8b8 <__subsf3+0x140>
9d00d884:	24c3fffc 	addiu	v1,a2,-4
9d00d888:	00042040 	sll	a0,a0,0x1
9d00d88c:	00985824 	and	t3,a0,t8
9d00d890:	15600009 	bnez	t3,9d00d8b8 <__subsf3+0x140>
9d00d894:	24c3fffb 	addiu	v1,a2,-5
9d00d898:	00042040 	sll	a0,a0,0x1
9d00d89c:	00986024 	and	t4,a0,t8
9d00d8a0:	15800005 	bnez	t4,9d00d8b8 <__subsf3+0x140>
9d00d8a4:	24c3fffa 	addiu	v1,a2,-6
9d00d8a8:	00042040 	sll	a0,a0,0x1
9d00d8ac:	00984024 	and	t0,a0,t8
9d00d8b0:	1100ffe0 	beqz	t0,9d00d834 <__subsf3+0xbc>
9d00d8b4:	24c3fff9 	addiu	v1,a2,-7
9d00d8b8:	308e0040 	andi	t6,a0,0x40
9d00d8bc:	240f001f 	li	t7,31
9d00d8c0:	24180020 	li	t8,32
9d00d8c4:	030e780b 	movn	t7,t8,t6
9d00d8c8:	008f2821 	addu	a1,a0,t7
9d00d8cc:	7cb90780 	ext	t9,a1,0x1e,0x1
9d00d8d0:	13200003 	beqz	t9,9d00d8e0 <__subsf3+0x168>
9d00d8d4:	3c02ff7f 	lui	v0,0xff7f
9d00d8d8:	00052843 	sra	a1,a1,0x1
9d00d8dc:	24630001 	addiu	v1,v1,1
9d00d8e0:	3449ffff 	ori	t1,v0,0xffff
9d00d8e4:	00053183 	sra	a2,a1,0x6
9d00d8e8:	00033dc0 	sll	a3,v1,0x17
9d00d8ec:	00ed6825 	or	t5,a3,t5
9d00d8f0:	00c95024 	and	t2,a2,t1
9d00d8f4:	01aa1025 	or	v0,t5,t2
9d00d8f8:	03e00008 	jr	ra
9d00d8fc:	00000000 	nop
9d00d900:	3c0b8000 	lui	t3,0x8000
9d00d904:	03e00008 	jr	ra
9d00d908:	00ab1026 	xor	v0,a1,t3
9d00d90c:	00684023 	subu	t0,v1,t0
9d00d910:	1000ffbe 	b	9d00d80c <__subsf3+0x94>
9d00d914:	010a5007 	srav	t2,t2,t0
9d00d918:	03e00008 	jr	ra
9d00d91c:	00a01021 	move	v0,a1
9d00d920:	1000ffc0 	b	9d00d824 <__subsf3+0xac>
9d00d924:	00042023 	negu	a0,a0
9d00d928:	7c990780 	ext	t9,a0,0x1e,0x1
9d00d92c:	1320ffe3 	beqz	t9,9d00d8bc <__subsf3+0x144>
9d00d930:	308e0040 	andi	t6,a0,0x40
9d00d934:	00042043 	sra	a0,a0,0x1
9d00d938:	1000ffdf 	b	9d00d8b8 <__subsf3+0x140>
9d00d93c:	24630001 	addiu	v1,v1,1

9d00d940 <__cmpsf2>:
9d00d940:	04800006 	bltz	a0,9d00d95c <__cmpsf2+0x1c>
9d00d944:	0085102a 	slt	v0,a0,a1
9d00d948:	00a4282a 	slt	a1,a1,a0
9d00d94c:	2404ffff 	li	a0,-1
9d00d950:	00a2200a 	movz	a0,a1,v0
9d00d954:	03e00008 	jr	ra
9d00d958:	00801021 	move	v0,a0
9d00d95c:	04a3fffa 	bgezl	a1,9d00d948 <__cmpsf2+0x8>
9d00d960:	0085102a 	slt	v0,a0,a1
9d00d964:	3c038000 	lui	v1,0x8000
9d00d968:	00643026 	xor	a2,v1,a0
9d00d96c:	00653826 	xor	a3,v1,a1
9d00d970:	240affff 	li	t2,-1
9d00d974:	00e6402a 	slt	t0,a3,a2
9d00d978:	00c7482a 	slt	t1,a2,a3
9d00d97c:	01401021 	move	v0,t2
9d00d980:	03e00008 	jr	ra
9d00d984:	0128100a 	movz	v0,t1,t0

9d00d988 <__ltsf2>:
9d00d988:	04800004 	bltz	a0,9d00d99c <__ltsf2+0x14>
9d00d98c:	00000000 	nop
9d00d990:	0085202a 	slt	a0,a0,a1
9d00d994:	03e00008 	jr	ra
9d00d998:	00041023 	negu	v0,a0
9d00d99c:	04a3fffd 	bgezl	a1,9d00d994 <__ltsf2+0xc>
9d00d9a0:	0085202a 	slt	a0,a0,a1
9d00d9a4:	3c028000 	lui	v0,0x8000
9d00d9a8:	00441826 	xor	v1,v0,a0
9d00d9ac:	00452826 	xor	a1,v0,a1
9d00d9b0:	00a3302a 	slt	a2,a1,v1
9d00d9b4:	03e00008 	jr	ra
9d00d9b8:	00061023 	negu	v0,a2

9d00d9bc <__lesf2>:
9d00d9bc:	04800005 	bltz	a0,9d00d9d4 <__lesf2+0x18>
9d00d9c0:	0085102a 	slt	v0,a0,a1
9d00d9c4:	00a4202a 	slt	a0,a1,a0
9d00d9c8:	0002200b 	movn	a0,zero,v0
9d00d9cc:	03e00008 	jr	ra
9d00d9d0:	00801021 	move	v0,a0
9d00d9d4:	04a3fffb 	bgezl	a1,9d00d9c4 <__lesf2+0x8>
9d00d9d8:	0085102a 	slt	v0,a0,a1
9d00d9dc:	3c068000 	lui	a2,0x8000
9d00d9e0:	00c41826 	xor	v1,a2,a0
9d00d9e4:	00c52826 	xor	a1,a2,a1
9d00d9e8:	00a3382a 	slt	a3,a1,v1
9d00d9ec:	0065402a 	slt	t0,v1,a1
9d00d9f0:	0007400b 	movn	t0,zero,a3
9d00d9f4:	03e00008 	jr	ra
9d00d9f8:	01001021 	move	v0,t0

9d00d9fc <__gtsf2>:
9d00d9fc:	04800005 	bltz	a0,9d00da14 <__gtsf2+0x18>
9d00da00:	0085102a 	slt	v0,a0,a1
9d00da04:	00a4202a 	slt	a0,a1,a0
9d00da08:	0002200b 	movn	a0,zero,v0
9d00da0c:	03e00008 	jr	ra
9d00da10:	00801021 	move	v0,a0
9d00da14:	04a3fffb 	bgezl	a1,9d00da04 <__gtsf2+0x8>
9d00da18:	0085102a 	slt	v0,a0,a1
9d00da1c:	3c068000 	lui	a2,0x8000
9d00da20:	00c41826 	xor	v1,a2,a0
9d00da24:	00c52826 	xor	a1,a2,a1
9d00da28:	00a3382a 	slt	a3,a1,v1
9d00da2c:	0065402a 	slt	t0,v1,a1
9d00da30:	0007400b 	movn	t0,zero,a3
9d00da34:	03e00008 	jr	ra
9d00da38:	01001021 	move	v0,t0

9d00da3c <__gesf2>:
9d00da3c:	04800004 	bltz	a0,9d00da50 <__gesf2+0x14>
9d00da40:	00000000 	nop
9d00da44:	0085202a 	slt	a0,a0,a1
9d00da48:	03e00008 	jr	ra
9d00da4c:	00041023 	negu	v0,a0
9d00da50:	04a3fffd 	bgezl	a1,9d00da48 <__gesf2+0xc>
9d00da54:	0085202a 	slt	a0,a0,a1
9d00da58:	3c028000 	lui	v0,0x8000
9d00da5c:	00441826 	xor	v1,v0,a0
9d00da60:	00452826 	xor	a1,v0,a1
9d00da64:	00a3302a 	slt	a2,a1,v1
9d00da68:	03e00008 	jr	ra
9d00da6c:	00061023 	negu	v0,a2

9d00da70 <__eqsf2>:
9d00da70:	00851026 	xor	v0,a0,a1
9d00da74:	03e00008 	jr	ra
9d00da78:	0002102b 	sltu	v0,zero,v0

9d00da7c <__nesf2>:
9d00da7c:	00851026 	xor	v0,a0,a1
9d00da80:	03e00008 	jr	ra
9d00da84:	0002102b 	sltu	v0,zero,v0

9d00da88 <__mulsf3>:
9d00da88:	1080002a 	beqz	a0,9d00db34 <__mulsf3+0xac>
9d00da8c:	00001021 	move	v0,zero
9d00da90:	10a00028 	beqz	a1,9d00db34 <__mulsf3+0xac>
9d00da94:	00000000 	nop
9d00da98:	3c060080 	lui	a2,0x80
9d00da9c:	7ca8b000 	ext	t0,a1,0x0,0x17
9d00daa0:	01061025 	or	v0,t0,a2
9d00daa4:	7c87b000 	ext	a3,a0,0x0,0x17
9d00daa8:	00025203 	sra	t2,v0,0x8
9d00daac:	308900ff 	andi	t1,a0,0xff
9d00dab0:	00e61825 	or	v1,a3,a2
9d00dab4:	71495802 	mul	t3,t2,t1
9d00dab8:	00033203 	sra	a2,v1,0x8
9d00dabc:	30ac00ff 	andi	t4,a1,0xff
9d00dac0:	7c8d3dc0 	ext	t5,a0,0x17,0x8
9d00dac4:	25aeff82 	addiu	t6,t5,-126
9d00dac8:	00a42026 	xor	a0,a1,a0
9d00dacc:	3c0f8000 	lui	t7,0x8000
9d00dad0:	7ca53dc0 	ext	a1,a1,0x17,0x8
9d00dad4:	008fc024 	and	t8,a0,t7
9d00dad8:	00ae2021 	addu	a0,a1,t6
9d00dadc:	70cc1002 	mul	v0,a2,t4
9d00dae0:	000bca03 	sra	t9,t3,0x8
9d00dae4:	70ca4002 	mul	t0,a2,t2
9d00dae8:	00023a03 	sra	a3,v0,0x8
9d00daec:	01195021 	addu	t2,t0,t9
9d00daf0:	01474821 	addu	t1,t2,a3
9d00daf4:	05200011 	bltz	t1,9d00db3c <__mulsf3+0xb4>
9d00daf8:	00095882 	srl	t3,t1,0x2
9d00dafc:	25630010 	addiu	v1,t3,16
9d00db00:	00036942 	srl	t5,v1,0x5
9d00db04:	2484ffff 	addiu	a0,a0,-1
9d00db08:	7dac0600 	ext	t4,t5,0x18,0x1
9d00db0c:	11800004 	beqz	t4,9d00db20 <__mulsf3+0x98>
9d00db10:	000475c0 	sll	t6,a0,0x17
9d00db14:	000d6842 	srl	t5,t5,0x1
9d00db18:	24840001 	addiu	a0,a0,1
9d00db1c:	000475c0 	sll	t6,a0,0x17
9d00db20:	3c0fff7f 	lui	t7,0xff7f
9d00db24:	01d82825 	or	a1,t6,t8
9d00db28:	35f8ffff 	ori	t8,t7,0xffff
9d00db2c:	01b8c824 	and	t9,t5,t8
9d00db30:	00b91025 	or	v0,a1,t9
9d00db34:	03e00008 	jr	ra
9d00db38:	00000000 	nop
9d00db3c:	25660020 	addiu	a2,t3,32
9d00db40:	1000fff1 	b	9d00db08 <__mulsf3+0x80>
9d00db44:	00066982 	srl	t5,a2,0x6

9d00db48 <__divsf3>:
9d00db48:	00a44026 	xor	t0,a1,a0
9d00db4c:	3c028000 	lui	v0,0x8000
9d00db50:	14a00005 	bnez	a1,9d00db68 <__divsf3+0x20>
9d00db54:	0102c824 	and	t9,t0,v0
9d00db58:	17200062 	bnez	t9,9d00dce4 <__divsf3+0x19c>
9d00db5c:	3c0d9d01 	lui	t5,0x9d01
9d00db60:	03e00008 	jr	ra
9d00db64:	8da204f8 	lw	v0,1272(t5)
9d00db68:	10800060 	beqz	a0,9d00dcec <__divsf3+0x1a4>
9d00db6c:	00001021 	move	v0,zero
9d00db70:	7c86b000 	ext	a2,a0,0x0,0x17
9d00db74:	3c070080 	lui	a3,0x80
9d00db78:	7ca9b000 	ext	t1,a1,0x0,0x17
9d00db7c:	00c75025 	or	t2,a2,a3
9d00db80:	01274025 	or	t0,t1,a3
9d00db84:	7c8b3dc0 	ext	t3,a0,0x17,0x8
9d00db88:	7ca53dc0 	ext	a1,a1,0x17,0x8
9d00db8c:	0148202a 	slt	a0,t2,t0
9d00db90:	14800058 	bnez	a0,9d00dcf4 <__divsf3+0x1ac>
9d00db94:	01656023 	subu	t4,t3,a1
9d00db98:	2582007e 	addiu	v0,t4,126
9d00db9c:	01406821 	move	t5,t2
9d00dba0:	01a8782a 	slt	t7,t5,t0
9d00dba4:	01a87023 	subu	t6,t5,t0
9d00dba8:	3c180100 	lui	t8,0x100
9d00dbac:	000fc00b 	movn	t8,zero,t7
9d00dbb0:	01cf680a 	movz	t5,t6,t7
9d00dbb4:	03002821 	move	a1,t8
9d00dbb8:	000d7840 	sll	t7,t5,0x1
9d00dbbc:	3c030080 	lui	v1,0x80
9d00dbc0:	240a0018 	li	t2,24
9d00dbc4:	01e8482a 	slt	t1,t7,t0
9d00dbc8:	01e83023 	subu	a2,t7,t0
9d00dbcc:	01e9300b 	movn	a2,t7,t1
9d00dbd0:	00063840 	sll	a3,a2,0x1
9d00dbd4:	00e8702a 	slt	t6,a3,t0
9d00dbd8:	00e85823 	subu	t3,a3,t0
9d00dbdc:	016e380a 	movz	a3,t3,t6
9d00dbe0:	00076840 	sll	t5,a3,0x1
9d00dbe4:	01a8782a 	slt	t7,t5,t0
9d00dbe8:	01a82023 	subu	a0,t5,t0
9d00dbec:	008f680a 	movz	t5,a0,t7
9d00dbf0:	00656025 	or	t4,v1,a1
9d00dbf4:	0189280a 	movz	a1,t4,t1
9d00dbf8:	000dc040 	sll	t8,t5,0x1
9d00dbfc:	00033043 	sra	a2,v1,0x1
9d00dc00:	0308682a 	slt	t5,t8,t0
9d00dc04:	00c53825 	or	a3,a2,a1
9d00dc08:	03084823 	subu	t1,t8,t0
9d00dc0c:	012dc00a 	movz	t8,t1,t5
9d00dc10:	00ee280a 	movz	a1,a3,t6
9d00dc14:	00a05821 	move	t3,a1
9d00dc18:	00186040 	sll	t4,t8,0x1
9d00dc1c:	00032883 	sra	a1,v1,0x2
9d00dc20:	00ab7025 	or	t6,a1,t3
9d00dc24:	0188c02a 	slt	t8,t4,t0
9d00dc28:	01882023 	subu	a0,t4,t0
9d00dc2c:	01603021 	move	a2,t3
9d00dc30:	01cf300a 	movz	a2,t6,t7
9d00dc34:	0098600a 	movz	t4,a0,t8
9d00dc38:	000378c3 	sra	t7,v1,0x3
9d00dc3c:	01e64825 	or	t1,t7,a2
9d00dc40:	000c3840 	sll	a3,t4,0x1
9d00dc44:	00c05821 	move	t3,a2
9d00dc48:	012d580a 	movz	t3,t1,t5
9d00dc4c:	00032903 	sra	a1,v1,0x4
9d00dc50:	00e8682a 	slt	t5,a3,t0
9d00dc54:	00e87023 	subu	t6,a3,t0
9d00dc58:	01cd380a 	movz	a3,t6,t5
9d00dc5c:	00ab6025 	or	t4,a1,t3
9d00dc60:	0198580a 	movz	t3,t4,t8
9d00dc64:	00077840 	sll	t7,a3,0x1
9d00dc68:	00032143 	sra	a0,v1,0x5
9d00dc6c:	01e8302a 	slt	a2,t7,t0
9d00dc70:	008b4825 	or	t1,a0,t3
9d00dc74:	01e83823 	subu	a3,t7,t0
9d00dc78:	012d580a 	movz	t3,t1,t5
9d00dc7c:	00032983 	sra	a1,v1,0x6
9d00dc80:	01e6380b 	movn	a3,t7,a2
9d00dc84:	00076840 	sll	t5,a3,0x1
9d00dc88:	00ab7025 	or	t6,a1,t3
9d00dc8c:	01606021 	move	t4,t3
9d00dc90:	01c6600a 	movz	t4,t6,a2
9d00dc94:	000339c3 	sra	a3,v1,0x7
9d00dc98:	01a8202a 	slt	a0,t5,t0
9d00dc9c:	01a8c023 	subu	t8,t5,t0
9d00dca0:	00ec2825 	or	a1,a3,t4
9d00dca4:	01a4c00b 	movn	t8,t5,a0
9d00dca8:	254afff8 	addiu	t2,t2,-8
9d00dcac:	0184280b 	movn	a1,t4,a0
9d00dcb0:	00187840 	sll	t7,t8,0x1
9d00dcb4:	1540ffc3 	bnez	t2,9d00dbc4 <__divsf3+0x7c>
9d00dcb8:	00031a03 	sra	v1,v1,0x8
9d00dcbc:	24a60001 	addiu	a2,a1,1
9d00dcc0:	24480001 	addiu	t0,v0,1
9d00dcc4:	3c09ff7f 	lui	t1,0xff7f
9d00dcc8:	000815c0 	sll	v0,t0,0x17
9d00dccc:	00063843 	sra	a3,a2,0x1
9d00dcd0:	352bffff 	ori	t3,t1,0xffff
9d00dcd4:	0059c825 	or	t9,v0,t9
9d00dcd8:	00eb7024 	and	t6,a3,t3
9d00dcdc:	03e00008 	jr	ra
9d00dce0:	032e1025 	or	v0,t9,t6
9d00dce4:	3c0c9d01 	lui	t4,0x9d01
9d00dce8:	8d8204fc 	lw	v0,1276(t4)
9d00dcec:	03e00008 	jr	ra
9d00dcf0:	00000000 	nop
9d00dcf4:	000a6840 	sll	t5,t2,0x1
9d00dcf8:	1000ffa9 	b	9d00dba0 <__divsf3+0x58>
9d00dcfc:	2582007d 	addiu	v0,t4,125

9d00dd00 <__negsf2>:
9d00dd00:	10800003 	beqz	a0,9d00dd10 <__negsf2+0x10>
9d00dd04:	00001021 	move	v0,zero
9d00dd08:	3c028000 	lui	v0,0x8000
9d00dd0c:	00441026 	xor	v0,v0,a0
9d00dd10:	03e00008 	jr	ra
9d00dd14:	00000000 	nop

9d00dd18 <__fixsfsi>:
9d00dd18:	7c85b000 	ext	a1,a0,0x0,0x17
9d00dd1c:	7c863dc0 	ext	a2,a0,0x17,0x8
9d00dd20:	3c030080 	lui	v1,0x80
9d00dd24:	2402009d 	li	v0,157
9d00dd28:	00a33825 	or	a3,a1,v1
9d00dd2c:	00464023 	subu	t0,v0,a2
9d00dd30:	000427c2 	srl	a0,a0,0x1f
9d00dd34:	19000004 	blez	t0,9d00dd48 <__fixsfsi+0x30>
9d00dd38:	000751c0 	sll	t2,a3,0x7
9d00dd3c:	2909001f 	slti	t1,t0,31
9d00dd40:	010a5007 	srav	t2,t2,t0
9d00dd44:	0009500a 	movz	t2,zero,t1
9d00dd48:	00045823 	negu	t3,a0
9d00dd4c:	014b6026 	xor	t4,t2,t3
9d00dd50:	03e00008 	jr	ra
9d00dd54:	01841021 	addu	v0,t4,a0

9d00dd58 <__fixunssfsi>:
9d00dd58:	7c85b000 	ext	a1,a0,0x0,0x17
9d00dd5c:	7c863dc0 	ext	a2,a0,0x17,0x8
9d00dd60:	3c030080 	lui	v1,0x80
9d00dd64:	2402009d 	li	v0,157
9d00dd68:	00a33825 	or	a3,a1,v1
9d00dd6c:	00464023 	subu	t0,v0,a2
9d00dd70:	000427c2 	srl	a0,a0,0x1f
9d00dd74:	19000004 	blez	t0,9d00dd88 <__fixunssfsi+0x30>
9d00dd78:	000751c0 	sll	t2,a3,0x7
9d00dd7c:	2909001f 	slti	t1,t0,31
9d00dd80:	010a5007 	srav	t2,t2,t0
9d00dd84:	0009500a 	movz	t2,zero,t1
9d00dd88:	00045823 	negu	t3,a0
9d00dd8c:	014b6026 	xor	t4,t2,t3
9d00dd90:	03e00008 	jr	ra
9d00dd94:	01841021 	addu	v0,t4,a0

9d00dd98 <__floatsisf>:
9d00dd98:	00041fc3 	sra	v1,a0,0x1f
9d00dd9c:	00642826 	xor	a1,v1,a0
9d00dda0:	00a31823 	subu	v1,a1,v1
9d00dda4:	10600053 	beqz	v1,9d00def4 <__floatsisf+0x15c>
9d00dda8:	00001021 	move	v0,zero
9d00ddac:	3c02ff00 	lui	v0,0xff00
9d00ddb0:	00623024 	and	a2,v1,v0
9d00ddb4:	10c00023 	beqz	a2,9d00de44 <__floatsisf+0xac>
9d00ddb8:	24190096 	li	t9,150
9d00ddbc:	3c08ff00 	lui	t0,0xff00
9d00ddc0:	00031843 	sra	v1,v1,0x1
9d00ddc4:	27390001 	addiu	t9,t9,1
9d00ddc8:	00683824 	and	a3,v1,t0
9d00ddcc:	10e0001d 	beqz	a3,9d00de44 <__floatsisf+0xac>
9d00ddd0:	03204821 	move	t1,t9
9d00ddd4:	00031843 	sra	v1,v1,0x1
9d00ddd8:	00685024 	and	t2,v1,t0
9d00dddc:	11400019 	beqz	t2,9d00de44 <__floatsisf+0xac>
9d00dde0:	27390001 	addiu	t9,t9,1
9d00dde4:	00031843 	sra	v1,v1,0x1
9d00dde8:	00685824 	and	t3,v1,t0
9d00ddec:	11600015 	beqz	t3,9d00de44 <__floatsisf+0xac>
9d00ddf0:	25390002 	addiu	t9,t1,2
9d00ddf4:	00031843 	sra	v1,v1,0x1
9d00ddf8:	00686024 	and	t4,v1,t0
9d00ddfc:	11800011 	beqz	t4,9d00de44 <__floatsisf+0xac>
9d00de00:	25390003 	addiu	t9,t1,3
9d00de04:	00031843 	sra	v1,v1,0x1
9d00de08:	00686824 	and	t5,v1,t0
9d00de0c:	11a0000d 	beqz	t5,9d00de44 <__floatsisf+0xac>
9d00de10:	25390004 	addiu	t9,t1,4
9d00de14:	00031843 	sra	v1,v1,0x1
9d00de18:	00687024 	and	t6,v1,t0
9d00de1c:	11c00009 	beqz	t6,9d00de44 <__floatsisf+0xac>
9d00de20:	25390005 	addiu	t9,t1,5
9d00de24:	00031843 	sra	v1,v1,0x1
9d00de28:	00687824 	and	t7,v1,t0
9d00de2c:	11e00005 	beqz	t7,9d00de44 <__floatsisf+0xac>
9d00de30:	25390006 	addiu	t9,t1,6
9d00de34:	00031843 	sra	v1,v1,0x1
9d00de38:	0068c024 	and	t8,v1,t0
9d00de3c:	1700ffe0 	bnez	t8,9d00ddc0 <__floatsisf+0x28>
9d00de40:	25390007 	addiu	t9,t1,7
9d00de44:	3c05ff80 	lui	a1,0xff80
9d00de48:	00651024 	and	v0,v1,a1
9d00de4c:	14400024 	bnez	v0,9d00dee0 <__floatsisf+0x148>
9d00de50:	0019c5c0 	sll	t8,t9,0x17
9d00de54:	3c08ff80 	lui	t0,0xff80
9d00de58:	00031840 	sll	v1,v1,0x1
9d00de5c:	2739ffff 	addiu	t9,t9,-1
9d00de60:	00683824 	and	a3,v1,t0
9d00de64:	14e0001d 	bnez	a3,9d00dedc <__floatsisf+0x144>
9d00de68:	03203021 	move	a2,t9
9d00de6c:	00031840 	sll	v1,v1,0x1
9d00de70:	00684824 	and	t1,v1,t0
9d00de74:	15200019 	bnez	t1,9d00dedc <__floatsisf+0x144>
9d00de78:	2739ffff 	addiu	t9,t9,-1
9d00de7c:	00031840 	sll	v1,v1,0x1
9d00de80:	00685024 	and	t2,v1,t0
9d00de84:	15400015 	bnez	t2,9d00dedc <__floatsisf+0x144>
9d00de88:	24d9fffe 	addiu	t9,a2,-2
9d00de8c:	00031840 	sll	v1,v1,0x1
9d00de90:	00685824 	and	t3,v1,t0
9d00de94:	15600011 	bnez	t3,9d00dedc <__floatsisf+0x144>
9d00de98:	24d9fffd 	addiu	t9,a2,-3
9d00de9c:	00031840 	sll	v1,v1,0x1
9d00dea0:	00686024 	and	t4,v1,t0
9d00dea4:	1580000d 	bnez	t4,9d00dedc <__floatsisf+0x144>
9d00dea8:	24d9fffc 	addiu	t9,a2,-4
9d00deac:	00031840 	sll	v1,v1,0x1
9d00deb0:	00686824 	and	t5,v1,t0
9d00deb4:	15a00009 	bnez	t5,9d00dedc <__floatsisf+0x144>
9d00deb8:	24d9fffb 	addiu	t9,a2,-5
9d00debc:	00031840 	sll	v1,v1,0x1
9d00dec0:	00687024 	and	t6,v1,t0
9d00dec4:	15c00005 	bnez	t6,9d00dedc <__floatsisf+0x144>
9d00dec8:	24d9fffa 	addiu	t9,a2,-6
9d00decc:	00031840 	sll	v1,v1,0x1
9d00ded0:	00687824 	and	t7,v1,t0
9d00ded4:	11e0ffe0 	beqz	t7,9d00de58 <__floatsisf+0xc0>
9d00ded8:	24d9fff9 	addiu	t9,a2,-7
9d00dedc:	0019c5c0 	sll	t8,t9,0x17
9d00dee0:	7c63b000 	ext	v1,v1,0x0,0x17
9d00dee4:	000427c2 	srl	a0,a0,0x1f
9d00dee8:	0303c825 	or	t9,t8,v1
9d00deec:	00042fc0 	sll	a1,a0,0x1f
9d00def0:	03251025 	or	v0,t9,a1
9d00def4:	03e00008 	jr	ra
9d00def8:	00000000 	nop

9d00defc <__floatunsisf>:
9d00defc:	1080002a 	beqz	a0,9d00dfa8 <__floatunsisf+0xac>
9d00df00:	00001021 	move	v0,zero
9d00df04:	3c02ff00 	lui	v0,0xff00
9d00df08:	00821824 	and	v1,a0,v0
9d00df0c:	50600028 	beqzl	v1,9d00dfb0 <__floatunsisf+0xb4>
9d00df10:	3c05ff80 	lui	a1,0xff80
9d00df14:	24190096 	li	t9,150
9d00df18:	00042042 	srl	a0,a0,0x1
9d00df1c:	27390001 	addiu	t9,t9,1
9d00df20:	00821824 	and	v1,a0,v0
9d00df24:	1060001d 	beqz	v1,9d00df9c <__floatunsisf+0xa0>
9d00df28:	03202821 	move	a1,t9
9d00df2c:	00042042 	srl	a0,a0,0x1
9d00df30:	00823024 	and	a2,a0,v0
9d00df34:	10c00019 	beqz	a2,9d00df9c <__floatunsisf+0xa0>
9d00df38:	27390001 	addiu	t9,t9,1
9d00df3c:	00042042 	srl	a0,a0,0x1
9d00df40:	00823824 	and	a3,a0,v0
9d00df44:	10e00015 	beqz	a3,9d00df9c <__floatunsisf+0xa0>
9d00df48:	24b90002 	addiu	t9,a1,2
9d00df4c:	00042042 	srl	a0,a0,0x1
9d00df50:	00824024 	and	t0,a0,v0
9d00df54:	11000011 	beqz	t0,9d00df9c <__floatunsisf+0xa0>
9d00df58:	24b90003 	addiu	t9,a1,3
9d00df5c:	00042042 	srl	a0,a0,0x1
9d00df60:	00824824 	and	t1,a0,v0
9d00df64:	1120000d 	beqz	t1,9d00df9c <__floatunsisf+0xa0>
9d00df68:	24b90004 	addiu	t9,a1,4
9d00df6c:	00042042 	srl	a0,a0,0x1
9d00df70:	00825024 	and	t2,a0,v0
9d00df74:	11400009 	beqz	t2,9d00df9c <__floatunsisf+0xa0>
9d00df78:	24b90005 	addiu	t9,a1,5
9d00df7c:	00042042 	srl	a0,a0,0x1
9d00df80:	00825824 	and	t3,a0,v0
9d00df84:	11600005 	beqz	t3,9d00df9c <__floatunsisf+0xa0>
9d00df88:	24b90006 	addiu	t9,a1,6
9d00df8c:	00042042 	srl	a0,a0,0x1
9d00df90:	00826024 	and	t4,a0,v0
9d00df94:	1580ffe0 	bnez	t4,9d00df18 <__floatunsisf+0x1c>
9d00df98:	24b90007 	addiu	t9,a1,7
9d00df9c:	7c84b000 	ext	a0,a0,0x0,0x17
9d00dfa0:	00196dc0 	sll	t5,t9,0x17
9d00dfa4:	008d1025 	or	v0,a0,t5
9d00dfa8:	03e00008 	jr	ra
9d00dfac:	00000000 	nop
9d00dfb0:	00853024 	and	a2,a0,a1
9d00dfb4:	14c0fff9 	bnez	a2,9d00df9c <__floatunsisf+0xa0>
9d00dfb8:	24190096 	li	t9,150
9d00dfbc:	3c07ff80 	lui	a3,0xff80
9d00dfc0:	00042040 	sll	a0,a0,0x1
9d00dfc4:	2739ffff 	addiu	t9,t9,-1
9d00dfc8:	00874024 	and	t0,a0,a3
9d00dfcc:	1500fff3 	bnez	t0,9d00df9c <__floatunsisf+0xa0>
9d00dfd0:	03204821 	move	t1,t9
9d00dfd4:	00042040 	sll	a0,a0,0x1
9d00dfd8:	00875024 	and	t2,a0,a3
9d00dfdc:	1540ffef 	bnez	t2,9d00df9c <__floatunsisf+0xa0>
9d00dfe0:	2739ffff 	addiu	t9,t9,-1
9d00dfe4:	00042040 	sll	a0,a0,0x1
9d00dfe8:	00875824 	and	t3,a0,a3
9d00dfec:	1560ffeb 	bnez	t3,9d00df9c <__floatunsisf+0xa0>
9d00dff0:	2539fffe 	addiu	t9,t1,-2
9d00dff4:	00042040 	sll	a0,a0,0x1
9d00dff8:	00876024 	and	t4,a0,a3
9d00dffc:	1580ffe7 	bnez	t4,9d00df9c <__floatunsisf+0xa0>
9d00e000:	2539fffd 	addiu	t9,t1,-3
9d00e004:	00042040 	sll	a0,a0,0x1
9d00e008:	00876824 	and	t5,a0,a3
9d00e00c:	15a0ffe3 	bnez	t5,9d00df9c <__floatunsisf+0xa0>
9d00e010:	2539fffc 	addiu	t9,t1,-4
9d00e014:	00042040 	sll	a0,a0,0x1
9d00e018:	00877024 	and	t6,a0,a3
9d00e01c:	15c0ffdf 	bnez	t6,9d00df9c <__floatunsisf+0xa0>
9d00e020:	2539fffb 	addiu	t9,t1,-5
9d00e024:	00042040 	sll	a0,a0,0x1
9d00e028:	00877824 	and	t7,a0,a3
9d00e02c:	15e0ffdb 	bnez	t7,9d00df9c <__floatunsisf+0xa0>
9d00e030:	2539fffa 	addiu	t9,t1,-6
9d00e034:	00042040 	sll	a0,a0,0x1
9d00e038:	0087c024 	and	t8,a0,a3
9d00e03c:	1300ffe0 	beqz	t8,9d00dfc0 <__floatunsisf+0xc4>
9d00e040:	2539fff9 	addiu	t9,t1,-7
9d00e044:	1000ffd6 	b	9d00dfa0 <__floatunsisf+0xa4>
9d00e048:	7c84b000 	ext	a0,a0,0x0,0x17

9d00e04c <__mulsi3>:
9d00e04c:	10a0003b 	beqz	a1,9d00e13c <__mulsi3+0xf0>
9d00e050:	00000000 	nop
9d00e054:	27bdfff0 	addiu	sp,sp,-16
9d00e058:	00001021 	move	v0,zero
9d00e05c:	afb2000c 	sw	s2,12(sp)
9d00e060:	afb10008 	sw	s1,8(sp)
9d00e064:	afb00004 	sw	s0,4(sp)
9d00e068:	0044c021 	addu	t8,v0,a0
9d00e06c:	30a30001 	andi	v1,a1,0x1
9d00e070:	00053042 	srl	a2,a1,0x1
9d00e074:	00053882 	srl	a3,a1,0x2
9d00e078:	000540c2 	srl	t0,a1,0x3
9d00e07c:	00054902 	srl	t1,a1,0x4
9d00e080:	00055142 	srl	t2,a1,0x5
9d00e084:	00055982 	srl	t3,a1,0x6
9d00e088:	000561c2 	srl	t4,a1,0x7
9d00e08c:	0303100b 	movn	v0,t8,v1
9d00e090:	30d00001 	andi	s0,a2,0x1
9d00e094:	30f20001 	andi	s2,a3,0x1
9d00e098:	31110001 	andi	s1,t0,0x1
9d00e09c:	31390001 	andi	t9,t1,0x1
9d00e0a0:	314f0001 	andi	t7,t2,0x1
9d00e0a4:	316d0001 	andi	t5,t3,0x1
9d00e0a8:	318e0001 	andi	t6,t4,0x1
9d00e0ac:	00052a02 	srl	a1,a1,0x8
9d00e0b0:	10c0001d 	beqz	a2,9d00e128 <__mulsi3+0xdc>
9d00e0b4:	0004c040 	sll	t8,a0,0x1
9d00e0b8:	00581821 	addu	v1,v0,t8
9d00e0bc:	0070100b 	movn	v0,v1,s0
9d00e0c0:	10e00019 	beqz	a3,9d00e128 <__mulsi3+0xdc>
9d00e0c4:	00043080 	sll	a2,a0,0x2
9d00e0c8:	00468021 	addu	s0,v0,a2
9d00e0cc:	0212100b 	movn	v0,s0,s2
9d00e0d0:	11000015 	beqz	t0,9d00e128 <__mulsi3+0xdc>
9d00e0d4:	000438c0 	sll	a3,a0,0x3
9d00e0d8:	00479021 	addu	s2,v0,a3
9d00e0dc:	0251100b 	movn	v0,s2,s1
9d00e0e0:	11200011 	beqz	t1,9d00e128 <__mulsi3+0xdc>
9d00e0e4:	00044100 	sll	t0,a0,0x4
9d00e0e8:	00488821 	addu	s1,v0,t0
9d00e0ec:	0239100b 	movn	v0,s1,t9
9d00e0f0:	1140000d 	beqz	t2,9d00e128 <__mulsi3+0xdc>
9d00e0f4:	00044940 	sll	t1,a0,0x5
9d00e0f8:	0049c821 	addu	t9,v0,t1
9d00e0fc:	032f100b 	movn	v0,t9,t7
9d00e100:	11600009 	beqz	t3,9d00e128 <__mulsi3+0xdc>
9d00e104:	00045180 	sll	t2,a0,0x6
9d00e108:	004a7821 	addu	t7,v0,t2
9d00e10c:	01ed100b 	movn	v0,t7,t5
9d00e110:	11800005 	beqz	t4,9d00e128 <__mulsi3+0xdc>
9d00e114:	000459c0 	sll	t3,a0,0x7
9d00e118:	004b6821 	addu	t5,v0,t3
9d00e11c:	01ae100b 	movn	v0,t5,t6
9d00e120:	14a0ffd1 	bnez	a1,9d00e068 <__mulsi3+0x1c>
9d00e124:	00042200 	sll	a0,a0,0x8
9d00e128:	8fb2000c 	lw	s2,12(sp)
9d00e12c:	8fb10008 	lw	s1,8(sp)
9d00e130:	8fb00004 	lw	s0,4(sp)
9d00e134:	03e00008 	jr	ra
9d00e138:	27bd0010 	addiu	sp,sp,16
9d00e13c:	03e00008 	jr	ra
9d00e140:	00001021 	move	v0,zero

9d00e144 <__muldsi3>:
9d00e144:	3086ffff 	andi	a2,a0,0xffff
9d00e148:	30a7ffff 	andi	a3,a1,0xffff
9d00e14c:	70c74002 	mul	t0,a2,a3
9d00e150:	00042402 	srl	a0,a0,0x10
9d00e154:	00051c02 	srl	v1,a1,0x10
9d00e158:	70872802 	mul	a1,a0,a3
9d00e15c:	00081402 	srl	v0,t0,0x10
9d00e160:	310affff 	andi	t2,t0,0xffff
9d00e164:	70c37002 	mul	t6,a2,v1
9d00e168:	00a24821 	addu	t1,a1,v0
9d00e16c:	00095c00 	sll	t3,t1,0x10
9d00e170:	016a6021 	addu	t4,t3,t2
9d00e174:	000c6c02 	srl	t5,t4,0x10
9d00e178:	0009c402 	srl	t8,t1,0x10
9d00e17c:	3199ffff 	andi	t9,t4,0xffff
9d00e180:	70833002 	mul	a2,a0,v1
9d00e184:	01cd7821 	addu	t7,t6,t5
9d00e188:	000f4402 	srl	t0,t7,0x10
9d00e18c:	000f2400 	sll	a0,t7,0x10
9d00e190:	00991021 	addu	v0,a0,t9
9d00e194:	00d83821 	addu	a3,a2,t8
9d00e198:	03e00008 	jr	ra
9d00e19c:	00e81821 	addu	v1,a3,t0

9d00e1a0 <__muldi3>:
9d00e1a0:	3083ffff 	andi	v1,a0,0xffff
9d00e1a4:	30c2ffff 	andi	v0,a2,0xffff
9d00e1a8:	70434002 	mul	t0,v0,v1
9d00e1ac:	00045c02 	srl	t3,a0,0x10
9d00e1b0:	27bdffe0 	addiu	sp,sp,-32
9d00e1b4:	00064c02 	srl	t1,a2,0x10
9d00e1b8:	afb2000c 	sw	s2,12(sp)
9d00e1bc:	afb6001c 	sw	s6,28(sp)
9d00e1c0:	afb00004 	sw	s0,4(sp)
9d00e1c4:	afb10008 	sw	s1,8(sp)
9d00e1c8:	afb40014 	sw	s4,20(sp)
9d00e1cc:	afb30010 	sw	s3,16(sp)
9d00e1d0:	afb50018 	sw	s5,24(sp)
9d00e1d4:	71626002 	mul	t4,t3,v0
9d00e1d8:	00085402 	srl	t2,t0,0x10
9d00e1dc:	310effff 	andi	t6,t0,0xffff
9d00e1e0:	71239002 	mul	s2,t1,v1
9d00e1e4:	018a6821 	addu	t5,t4,t2
9d00e1e8:	000d7c00 	sll	t7,t5,0x10
9d00e1ec:	01ee8021 	addu	s0,t7,t6
9d00e1f0:	00108c02 	srl	s1,s0,0x10
9d00e1f4:	000da402 	srl	s4,t5,0x10
9d00e1f8:	3215ffff 	andi	s5,s0,0xffff
9d00e1fc:	00005021 	move	t2,zero
9d00e200:	712bb002 	mul	s6,t1,t3
9d00e204:	02519821 	addu	s3,s2,s1
9d00e208:	0013cc00 	sll	t9,s3,0x10
9d00e20c:	00131c02 	srl	v1,s3,0x10
9d00e210:	03351021 	addu	v0,t9,s5
9d00e214:	02d4c021 	addu	t8,s6,s4
9d00e218:	10c00031 	beqz	a2,9d00e2e0 <__muldi3+0x140>
9d00e21c:	03031821 	addu	v1,t8,v1
9d00e220:	00aab021 	addu	s6,a1,t2
9d00e224:	30c90001 	andi	t1,a2,0x1
9d00e228:	00064042 	srl	t0,a2,0x1
9d00e22c:	0006a082 	srl	s4,a2,0x2
9d00e230:	000690c2 	srl	s2,a2,0x3
9d00e234:	00065902 	srl	t3,a2,0x4
9d00e238:	00066142 	srl	t4,a2,0x5
9d00e23c:	00066982 	srl	t5,a2,0x6
9d00e240:	000671c2 	srl	t6,a2,0x7
9d00e244:	02c9500b 	movn	t2,s6,t1
9d00e248:	31150001 	andi	s5,t0,0x1
9d00e24c:	32930001 	andi	s3,s4,0x1
9d00e250:	324f0001 	andi	t7,s2,0x1
9d00e254:	31780001 	andi	t8,t3,0x1
9d00e258:	31990001 	andi	t9,t4,0x1
9d00e25c:	31b00001 	andi	s0,t5,0x1
9d00e260:	31d10001 	andi	s1,t6,0x1
9d00e264:	00063202 	srl	a2,a2,0x8
9d00e268:	1100001d 	beqz	t0,9d00e2e0 <__muldi3+0x140>
9d00e26c:	0005b040 	sll	s6,a1,0x1
9d00e270:	02ca4821 	addu	t1,s6,t2
9d00e274:	0135500b 	movn	t2,t1,s5
9d00e278:	12800019 	beqz	s4,9d00e2e0 <__muldi3+0x140>
9d00e27c:	00054080 	sll	t0,a1,0x2
9d00e280:	010aa821 	addu	s5,t0,t2
9d00e284:	02b3500b 	movn	t2,s5,s3
9d00e288:	12400015 	beqz	s2,9d00e2e0 <__muldi3+0x140>
9d00e28c:	0005a0c0 	sll	s4,a1,0x3
9d00e290:	028a9821 	addu	s3,s4,t2
9d00e294:	026f500b 	movn	t2,s3,t7
9d00e298:	11600011 	beqz	t3,9d00e2e0 <__muldi3+0x140>
9d00e29c:	00059100 	sll	s2,a1,0x4
9d00e2a0:	024a7821 	addu	t7,s2,t2
9d00e2a4:	01f8500b 	movn	t2,t7,t8
9d00e2a8:	1180000d 	beqz	t4,9d00e2e0 <__muldi3+0x140>
9d00e2ac:	00055940 	sll	t3,a1,0x5
9d00e2b0:	016ac021 	addu	t8,t3,t2
9d00e2b4:	0319500b 	movn	t2,t8,t9
9d00e2b8:	11a00009 	beqz	t5,9d00e2e0 <__muldi3+0x140>
9d00e2bc:	00056180 	sll	t4,a1,0x6
9d00e2c0:	018ac821 	addu	t9,t4,t2
9d00e2c4:	0330500b 	movn	t2,t9,s0
9d00e2c8:	11c00005 	beqz	t6,9d00e2e0 <__muldi3+0x140>
9d00e2cc:	000569c0 	sll	t5,a1,0x7
9d00e2d0:	01aa8021 	addu	s0,t5,t2
9d00e2d4:	0211500b 	movn	t2,s0,s1
9d00e2d8:	14c0ffd1 	bnez	a2,9d00e220 <__muldi3+0x80>
9d00e2dc:	00052a00 	sll	a1,a1,0x8
9d00e2e0:	10e00031 	beqz	a3,9d00e3a8 <__muldi3+0x208>
9d00e2e4:	00002821 	move	a1,zero
9d00e2e8:	30e60001 	andi	a2,a3,0x1
9d00e2ec:	00074042 	srl	t0,a3,0x1
9d00e2f0:	00074882 	srl	t1,a3,0x2
9d00e2f4:	000798c2 	srl	s3,a3,0x3
9d00e2f8:	00077902 	srl	t7,a3,0x4
9d00e2fc:	0007c142 	srl	t8,a3,0x5
9d00e300:	0007c982 	srl	t9,a3,0x6
9d00e304:	000771c2 	srl	t6,a3,0x7
9d00e308:	0085b021 	addu	s6,a0,a1
9d00e30c:	31150001 	andi	s5,t0,0x1
9d00e310:	31340001 	andi	s4,t1,0x1
9d00e314:	32720001 	andi	s2,s3,0x1
9d00e318:	31eb0001 	andi	t3,t7,0x1
9d00e31c:	330c0001 	andi	t4,t8,0x1
9d00e320:	332d0001 	andi	t5,t9,0x1
9d00e324:	31d10001 	andi	s1,t6,0x1
9d00e328:	02c6280b 	movn	a1,s6,a2
9d00e32c:	00073a02 	srl	a3,a3,0x8
9d00e330:	1100001d 	beqz	t0,9d00e3a8 <__muldi3+0x208>
9d00e334:	00048040 	sll	s0,a0,0x1
9d00e338:	0205b021 	addu	s6,s0,a1
9d00e33c:	02d5280b 	movn	a1,s6,s5
9d00e340:	11200019 	beqz	t1,9d00e3a8 <__muldi3+0x208>
9d00e344:	00043080 	sll	a2,a0,0x2
9d00e348:	00c54021 	addu	t0,a2,a1
9d00e34c:	0114280b 	movn	a1,t0,s4
9d00e350:	12600015 	beqz	s3,9d00e3a8 <__muldi3+0x208>
9d00e354:	0004a8c0 	sll	s5,a0,0x3
9d00e358:	02a54821 	addu	t1,s5,a1
9d00e35c:	0132280b 	movn	a1,t1,s2
9d00e360:	11e00011 	beqz	t7,9d00e3a8 <__muldi3+0x208>
9d00e364:	0004a100 	sll	s4,a0,0x4
9d00e368:	02859821 	addu	s3,s4,a1
9d00e36c:	026b280b 	movn	a1,s3,t3
9d00e370:	1300000d 	beqz	t8,9d00e3a8 <__muldi3+0x208>
9d00e374:	00049140 	sll	s2,a0,0x5
9d00e378:	02457821 	addu	t7,s2,a1
9d00e37c:	01ec280b 	movn	a1,t7,t4
9d00e380:	13200009 	beqz	t9,9d00e3a8 <__muldi3+0x208>
9d00e384:	00045980 	sll	t3,a0,0x6
9d00e388:	0165c021 	addu	t8,t3,a1
9d00e38c:	030d280b 	movn	a1,t8,t5
9d00e390:	11c00005 	beqz	t6,9d00e3a8 <__muldi3+0x208>
9d00e394:	000461c0 	sll	t4,a0,0x7
9d00e398:	0185c821 	addu	t9,t4,a1
9d00e39c:	0331280b 	movn	a1,t9,s1
9d00e3a0:	14e0ffd1 	bnez	a3,9d00e2e8 <__muldi3+0x148>
9d00e3a4:	00042200 	sll	a0,a0,0x8
9d00e3a8:	01452021 	addu	a0,t2,a1
9d00e3ac:	8fb6001c 	lw	s6,28(sp)
9d00e3b0:	8fb50018 	lw	s5,24(sp)
9d00e3b4:	8fb40014 	lw	s4,20(sp)
9d00e3b8:	8fb30010 	lw	s3,16(sp)
9d00e3bc:	8fb2000c 	lw	s2,12(sp)
9d00e3c0:	8fb10008 	lw	s1,8(sp)
9d00e3c4:	8fb00004 	lw	s0,4(sp)
9d00e3c8:	00831821 	addu	v1,a0,v1
9d00e3cc:	03e00008 	jr	ra
9d00e3d0:	27bd0020 	addiu	sp,sp,32

9d00e3d4 <__udivmodsi4>:
9d00e3d4:	00a4102b 	sltu	v0,a1,a0
9d00e3d8:	10400048 	beqz	v0,9d00e4fc <__udivmodsi4+0x128>
9d00e3dc:	24070001 	li	a3,1
9d00e3e0:	04a00047 	bltz	a1,9d00e500 <__udivmodsi4+0x12c>
9d00e3e4:	00004021 	move	t0,zero
9d00e3e8:	00052840 	sll	a1,a1,0x1
9d00e3ec:	00a4182b 	sltu	v1,a1,a0
9d00e3f0:	10600043 	beqz	v1,9d00e500 <__udivmodsi4+0x12c>
9d00e3f4:	24070002 	li	a3,2
9d00e3f8:	04a00041 	bltz	a1,9d00e500 <__udivmodsi4+0x12c>
9d00e3fc:	2409001f 	li	t1,31
9d00e400:	00052840 	sll	a1,a1,0x1
9d00e404:	00a4402b 	sltu	t0,a1,a0
9d00e408:	11000081 	beqz	t0,9d00e610 <__udivmodsi4+0x23c>
9d00e40c:	00073840 	sll	a3,a3,0x1
9d00e410:	2529ffff 	addiu	t1,t1,-1
9d00e414:	51200080 	beqzl	t1,9d00e618 <__udivmodsi4+0x244>
9d00e418:	00004021 	move	t0,zero
9d00e41c:	04a20038 	bltzl	a1,9d00e500 <__udivmodsi4+0x12c>
9d00e420:	00004021 	move	t0,zero
9d00e424:	00052840 	sll	a1,a1,0x1
9d00e428:	00a4502b 	sltu	t2,a1,a0
9d00e42c:	11400078 	beqz	t2,9d00e610 <__udivmodsi4+0x23c>
9d00e430:	00073840 	sll	a3,a3,0x1
9d00e434:	04a20032 	bltzl	a1,9d00e500 <__udivmodsi4+0x12c>
9d00e438:	00004021 	move	t0,zero
9d00e43c:	00052840 	sll	a1,a1,0x1
9d00e440:	00a4582b 	sltu	t3,a1,a0
9d00e444:	11600072 	beqz	t3,9d00e610 <__udivmodsi4+0x23c>
9d00e448:	00073840 	sll	a3,a3,0x1
9d00e44c:	04a2002c 	bltzl	a1,9d00e500 <__udivmodsi4+0x12c>
9d00e450:	00004021 	move	t0,zero
9d00e454:	00052840 	sll	a1,a1,0x1
9d00e458:	00a4602b 	sltu	t4,a1,a0
9d00e45c:	1180006c 	beqz	t4,9d00e610 <__udivmodsi4+0x23c>
9d00e460:	00073840 	sll	a3,a3,0x1
9d00e464:	04a20026 	bltzl	a1,9d00e500 <__udivmodsi4+0x12c>
9d00e468:	00004021 	move	t0,zero
9d00e46c:	00052840 	sll	a1,a1,0x1
9d00e470:	00a4682b 	sltu	t5,a1,a0
9d00e474:	11a00066 	beqz	t5,9d00e610 <__udivmodsi4+0x23c>
9d00e478:	00073840 	sll	a3,a3,0x1
9d00e47c:	04a20020 	bltzl	a1,9d00e500 <__udivmodsi4+0x12c>
9d00e480:	00004021 	move	t0,zero
9d00e484:	00052840 	sll	a1,a1,0x1
9d00e488:	00a4702b 	sltu	t6,a1,a0
9d00e48c:	11c00060 	beqz	t6,9d00e610 <__udivmodsi4+0x23c>
9d00e490:	00073840 	sll	a3,a3,0x1
9d00e494:	04a2001a 	bltzl	a1,9d00e500 <__udivmodsi4+0x12c>
9d00e498:	00004021 	move	t0,zero
9d00e49c:	00052840 	sll	a1,a1,0x1
9d00e4a0:	00a4782b 	sltu	t7,a1,a0
9d00e4a4:	11e0005a 	beqz	t7,9d00e610 <__udivmodsi4+0x23c>
9d00e4a8:	00073840 	sll	a3,a3,0x1
9d00e4ac:	04a20014 	bltzl	a1,9d00e500 <__udivmodsi4+0x12c>
9d00e4b0:	00004021 	move	t0,zero
9d00e4b4:	00052840 	sll	a1,a1,0x1
9d00e4b8:	00a4c02b 	sltu	t8,a1,a0
9d00e4bc:	13000054 	beqz	t8,9d00e610 <__udivmodsi4+0x23c>
9d00e4c0:	00073840 	sll	a3,a3,0x1
9d00e4c4:	04a2000e 	bltzl	a1,9d00e500 <__udivmodsi4+0x12c>
9d00e4c8:	00004021 	move	t0,zero
9d00e4cc:	00052840 	sll	a1,a1,0x1
9d00e4d0:	00a4c82b 	sltu	t9,a1,a0
9d00e4d4:	1320004e 	beqz	t9,9d00e610 <__udivmodsi4+0x23c>
9d00e4d8:	00073840 	sll	a3,a3,0x1
9d00e4dc:	04a20008 	bltzl	a1,9d00e500 <__udivmodsi4+0x12c>
9d00e4e0:	00004021 	move	t0,zero
9d00e4e4:	00052840 	sll	a1,a1,0x1
9d00e4e8:	00a4102b 	sltu	v0,a1,a0
9d00e4ec:	10400048 	beqz	v0,9d00e610 <__udivmodsi4+0x23c>
9d00e4f0:	00073840 	sll	a3,a3,0x1
9d00e4f4:	04a1ffc2 	bgez	a1,9d00e400 <__udivmodsi4+0x2c>
9d00e4f8:	2529fff7 	addiu	t1,t1,-9
9d00e4fc:	00004021 	move	t0,zero
9d00e500:	0085502b 	sltu	t2,a0,a1
9d00e504:	00e8c025 	or	t8,a3,t0
9d00e508:	00851823 	subu	v1,a0,a1
9d00e50c:	0007c842 	srl	t9,a3,0x1
9d00e510:	030a400a 	movz	t0,t8,t2
9d00e514:	008a180b 	movn	v1,a0,t2
9d00e518:	00075882 	srl	t3,a3,0x2
9d00e51c:	000760c2 	srl	t4,a3,0x3
9d00e520:	00076902 	srl	t5,a3,0x4
9d00e524:	00077142 	srl	t6,a3,0x5
9d00e528:	00077982 	srl	t7,a3,0x6
9d00e52c:	0328c025 	or	t8,t9,t0
9d00e530:	13200034 	beqz	t9,9d00e604 <__udivmodsi4+0x230>
9d00e534:	00052042 	srl	a0,a1,0x1
9d00e538:	0064502b 	sltu	t2,v1,a0
9d00e53c:	030a400a 	movz	t0,t8,t2
9d00e540:	00644823 	subu	t1,v1,a0
9d00e544:	000711c2 	srl	v0,a3,0x7
9d00e548:	012a180a 	movz	v1,t1,t2
9d00e54c:	00073a02 	srl	a3,a3,0x8
9d00e550:	0168c825 	or	t9,t3,t0
9d00e554:	1160002b 	beqz	t3,9d00e604 <__udivmodsi4+0x230>
9d00e558:	0005c082 	srl	t8,a1,0x2
9d00e55c:	0078202b 	sltu	a0,v1,t8
9d00e560:	0324400a 	movz	t0,t9,a0
9d00e564:	00785823 	subu	t3,v1,t8
9d00e568:	0164180a 	movz	v1,t3,a0
9d00e56c:	01884825 	or	t1,t4,t0
9d00e570:	11800024 	beqz	t4,9d00e604 <__udivmodsi4+0x230>
9d00e574:	0005c8c2 	srl	t9,a1,0x3
9d00e578:	0079502b 	sltu	t2,v1,t9
9d00e57c:	00796023 	subu	t4,v1,t9
9d00e580:	012a400a 	movz	t0,t1,t2
9d00e584:	018a180a 	movz	v1,t4,t2
9d00e588:	01a8c025 	or	t8,t5,t0
9d00e58c:	11a0001d 	beqz	t5,9d00e604 <__udivmodsi4+0x230>
9d00e590:	00055902 	srl	t3,a1,0x4
9d00e594:	006b202b 	sltu	a0,v1,t3
9d00e598:	006b6823 	subu	t5,v1,t3
9d00e59c:	0304400a 	movz	t0,t8,a0
9d00e5a0:	01a4180a 	movz	v1,t5,a0
9d00e5a4:	01c84825 	or	t1,t6,t0
9d00e5a8:	11c00016 	beqz	t6,9d00e604 <__udivmodsi4+0x230>
9d00e5ac:	0005c942 	srl	t9,a1,0x5
9d00e5b0:	0079602b 	sltu	t4,v1,t9
9d00e5b4:	00797023 	subu	t6,v1,t9
9d00e5b8:	012c400a 	movz	t0,t1,t4
9d00e5bc:	01cc180a 	movz	v1,t6,t4
9d00e5c0:	01e8c025 	or	t8,t7,t0
9d00e5c4:	11e0000f 	beqz	t7,9d00e604 <__udivmodsi4+0x230>
9d00e5c8:	00055982 	srl	t3,a1,0x6
9d00e5cc:	006b502b 	sltu	t2,v1,t3
9d00e5d0:	006b7823 	subu	t7,v1,t3
9d00e5d4:	030a400a 	movz	t0,t8,t2
9d00e5d8:	01ea180a 	movz	v1,t7,t2
9d00e5dc:	00486825 	or	t5,v0,t0
9d00e5e0:	10400008 	beqz	v0,9d00e604 <__udivmodsi4+0x230>
9d00e5e4:	000521c2 	srl	a0,a1,0x7
9d00e5e8:	0064482b 	sltu	t1,v1,a0
9d00e5ec:	00641023 	subu	v0,v1,a0
9d00e5f0:	0049180a 	movz	v1,v0,t1
9d00e5f4:	01a9400a 	movz	t0,t5,t1
9d00e5f8:	00052a02 	srl	a1,a1,0x8
9d00e5fc:	14e0ffc0 	bnez	a3,9d00e500 <__udivmodsi4+0x12c>
9d00e600:	00602021 	move	a0,v1
9d00e604:	01001021 	move	v0,t0
9d00e608:	03e00008 	jr	ra
9d00e60c:	0066100b 	movn	v0,v1,a2
9d00e610:	14e0ffbb 	bnez	a3,9d00e500 <__udivmodsi4+0x12c>
9d00e614:	00004021 	move	t0,zero
9d00e618:	00801821 	move	v1,a0
9d00e61c:	01001021 	move	v0,t0
9d00e620:	03e00008 	jr	ra
9d00e624:	0066100b 	movn	v0,v1,a2

9d00e628 <__divsi3>:
9d00e628:	0480007b 	bltz	a0,9d00e818 <__divsi3+0x1f0>
9d00e62c:	240cffff 	li	t4,-1
9d00e630:	00006021 	move	t4,zero
9d00e634:	00005821 	move	t3,zero
9d00e638:	2403ffff 	li	v1,-1
9d00e63c:	24020001 	li	v0,1
9d00e640:	04a20072 	bltzl	a1,9d00e80c <__divsi3+0x1e4>
9d00e644:	00606021 	move	t4,v1
9d00e648:	00a4382b 	sltu	a3,a1,a0
9d00e64c:	10e00077 	beqz	a3,9d00e82c <__divsi3+0x204>
9d00e650:	00803021 	move	a2,a0
9d00e654:	24090020 	li	t1,32
9d00e658:	24030001 	li	v1,1
9d00e65c:	00052840 	sll	a1,a1,0x1
9d00e660:	00a4402b 	sltu	t0,a1,a0
9d00e664:	2529fff8 	addiu	t1,t1,-8
9d00e668:	11000023 	beqz	t0,9d00e6f8 <__divsi3+0xd0>
9d00e66c:	00031840 	sll	v1,v1,0x1
9d00e670:	00052840 	sll	a1,a1,0x1
9d00e674:	00a4502b 	sltu	t2,a1,a0
9d00e678:	1140001f 	beqz	t2,9d00e6f8 <__divsi3+0xd0>
9d00e67c:	00031840 	sll	v1,v1,0x1
9d00e680:	00052840 	sll	a1,a1,0x1
9d00e684:	00a4682b 	sltu	t5,a1,a0
9d00e688:	11a0001b 	beqz	t5,9d00e6f8 <__divsi3+0xd0>
9d00e68c:	00031840 	sll	v1,v1,0x1
9d00e690:	00052840 	sll	a1,a1,0x1
9d00e694:	00a4702b 	sltu	t6,a1,a0
9d00e698:	11c00017 	beqz	t6,9d00e6f8 <__divsi3+0xd0>
9d00e69c:	00031840 	sll	v1,v1,0x1
9d00e6a0:	00052840 	sll	a1,a1,0x1
9d00e6a4:	00a4782b 	sltu	t7,a1,a0
9d00e6a8:	11e00013 	beqz	t7,9d00e6f8 <__divsi3+0xd0>
9d00e6ac:	00031840 	sll	v1,v1,0x1
9d00e6b0:	00052840 	sll	a1,a1,0x1
9d00e6b4:	00a4c02b 	sltu	t8,a1,a0
9d00e6b8:	1300000f 	beqz	t8,9d00e6f8 <__divsi3+0xd0>
9d00e6bc:	00031840 	sll	v1,v1,0x1
9d00e6c0:	00052840 	sll	a1,a1,0x1
9d00e6c4:	00a4c82b 	sltu	t9,a1,a0
9d00e6c8:	1320000b 	beqz	t9,9d00e6f8 <__divsi3+0xd0>
9d00e6cc:	00031840 	sll	v1,v1,0x1
9d00e6d0:	00052840 	sll	a1,a1,0x1
9d00e6d4:	00a4102b 	sltu	v0,a1,a0
9d00e6d8:	10400007 	beqz	v0,9d00e6f8 <__divsi3+0xd0>
9d00e6dc:	00031840 	sll	v1,v1,0x1
9d00e6e0:	1520ffdf 	bnez	t1,9d00e660 <__divsi3+0x38>
9d00e6e4:	00052840 	sll	a1,a1,0x1
9d00e6e8:	00002021 	move	a0,zero
9d00e6ec:	008c2826 	xor	a1,a0,t4
9d00e6f0:	03e00008 	jr	ra
9d00e6f4:	00ab1021 	addu	v0,a1,t3
9d00e6f8:	1060fffc 	beqz	v1,9d00e6ec <__divsi3+0xc4>
9d00e6fc:	00002021 	move	a0,zero
9d00e700:	00002021 	move	a0,zero
9d00e704:	00c5682b 	sltu	t5,a2,a1
9d00e708:	0064c025 	or	t8,v1,a0
9d00e70c:	00c53823 	subu	a3,a2,a1
9d00e710:	00034042 	srl	t0,v1,0x1
9d00e714:	030d200a 	movz	a0,t8,t5
9d00e718:	00ed300a 	movz	a2,a3,t5
9d00e71c:	00037882 	srl	t7,v1,0x2
9d00e720:	000370c2 	srl	t6,v1,0x3
9d00e724:	00034902 	srl	t1,v1,0x4
9d00e728:	00035142 	srl	t2,v1,0x5
9d00e72c:	0003c982 	srl	t9,v1,0x6
9d00e730:	01041025 	or	v0,t0,a0
9d00e734:	1100ffed 	beqz	t0,9d00e6ec <__divsi3+0xc4>
9d00e738:	00053842 	srl	a3,a1,0x1
9d00e73c:	00c7402b 	sltu	t0,a2,a3
9d00e740:	00c7c023 	subu	t8,a2,a3
9d00e744:	0048200a 	movz	a0,v0,t0
9d00e748:	000369c2 	srl	t5,v1,0x7
9d00e74c:	0308300a 	movz	a2,t8,t0
9d00e750:	00031a02 	srl	v1,v1,0x8
9d00e754:	01e41025 	or	v0,t7,a0
9d00e758:	11e0ffe4 	beqz	t7,9d00e6ec <__divsi3+0xc4>
9d00e75c:	00053882 	srl	a3,a1,0x2
9d00e760:	00c7c02b 	sltu	t8,a2,a3
9d00e764:	00c77823 	subu	t7,a2,a3
9d00e768:	0058200a 	movz	a0,v0,t8
9d00e76c:	01f8300a 	movz	a2,t7,t8
9d00e770:	01c41025 	or	v0,t6,a0
9d00e774:	11c0ffdd 	beqz	t6,9d00e6ec <__divsi3+0xc4>
9d00e778:	000538c2 	srl	a3,a1,0x3
9d00e77c:	00c7402b 	sltu	t0,a2,a3
9d00e780:	00c77023 	subu	t6,a2,a3
9d00e784:	0048200a 	movz	a0,v0,t0
9d00e788:	01c8300a 	movz	a2,t6,t0
9d00e78c:	01247825 	or	t7,t1,a0
9d00e790:	1120ffd6 	beqz	t1,9d00e6ec <__divsi3+0xc4>
9d00e794:	0005c102 	srl	t8,a1,0x4
9d00e798:	00d8102b 	sltu	v0,a2,t8
9d00e79c:	00d84823 	subu	t1,a2,t8
9d00e7a0:	01e2200a 	movz	a0,t7,v0
9d00e7a4:	0122300a 	movz	a2,t1,v0
9d00e7a8:	01447025 	or	t6,t2,a0
9d00e7ac:	1140ffcf 	beqz	t2,9d00e6ec <__divsi3+0xc4>
9d00e7b0:	00053942 	srl	a3,a1,0x5
9d00e7b4:	00c7402b 	sltu	t0,a2,a3
9d00e7b8:	00c75023 	subu	t2,a2,a3
9d00e7bc:	01c8200a 	movz	a0,t6,t0
9d00e7c0:	0148300a 	movz	a2,t2,t0
9d00e7c4:	03247825 	or	t7,t9,a0
9d00e7c8:	1320ffc8 	beqz	t9,9d00e6ec <__divsi3+0xc4>
9d00e7cc:	0005c182 	srl	t8,a1,0x6
9d00e7d0:	00d8482b 	sltu	t1,a2,t8
9d00e7d4:	00d8c823 	subu	t9,a2,t8
9d00e7d8:	01e9200a 	movz	a0,t7,t1
9d00e7dc:	0329300a 	movz	a2,t9,t1
9d00e7e0:	01a47025 	or	t6,t5,a0
9d00e7e4:	11a0ffc1 	beqz	t5,9d00e6ec <__divsi3+0xc4>
9d00e7e8:	000511c2 	srl	v0,a1,0x7
9d00e7ec:	00c2382b 	sltu	a3,a2,v0
9d00e7f0:	00c26823 	subu	t5,a2,v0
9d00e7f4:	01c7200a 	movz	a0,t6,a3
9d00e7f8:	00052a02 	srl	a1,a1,0x8
9d00e7fc:	1460ffc1 	bnez	v1,9d00e704 <__divsi3+0xdc>
9d00e800:	01a7300a 	movz	a2,t5,a3
9d00e804:	1000ffba 	b	9d00e6f0 <__divsi3+0xc8>
9d00e808:	008c2826 	xor	a1,a0,t4
9d00e80c:	00405821 	move	t3,v0
9d00e810:	1000ff8d 	b	9d00e648 <__divsi3+0x20>
9d00e814:	00052823 	negu	a1,a1
9d00e818:	240b0001 	li	t3,1
9d00e81c:	00001821 	move	v1,zero
9d00e820:	00001021 	move	v0,zero
9d00e824:	1000ff86 	b	9d00e640 <__divsi3+0x18>
9d00e828:	00042023 	negu	a0,a0
9d00e82c:	1000ffb4 	b	9d00e700 <__divsi3+0xd8>
9d00e830:	24030001 	li	v1,1

9d00e834 <__modsi3>:
9d00e834:	04800065 	bltz	a0,9d00e9cc <__modsi3+0x198>
9d00e838:	24080001 	li	t0,1
9d00e83c:	00004021 	move	t0,zero
9d00e840:	00001021 	move	v0,zero
9d00e844:	00051fc3 	sra	v1,a1,0x1f
9d00e848:	00652826 	xor	a1,v1,a1
9d00e84c:	00a3c823 	subu	t9,a1,v1
9d00e850:	0324302b 	sltu	a2,t9,a0
9d00e854:	10c00060 	beqz	a2,9d00e9d8 <__modsi3+0x1a4>
9d00e858:	0080c021 	move	t8,a0
9d00e85c:	24070020 	li	a3,32
9d00e860:	24050001 	li	a1,1
9d00e864:	0019c840 	sll	t9,t9,0x1
9d00e868:	0324482b 	sltu	t1,t9,a0
9d00e86c:	24e7fff8 	addiu	a3,a3,-8
9d00e870:	11200022 	beqz	t1,9d00e8fc <__modsi3+0xc8>
9d00e874:	00052840 	sll	a1,a1,0x1
9d00e878:	0019c840 	sll	t9,t9,0x1
9d00e87c:	0324502b 	sltu	t2,t9,a0
9d00e880:	1140001e 	beqz	t2,9d00e8fc <__modsi3+0xc8>
9d00e884:	00052840 	sll	a1,a1,0x1
9d00e888:	0019c840 	sll	t9,t9,0x1
9d00e88c:	0324582b 	sltu	t3,t9,a0
9d00e890:	1160001a 	beqz	t3,9d00e8fc <__modsi3+0xc8>
9d00e894:	00052840 	sll	a1,a1,0x1
9d00e898:	0019c840 	sll	t9,t9,0x1
9d00e89c:	0324602b 	sltu	t4,t9,a0
9d00e8a0:	11800016 	beqz	t4,9d00e8fc <__modsi3+0xc8>
9d00e8a4:	00052840 	sll	a1,a1,0x1
9d00e8a8:	0019c840 	sll	t9,t9,0x1
9d00e8ac:	0324682b 	sltu	t5,t9,a0
9d00e8b0:	11a00012 	beqz	t5,9d00e8fc <__modsi3+0xc8>
9d00e8b4:	00052840 	sll	a1,a1,0x1
9d00e8b8:	0019c840 	sll	t9,t9,0x1
9d00e8bc:	0324702b 	sltu	t6,t9,a0
9d00e8c0:	11c0000e 	beqz	t6,9d00e8fc <__modsi3+0xc8>
9d00e8c4:	00052840 	sll	a1,a1,0x1
9d00e8c8:	0019c840 	sll	t9,t9,0x1
9d00e8cc:	0324782b 	sltu	t7,t9,a0
9d00e8d0:	11e0000a 	beqz	t7,9d00e8fc <__modsi3+0xc8>
9d00e8d4:	00052840 	sll	a1,a1,0x1
9d00e8d8:	0019c840 	sll	t9,t9,0x1
9d00e8dc:	0324182b 	sltu	v1,t9,a0
9d00e8e0:	10600006 	beqz	v1,9d00e8fc <__modsi3+0xc8>
9d00e8e4:	00052840 	sll	a1,a1,0x1
9d00e8e8:	54e0ffdf 	bnezl	a3,9d00e868 <__modsi3+0x34>
9d00e8ec:	0019c840 	sll	t9,t9,0x1
9d00e8f0:	03021026 	xor	v0,t8,v0
9d00e8f4:	03e00008 	jr	ra
9d00e8f8:	01021021 	addu	v0,t0,v0
9d00e8fc:	50a0fffd 	beqzl	a1,9d00e8f4 <__modsi3+0xc0>
9d00e900:	03021026 	xor	v0,t8,v0
9d00e904:	03192023 	subu	a0,t8,t9
9d00e908:	0319302b 	sltu	a2,t8,t9
9d00e90c:	00054842 	srl	t1,a1,0x1
9d00e910:	00055082 	srl	t2,a1,0x2
9d00e914:	000558c2 	srl	t3,a1,0x3
9d00e918:	00056902 	srl	t5,a1,0x4
9d00e91c:	00057942 	srl	t7,a1,0x5
9d00e920:	00057182 	srl	t6,a1,0x6
9d00e924:	000561c2 	srl	t4,a1,0x7
9d00e928:	0086c00a 	movz	t8,a0,a2
9d00e92c:	00052a02 	srl	a1,a1,0x8
9d00e930:	1120ffef 	beqz	t1,9d00e8f0 <__modsi3+0xbc>
9d00e934:	00191842 	srl	v1,t9,0x1
9d00e938:	03033823 	subu	a3,t8,v1
9d00e93c:	0303202b 	sltu	a0,t8,v1
9d00e940:	00e4c00a 	movz	t8,a3,a0
9d00e944:	1140ffea 	beqz	t2,9d00e8f0 <__modsi3+0xbc>
9d00e948:	00193082 	srl	a2,t9,0x2
9d00e94c:	03064823 	subu	t1,t8,a2
9d00e950:	0306502b 	sltu	t2,t8,a2
9d00e954:	012ac00a 	movz	t8,t1,t2
9d00e958:	1160ffe5 	beqz	t3,9d00e8f0 <__modsi3+0xbc>
9d00e95c:	001918c2 	srl	v1,t9,0x3
9d00e960:	03035823 	subu	t3,t8,v1
9d00e964:	0303382b 	sltu	a3,t8,v1
9d00e968:	0167c00a 	movz	t8,t3,a3
9d00e96c:	11a0ffe0 	beqz	t5,9d00e8f0 <__modsi3+0xbc>
9d00e970:	00192102 	srl	a0,t9,0x4
9d00e974:	03046823 	subu	t5,t8,a0
9d00e978:	0304302b 	sltu	a2,t8,a0
9d00e97c:	01a6c00a 	movz	t8,t5,a2
9d00e980:	11e0ffdb 	beqz	t7,9d00e8f0 <__modsi3+0xbc>
9d00e984:	00194942 	srl	t1,t9,0x5
9d00e988:	03097823 	subu	t7,t8,t1
9d00e98c:	0309502b 	sltu	t2,t8,t1
9d00e990:	01eac00a 	movz	t8,t7,t2
9d00e994:	11c0ffd6 	beqz	t6,9d00e8f0 <__modsi3+0xbc>
9d00e998:	00191982 	srl	v1,t9,0x6
9d00e99c:	03037023 	subu	t6,t8,v1
9d00e9a0:	0303582b 	sltu	t3,t8,v1
9d00e9a4:	01cbc00a 	movz	t8,t6,t3
9d00e9a8:	1180ffd1 	beqz	t4,9d00e8f0 <__modsi3+0xbc>
9d00e9ac:	001921c2 	srl	a0,t9,0x7
9d00e9b0:	03046023 	subu	t4,t8,a0
9d00e9b4:	0304382b 	sltu	a3,t8,a0
9d00e9b8:	0187c00a 	movz	t8,t4,a3
9d00e9bc:	14a0ffd1 	bnez	a1,9d00e904 <__modsi3+0xd0>
9d00e9c0:	0019ca02 	srl	t9,t9,0x8
9d00e9c4:	1000ffcb 	b	9d00e8f4 <__modsi3+0xc0>
9d00e9c8:	03021026 	xor	v0,t8,v0
9d00e9cc:	2402ffff 	li	v0,-1
9d00e9d0:	1000ff9c 	b	9d00e844 <__modsi3+0x10>
9d00e9d4:	00042023 	negu	a0,a0
9d00e9d8:	1000ffca 	b	9d00e904 <__modsi3+0xd0>
9d00e9dc:	24050001 	li	a1,1

9d00e9e0 <__udivsi3>:
9d00e9e0:	00a4102b 	sltu	v0,a1,a0
9d00e9e4:	10400048 	beqz	v0,9d00eb08 <__udivsi3+0x128>
9d00e9e8:	24030001 	li	v1,1
9d00e9ec:	04a20047 	bltzl	a1,9d00eb0c <__udivsi3+0x12c>
9d00e9f0:	00001021 	move	v0,zero
9d00e9f4:	00052840 	sll	a1,a1,0x1
9d00e9f8:	00a4302b 	sltu	a2,a1,a0
9d00e9fc:	10c00042 	beqz	a2,9d00eb08 <__udivsi3+0x128>
9d00ea00:	24030002 	li	v1,2
9d00ea04:	04a00040 	bltz	a1,9d00eb08 <__udivsi3+0x128>
9d00ea08:	2419001f 	li	t9,31
9d00ea0c:	00052840 	sll	a1,a1,0x1
9d00ea10:	00a4382b 	sltu	a3,a1,a0
9d00ea14:	10e0007f 	beqz	a3,9d00ec14 <__udivsi3+0x234>
9d00ea18:	00031840 	sll	v1,v1,0x1
9d00ea1c:	2722ffff 	addiu	v0,t9,-1
9d00ea20:	10400080 	beqz	v0,9d00ec24 <__udivsi3+0x244>
9d00ea24:	00000000 	nop
9d00ea28:	04a20038 	bltzl	a1,9d00eb0c <__udivsi3+0x12c>
9d00ea2c:	00001021 	move	v0,zero
9d00ea30:	00052840 	sll	a1,a1,0x1
9d00ea34:	00a4402b 	sltu	t0,a1,a0
9d00ea38:	11000076 	beqz	t0,9d00ec14 <__udivsi3+0x234>
9d00ea3c:	00031840 	sll	v1,v1,0x1
9d00ea40:	04a20032 	bltzl	a1,9d00eb0c <__udivsi3+0x12c>
9d00ea44:	00001021 	move	v0,zero
9d00ea48:	00052840 	sll	a1,a1,0x1
9d00ea4c:	00a4482b 	sltu	t1,a1,a0
9d00ea50:	11200070 	beqz	t1,9d00ec14 <__udivsi3+0x234>
9d00ea54:	00031840 	sll	v1,v1,0x1
9d00ea58:	04a2002c 	bltzl	a1,9d00eb0c <__udivsi3+0x12c>
9d00ea5c:	00001021 	move	v0,zero
9d00ea60:	00052840 	sll	a1,a1,0x1
9d00ea64:	00a4502b 	sltu	t2,a1,a0
9d00ea68:	1140006a 	beqz	t2,9d00ec14 <__udivsi3+0x234>
9d00ea6c:	00031840 	sll	v1,v1,0x1
9d00ea70:	04a20026 	bltzl	a1,9d00eb0c <__udivsi3+0x12c>
9d00ea74:	00001021 	move	v0,zero
9d00ea78:	00052840 	sll	a1,a1,0x1
9d00ea7c:	00a4582b 	sltu	t3,a1,a0
9d00ea80:	11600064 	beqz	t3,9d00ec14 <__udivsi3+0x234>
9d00ea84:	00031840 	sll	v1,v1,0x1
9d00ea88:	04a20020 	bltzl	a1,9d00eb0c <__udivsi3+0x12c>
9d00ea8c:	00001021 	move	v0,zero
9d00ea90:	00052840 	sll	a1,a1,0x1
9d00ea94:	00a4602b 	sltu	t4,a1,a0
9d00ea98:	1180005e 	beqz	t4,9d00ec14 <__udivsi3+0x234>
9d00ea9c:	00031840 	sll	v1,v1,0x1
9d00eaa0:	04a2001a 	bltzl	a1,9d00eb0c <__udivsi3+0x12c>
9d00eaa4:	00001021 	move	v0,zero
9d00eaa8:	00052840 	sll	a1,a1,0x1
9d00eaac:	00a4682b 	sltu	t5,a1,a0
9d00eab0:	11a00058 	beqz	t5,9d00ec14 <__udivsi3+0x234>
9d00eab4:	00031840 	sll	v1,v1,0x1
9d00eab8:	04a20014 	bltzl	a1,9d00eb0c <__udivsi3+0x12c>
9d00eabc:	00001021 	move	v0,zero
9d00eac0:	00052840 	sll	a1,a1,0x1
9d00eac4:	00a4702b 	sltu	t6,a1,a0
9d00eac8:	11c00052 	beqz	t6,9d00ec14 <__udivsi3+0x234>
9d00eacc:	00031840 	sll	v1,v1,0x1
9d00ead0:	04a2000e 	bltzl	a1,9d00eb0c <__udivsi3+0x12c>
9d00ead4:	00001021 	move	v0,zero
9d00ead8:	00052840 	sll	a1,a1,0x1
9d00eadc:	00a4782b 	sltu	t7,a1,a0
9d00eae0:	11e0004c 	beqz	t7,9d00ec14 <__udivsi3+0x234>
9d00eae4:	00031840 	sll	v1,v1,0x1
9d00eae8:	04a20008 	bltzl	a1,9d00eb0c <__udivsi3+0x12c>
9d00eaec:	00001021 	move	v0,zero
9d00eaf0:	00052840 	sll	a1,a1,0x1
9d00eaf4:	00a4c02b 	sltu	t8,a1,a0
9d00eaf8:	13000046 	beqz	t8,9d00ec14 <__udivsi3+0x234>
9d00eafc:	00031840 	sll	v1,v1,0x1
9d00eb00:	04a1ffc2 	bgez	a1,9d00ea0c <__udivsi3+0x2c>
9d00eb04:	2459fff7 	addiu	t9,v0,-9
9d00eb08:	00001021 	move	v0,zero
9d00eb0c:	0085502b 	sltu	t2,a0,a1
9d00eb10:	00437025 	or	t6,v0,v1
9d00eb14:	00853023 	subu	a2,a0,a1
9d00eb18:	00033842 	srl	a3,v1,0x1
9d00eb1c:	01ca100a 	movz	v0,t6,t2
9d00eb20:	00036082 	srl	t4,v1,0x2
9d00eb24:	000368c2 	srl	t5,v1,0x3
9d00eb28:	00035902 	srl	t3,v1,0x4
9d00eb2c:	00034142 	srl	t0,v1,0x5
9d00eb30:	00034982 	srl	t1,v1,0x6
9d00eb34:	00ca200a 	movz	a0,a2,t2
9d00eb38:	00477825 	or	t7,v0,a3
9d00eb3c:	10e00033 	beqz	a3,9d00ec0c <__udivsi3+0x22c>
9d00eb40:	0005c042 	srl	t8,a1,0x1
9d00eb44:	0098302b 	sltu	a2,a0,t8
9d00eb48:	01e6100a 	movz	v0,t7,a2
9d00eb4c:	0098c823 	subu	t9,a0,t8
9d00eb50:	000351c2 	srl	t2,v1,0x7
9d00eb54:	0326200a 	movz	a0,t9,a2
9d00eb58:	00031a02 	srl	v1,v1,0x8
9d00eb5c:	004c7025 	or	t6,v0,t4
9d00eb60:	1180002a 	beqz	t4,9d00ec0c <__udivsi3+0x22c>
9d00eb64:	00057882 	srl	t7,a1,0x2
9d00eb68:	008f602b 	sltu	t4,a0,t7
9d00eb6c:	008f3823 	subu	a3,a0,t7
9d00eb70:	01cc100a 	movz	v0,t6,t4
9d00eb74:	00ec200a 	movz	a0,a3,t4
9d00eb78:	004dc025 	or	t8,v0,t5
9d00eb7c:	11a00023 	beqz	t5,9d00ec0c <__udivsi3+0x22c>
9d00eb80:	0005c8c2 	srl	t9,a1,0x3
9d00eb84:	0099302b 	sltu	a2,a0,t9
9d00eb88:	00996823 	subu	t5,a0,t9
9d00eb8c:	0306100a 	movz	v0,t8,a2
9d00eb90:	01a6200a 	movz	a0,t5,a2
9d00eb94:	004b7025 	or	t6,v0,t3
9d00eb98:	1160001c 	beqz	t3,9d00ec0c <__udivsi3+0x22c>
9d00eb9c:	00057902 	srl	t7,a1,0x4
9d00eba0:	008f382b 	sltu	a3,a0,t7
9d00eba4:	008f5823 	subu	t3,a0,t7
9d00eba8:	01c7100a 	movz	v0,t6,a3
9d00ebac:	0167200a 	movz	a0,t3,a3
9d00ebb0:	00486025 	or	t4,v0,t0
9d00ebb4:	11000015 	beqz	t0,9d00ec0c <__udivsi3+0x22c>
9d00ebb8:	0005c142 	srl	t8,a1,0x5
9d00ebbc:	0098c82b 	sltu	t9,a0,t8
9d00ebc0:	00984023 	subu	t0,a0,t8
9d00ebc4:	0199100a 	movz	v0,t4,t9
9d00ebc8:	0119200a 	movz	a0,t0,t9
9d00ebcc:	00496825 	or	t5,v0,t1
9d00ebd0:	1120000e 	beqz	t1,9d00ec0c <__udivsi3+0x22c>
9d00ebd4:	00053182 	srl	a2,a1,0x6
9d00ebd8:	0086702b 	sltu	t6,a0,a2
9d00ebdc:	00864823 	subu	t1,a0,a2
9d00ebe0:	01ae100a 	movz	v0,t5,t6
9d00ebe4:	012e200a 	movz	a0,t1,t6
9d00ebe8:	004a7825 	or	t7,v0,t2
9d00ebec:	11400007 	beqz	t2,9d00ec0c <__udivsi3+0x22c>
9d00ebf0:	000559c2 	srl	t3,a1,0x7
9d00ebf4:	008b382b 	sltu	a3,a0,t3
9d00ebf8:	008b5023 	subu	t2,a0,t3
9d00ebfc:	01e7100a 	movz	v0,t7,a3
9d00ec00:	00052a02 	srl	a1,a1,0x8
9d00ec04:	1460ffc1 	bnez	v1,9d00eb0c <__udivsi3+0x12c>
9d00ec08:	0147200a 	movz	a0,t2,a3
9d00ec0c:	03e00008 	jr	ra
9d00ec10:	00000000 	nop
9d00ec14:	1460ffbd 	bnez	v1,9d00eb0c <__udivsi3+0x12c>
9d00ec18:	00001021 	move	v0,zero
9d00ec1c:	03e00008 	jr	ra
9d00ec20:	00000000 	nop
9d00ec24:	03e00008 	jr	ra
9d00ec28:	00000000 	nop

9d00ec2c <__umodsi3>:
9d00ec2c:	00a4182b 	sltu	v1,a1,a0
9d00ec30:	1060007e 	beqz	v1,9d00ee2c <__umodsi3+0x200>
9d00ec34:	00801021 	move	v0,a0
9d00ec38:	04a20046 	bltzl	a1,9d00ed54 <__umodsi3+0x128>
9d00ec3c:	24190001 	li	t9,1
9d00ec40:	00052840 	sll	a1,a1,0x1
9d00ec44:	00a4202b 	sltu	a0,a1,a0
9d00ec48:	10800042 	beqz	a0,9d00ed54 <__umodsi3+0x128>
9d00ec4c:	24190002 	li	t9,2
9d00ec50:	04a00040 	bltz	a1,9d00ed54 <__umodsi3+0x128>
9d00ec54:	2403001f 	li	v1,31
9d00ec58:	00052840 	sll	a1,a1,0x1
9d00ec5c:	00a2302b 	sltu	a2,a1,v0
9d00ec60:	10c0006e 	beqz	a2,9d00ee1c <__umodsi3+0x1f0>
9d00ec64:	0019c840 	sll	t9,t9,0x1
9d00ec68:	2467ffff 	addiu	a3,v1,-1
9d00ec6c:	10e00071 	beqz	a3,9d00ee34 <__umodsi3+0x208>
9d00ec70:	00000000 	nop
9d00ec74:	04a00038 	bltz	a1,9d00ed58 <__umodsi3+0x12c>
9d00ec78:	00452023 	subu	a0,v0,a1
9d00ec7c:	00052840 	sll	a1,a1,0x1
9d00ec80:	00a2402b 	sltu	t0,a1,v0
9d00ec84:	11000065 	beqz	t0,9d00ee1c <__umodsi3+0x1f0>
9d00ec88:	0019c840 	sll	t9,t9,0x1
9d00ec8c:	04a00032 	bltz	a1,9d00ed58 <__umodsi3+0x12c>
9d00ec90:	00452023 	subu	a0,v0,a1
9d00ec94:	00052840 	sll	a1,a1,0x1
9d00ec98:	00a2482b 	sltu	t1,a1,v0
9d00ec9c:	1120005f 	beqz	t1,9d00ee1c <__umodsi3+0x1f0>
9d00eca0:	0019c840 	sll	t9,t9,0x1
9d00eca4:	04a0002c 	bltz	a1,9d00ed58 <__umodsi3+0x12c>
9d00eca8:	00452023 	subu	a0,v0,a1
9d00ecac:	00052840 	sll	a1,a1,0x1
9d00ecb0:	00a2502b 	sltu	t2,a1,v0
9d00ecb4:	11400059 	beqz	t2,9d00ee1c <__umodsi3+0x1f0>
9d00ecb8:	0019c840 	sll	t9,t9,0x1
9d00ecbc:	04a00026 	bltz	a1,9d00ed58 <__umodsi3+0x12c>
9d00ecc0:	00452023 	subu	a0,v0,a1
9d00ecc4:	00052840 	sll	a1,a1,0x1
9d00ecc8:	00a2582b 	sltu	t3,a1,v0
9d00eccc:	11600053 	beqz	t3,9d00ee1c <__umodsi3+0x1f0>
9d00ecd0:	0019c840 	sll	t9,t9,0x1
9d00ecd4:	04a00020 	bltz	a1,9d00ed58 <__umodsi3+0x12c>
9d00ecd8:	00452023 	subu	a0,v0,a1
9d00ecdc:	00052840 	sll	a1,a1,0x1
9d00ece0:	00a2602b 	sltu	t4,a1,v0
9d00ece4:	1180004d 	beqz	t4,9d00ee1c <__umodsi3+0x1f0>
9d00ece8:	0019c840 	sll	t9,t9,0x1
9d00ecec:	04a0001a 	bltz	a1,9d00ed58 <__umodsi3+0x12c>
9d00ecf0:	00452023 	subu	a0,v0,a1
9d00ecf4:	00052840 	sll	a1,a1,0x1
9d00ecf8:	00a2682b 	sltu	t5,a1,v0
9d00ecfc:	11a00047 	beqz	t5,9d00ee1c <__umodsi3+0x1f0>
9d00ed00:	0019c840 	sll	t9,t9,0x1
9d00ed04:	04a00014 	bltz	a1,9d00ed58 <__umodsi3+0x12c>
9d00ed08:	00452023 	subu	a0,v0,a1
9d00ed0c:	00052840 	sll	a1,a1,0x1
9d00ed10:	00a2702b 	sltu	t6,a1,v0
9d00ed14:	11c00041 	beqz	t6,9d00ee1c <__umodsi3+0x1f0>
9d00ed18:	0019c840 	sll	t9,t9,0x1
9d00ed1c:	04a0000e 	bltz	a1,9d00ed58 <__umodsi3+0x12c>
9d00ed20:	00452023 	subu	a0,v0,a1
9d00ed24:	00052840 	sll	a1,a1,0x1
9d00ed28:	00a2782b 	sltu	t7,a1,v0
9d00ed2c:	11e0003b 	beqz	t7,9d00ee1c <__umodsi3+0x1f0>
9d00ed30:	0019c840 	sll	t9,t9,0x1
9d00ed34:	04a00008 	bltz	a1,9d00ed58 <__umodsi3+0x12c>
9d00ed38:	00452023 	subu	a0,v0,a1
9d00ed3c:	00052840 	sll	a1,a1,0x1
9d00ed40:	00a2c02b 	sltu	t8,a1,v0
9d00ed44:	13000035 	beqz	t8,9d00ee1c <__umodsi3+0x1f0>
9d00ed48:	0019c840 	sll	t9,t9,0x1
9d00ed4c:	04a1ffc2 	bgez	a1,9d00ec58 <__umodsi3+0x2c>
9d00ed50:	24e3fff7 	addiu	v1,a3,-9
9d00ed54:	00452023 	subu	a0,v0,a1
9d00ed58:	0045382b 	sltu	a3,v0,a1
9d00ed5c:	00193042 	srl	a2,t9,0x1
9d00ed60:	00194082 	srl	t0,t9,0x2
9d00ed64:	001948c2 	srl	t1,t9,0x3
9d00ed68:	00195102 	srl	t2,t9,0x4
9d00ed6c:	00195942 	srl	t3,t9,0x5
9d00ed70:	00196982 	srl	t5,t9,0x6
9d00ed74:	001961c2 	srl	t4,t9,0x7
9d00ed78:	0087100a 	movz	v0,a0,a3
9d00ed7c:	0019ca02 	srl	t9,t9,0x8
9d00ed80:	10c00024 	beqz	a2,9d00ee14 <__umodsi3+0x1e8>
9d00ed84:	00057042 	srl	t6,a1,0x1
9d00ed88:	004e7823 	subu	t7,v0,t6
9d00ed8c:	004ec02b 	sltu	t8,v0,t6
9d00ed90:	01f8100a 	movz	v0,t7,t8
9d00ed94:	1100001f 	beqz	t0,9d00ee14 <__umodsi3+0x1e8>
9d00ed98:	00051882 	srl	v1,a1,0x2
9d00ed9c:	00433823 	subu	a3,v0,v1
9d00eda0:	0043202b 	sltu	a0,v0,v1
9d00eda4:	00e4100a 	movz	v0,a3,a0
9d00eda8:	1120001a 	beqz	t1,9d00ee14 <__umodsi3+0x1e8>
9d00edac:	000540c2 	srl	t0,a1,0x3
9d00edb0:	00483023 	subu	a2,v0,t0
9d00edb4:	0048482b 	sltu	t1,v0,t0
9d00edb8:	00c9100a 	movz	v0,a2,t1
9d00edbc:	11400015 	beqz	t2,9d00ee14 <__umodsi3+0x1e8>
9d00edc0:	00057102 	srl	t6,a1,0x4
9d00edc4:	004e5023 	subu	t2,v0,t6
9d00edc8:	004e782b 	sltu	t7,v0,t6
9d00edcc:	014f100a 	movz	v0,t2,t7
9d00edd0:	11600010 	beqz	t3,9d00ee14 <__umodsi3+0x1e8>
9d00edd4:	0005c142 	srl	t8,a1,0x5
9d00edd8:	00585823 	subu	t3,v0,t8
9d00eddc:	0058182b 	sltu	v1,v0,t8
9d00ede0:	0163100a 	movz	v0,t3,v1
9d00ede4:	11a0000b 	beqz	t5,9d00ee14 <__umodsi3+0x1e8>
9d00ede8:	00053982 	srl	a3,a1,0x6
9d00edec:	00476823 	subu	t5,v0,a3
9d00edf0:	0047202b 	sltu	a0,v0,a3
9d00edf4:	01a4100a 	movz	v0,t5,a0
9d00edf8:	11800006 	beqz	t4,9d00ee14 <__umodsi3+0x1e8>
9d00edfc:	000541c2 	srl	t0,a1,0x7
9d00ee00:	00486023 	subu	t4,v0,t0
9d00ee04:	0048302b 	sltu	a2,v0,t0
9d00ee08:	0186100a 	movz	v0,t4,a2
9d00ee0c:	1720ffd1 	bnez	t9,9d00ed54 <__umodsi3+0x128>
9d00ee10:	00052a02 	srl	a1,a1,0x8
9d00ee14:	03e00008 	jr	ra
9d00ee18:	00000000 	nop
9d00ee1c:	5720ffce 	bnezl	t9,9d00ed58 <__umodsi3+0x12c>
9d00ee20:	00452023 	subu	a0,v0,a1
9d00ee24:	03e00008 	jr	ra
9d00ee28:	00000000 	nop
9d00ee2c:	1000ffc9 	b	9d00ed54 <__umodsi3+0x128>
9d00ee30:	24190001 	li	t9,1
9d00ee34:	03e00008 	jr	ra
9d00ee38:	00000000 	nop

9d00ee3c <__ashldi3>:
9d00ee3c:	10c0000b 	beqz	a2,9d00ee6c <__ashldi3+0x30>
9d00ee40:	24070020 	li	a3,32
9d00ee44:	00e61023 	subu	v0,a3,a2
9d00ee48:	14400004 	bnez	v0,9d00ee5c <__ashldi3+0x20>
9d00ee4c:	00444006 	srlv	t0,a0,v0
9d00ee50:	00001021 	move	v0,zero
9d00ee54:	03e00008 	jr	ra
9d00ee58:	00801821 	move	v1,a0
9d00ee5c:	00c51804 	sllv	v1,a1,a2
9d00ee60:	00c41004 	sllv	v0,a0,a2
9d00ee64:	03e00008 	jr	ra
9d00ee68:	01031825 	or	v1,t0,v1
9d00ee6c:	00801021 	move	v0,a0
9d00ee70:	03e00008 	jr	ra
9d00ee74:	00a01821 	move	v1,a1

9d00ee78 <__ashrdi3>:
9d00ee78:	10c00007 	beqz	a2,9d00ee98 <__ashrdi3+0x20>
9d00ee7c:	00801021 	move	v0,a0
9d00ee80:	24020020 	li	v0,32
9d00ee84:	00461823 	subu	v1,v0,a2
9d00ee88:	14600005 	bnez	v1,9d00eea0 <__ashrdi3+0x28>
9d00ee8c:	00653804 	sllv	a3,a1,v1
9d00ee90:	00052fc3 	sra	a1,a1,0x1f
9d00ee94:	00801021 	move	v0,a0
9d00ee98:	03e00008 	jr	ra
9d00ee9c:	00a01821 	move	v1,a1
9d00eea0:	00c42006 	srlv	a0,a0,a2
9d00eea4:	00c52807 	srav	a1,a1,a2
9d00eea8:	00e42025 	or	a0,a3,a0
9d00eeac:	00801021 	move	v0,a0
9d00eeb0:	03e00008 	jr	ra
9d00eeb4:	00a01821 	move	v1,a1

9d00eeb8 <__lshrdi3>:
9d00eeb8:	10c0000b 	beqz	a2,9d00eee8 <__lshrdi3+0x30>
9d00eebc:	24070020 	li	a3,32
9d00eec0:	00e61023 	subu	v0,a3,a2
9d00eec4:	14400004 	bnez	v0,9d00eed8 <__lshrdi3+0x20>
9d00eec8:	00454004 	sllv	t0,a1,v0
9d00eecc:	00001821 	move	v1,zero
9d00eed0:	03e00008 	jr	ra
9d00eed4:	00a01021 	move	v0,a1
9d00eed8:	00c42006 	srlv	a0,a0,a2
9d00eedc:	00c51806 	srlv	v1,a1,a2
9d00eee0:	03e00008 	jr	ra
9d00eee4:	01041025 	or	v0,t0,a0
9d00eee8:	00801021 	move	v0,a0
9d00eeec:	03e00008 	jr	ra
9d00eef0:	00a01821 	move	v1,a1

9d00eef4 <__udivmoddi4>:
9d00eef4:	00c77025 	or	t6,a2,a3
9d00eef8:	11c0003f 	beqz	t6,9d00eff8 <__udivmoddi4+0x104>
9d00eefc:	8fad0010 	lw	t5,16(sp)
9d00ef00:	04e00065 	bltz	a3,9d00f098 <__udivmoddi4+0x1a4>
9d00ef04:	24080001 	li	t0,1
9d00ef08:	00005821 	move	t3,zero
9d00ef0c:	000657c2 	srl	t2,a2,0x1f
9d00ef10:	00073840 	sll	a3,a3,0x1
9d00ef14:	000817c2 	srl	v0,t0,0x1f
9d00ef18:	000b4840 	sll	t1,t3,0x1
9d00ef1c:	01473825 	or	a3,t2,a3
9d00ef20:	00063040 	sll	a2,a2,0x1
9d00ef24:	00494825 	or	t1,v0,t1
9d00ef28:	04e10039 	bgez	a3,9d00f010 <__udivmoddi4+0x11c>
9d00ef2c:	00084040 	sll	t0,t0,0x1
9d00ef30:	01096025 	or	t4,t0,t1
9d00ef34:	11800054 	beqz	t4,9d00f088 <__udivmoddi4+0x194>
9d00ef38:	0080c821 	move	t9,a0
9d00ef3c:	00001021 	move	v0,zero
9d00ef40:	00001821 	move	v1,zero
9d00ef44:	00865823 	subu	t3,a0,a2
9d00ef48:	01027021 	addu	t6,t0,v0
9d00ef4c:	008bc82b 	sltu	t9,a0,t3
9d00ef50:	00a75023 	subu	t2,a1,a3
9d00ef54:	01c8602b 	sltu	t4,t6,t0
9d00ef58:	01237821 	addu	t7,t1,v1
9d00ef5c:	00a7c02b 	sltu	t8,a1,a3
9d00ef60:	01595023 	subu	t2,t2,t9
9d00ef64:	17000021 	bnez	t8,9d00efec <__udivmoddi4+0xf8>
9d00ef68:	018f6021 	addu	t4,t4,t7
9d00ef6c:	10e5001d 	beq	a3,a1,9d00efe4 <__udivmoddi4+0xf0>
9d00ef70:	0086c82b 	sltu	t9,a0,a2
9d00ef74:	0160c821 	move	t9,t3
9d00ef78:	17000018 	bnez	t8,9d00efdc <__udivmoddi4+0xe8>
9d00ef7c:	01407821 	move	t7,t2
9d00ef80:	10e50014 	beq	a3,a1,9d00efd4 <__udivmoddi4+0xe0>
9d00ef84:	0086202b 	sltu	a0,a0,a2
9d00ef88:	01801821 	move	v1,t4
9d00ef8c:	00092fc0 	sll	a1,t1,0x1f
9d00ef90:	00081042 	srl	v0,t0,0x1
9d00ef94:	00a24025 	or	t0,a1,v0
9d00ef98:	00094842 	srl	t1,t1,0x1
9d00ef9c:	0007c7c0 	sll	t8,a3,0x1f
9d00efa0:	00063042 	srl	a2,a2,0x1
9d00efa4:	01096025 	or	t4,t0,t1
9d00efa8:	01c01021 	move	v0,t6
9d00efac:	03063025 	or	a2,t8,a2
9d00efb0:	00073842 	srl	a3,a3,0x1
9d00efb4:	01602021 	move	a0,t3
9d00efb8:	1580ffe2 	bnez	t4,9d00ef44 <__udivmoddi4+0x50>
9d00efbc:	01402821 	move	a1,t2
9d00efc0:	11a00011 	beqz	t5,9d00f008 <__udivmoddi4+0x114>
9d00efc4:	00000000 	nop
9d00efc8:	adb90000 	sw	t9,0(t5)
9d00efcc:	03e00008 	jr	ra
9d00efd0:	adaf0004 	sw	t7,4(t5)
9d00efd4:	5080ffed 	beqzl	a0,9d00ef8c <__udivmoddi4+0x98>
9d00efd8:	01801821 	move	v1,t4
9d00efdc:	1000ffeb 	b	9d00ef8c <__udivmoddi4+0x98>
9d00efe0:	00407021 	move	t6,v0
9d00efe4:	1320ffe4 	beqz	t9,9d00ef78 <__udivmoddi4+0x84>
9d00efe8:	0160c821 	move	t9,t3
9d00efec:	00805821 	move	t3,a0
9d00eff0:	1000ffe0 	b	9d00ef74 <__udivmoddi4+0x80>
9d00eff4:	00a05021 	move	t2,a1
9d00eff8:	240d0001 	li	t5,1
9d00effc:	01ae001b 	divu	zero,t5,t6
9d00f000:	00001821 	move	v1,zero
9d00f004:	00001012 	mflo	v0
9d00f008:	03e00008 	jr	ra
9d00f00c:	00000000 	nop
9d00f010:	00061fc2 	srl	v1,a2,0x1f
9d00f014:	00075840 	sll	t3,a3,0x1
9d00f018:	000867c2 	srl	t4,t0,0x1f
9d00f01c:	00097840 	sll	t7,t1,0x1
9d00f020:	006b3825 	or	a3,v1,t3
9d00f024:	00063040 	sll	a2,a2,0x1
9d00f028:	018f4825 	or	t1,t4,t7
9d00f02c:	04e0ffc0 	bltz	a3,9d00ef30 <__udivmoddi4+0x3c>
9d00f030:	00084040 	sll	t0,t0,0x1
9d00f034:	0006c7c2 	srl	t8,a2,0x1f
9d00f038:	0007c840 	sll	t9,a3,0x1
9d00f03c:	000877c2 	srl	t6,t0,0x1f
9d00f040:	00095040 	sll	t2,t1,0x1
9d00f044:	03193825 	or	a3,t8,t9
9d00f048:	00063040 	sll	a2,a2,0x1
9d00f04c:	01ca4825 	or	t1,t6,t2
9d00f050:	04e0ffb7 	bltz	a3,9d00ef30 <__udivmoddi4+0x3c>
9d00f054:	00084040 	sll	t0,t0,0x1
9d00f058:	00061fc2 	srl	v1,a2,0x1f
9d00f05c:	000817c2 	srl	v0,t0,0x1f
9d00f060:	00073840 	sll	a3,a3,0x1
9d00f064:	00094840 	sll	t1,t1,0x1
9d00f068:	00494825 	or	t1,v0,t1
9d00f06c:	00673825 	or	a3,v1,a3
9d00f070:	00063040 	sll	a2,a2,0x1
9d00f074:	00084040 	sll	t0,t0,0x1
9d00f078:	04e0ffad 	bltz	a3,9d00ef30 <__udivmoddi4+0x3c>
9d00f07c:	01205821 	move	t3,t1
9d00f080:	1000ffa3 	b	9d00ef10 <__udivmoddi4+0x1c>
9d00f084:	000657c2 	srl	t2,a2,0x1f
9d00f088:	00a07821 	move	t7,a1
9d00f08c:	00001021 	move	v0,zero
9d00f090:	1000ffcb 	b	9d00efc0 <__udivmoddi4+0xcc>
9d00f094:	00001821 	move	v1,zero
9d00f098:	1000ffa8 	b	9d00ef3c <__udivmoddi4+0x48>
9d00f09c:	00004821 	move	t1,zero

9d00f0a0 <__umoddi3>:
9d00f0a0:	00c74025 	or	t0,a2,a3
9d00f0a4:	55000003 	bnezl	t0,9d00f0b4 <__umoddi3+0x14>
9d00f0a8:	24080001 	li	t0,1
9d00f0ac:	03e00008 	jr	ra
9d00f0b0:	00000000 	nop
9d00f0b4:	04e0000e 	bltz	a3,9d00f0f0 <__umoddi3+0x50>
9d00f0b8:	00007021 	move	t6,zero
9d00f0bc:	00064fc2 	srl	t1,a2,0x1f
9d00f0c0:	00081fc2 	srl	v1,t0,0x1f
9d00f0c4:	000e1040 	sll	v0,t6,0x1
9d00f0c8:	00073840 	sll	a3,a3,0x1
9d00f0cc:	00625025 	or	t2,v1,v0
9d00f0d0:	01273825 	or	a3,t1,a3
9d00f0d4:	00063040 	sll	a2,a2,0x1
9d00f0d8:	00084040 	sll	t0,t0,0x1
9d00f0dc:	04e10020 	bgez	a3,9d00f160 <__umoddi3+0xc0>
9d00f0e0:	01407021 	move	t6,t2
9d00f0e4:	010a5825 	or	t3,t0,t2
9d00f0e8:	1160003d 	beqz	t3,9d00f1e0 <__umoddi3+0x140>
9d00f0ec:	00801021 	move	v0,a0
9d00f0f0:	00801021 	move	v0,a0
9d00f0f4:	00a01821 	move	v1,a1
9d00f0f8:	000e27c0 	sll	a0,t6,0x1f
9d00f0fc:	00086042 	srl	t4,t0,0x1
9d00f100:	00462823 	subu	a1,v0,a2
9d00f104:	008c4025 	or	t0,a0,t4
9d00f108:	000e7042 	srl	t6,t6,0x1
9d00f10c:	0045682b 	sltu	t5,v0,a1
9d00f110:	00677823 	subu	t7,v1,a3
9d00f114:	0067c02b 	sltu	t8,v1,a3
9d00f118:	0007cfc0 	sll	t9,a3,0x1f
9d00f11c:	00064842 	srl	t1,a2,0x1
9d00f120:	010e5025 	or	t2,t0,t6
9d00f124:	1700000c 	bnez	t8,9d00f158 <__umoddi3+0xb8>
9d00f128:	01ed5823 	subu	t3,t7,t5
9d00f12c:	10e30008 	beq	a3,v1,9d00f150 <__umoddi3+0xb0>
9d00f130:	0046302b 	sltu	a2,v0,a2
9d00f134:	01601821 	move	v1,t3
9d00f138:	00a01021 	move	v0,a1
9d00f13c:	03293025 	or	a2,t9,t1
9d00f140:	1540ffed 	bnez	t2,9d00f0f8 <__umoddi3+0x58>
9d00f144:	00073842 	srl	a3,a3,0x1
9d00f148:	03e00008 	jr	ra
9d00f14c:	00000000 	nop
9d00f150:	50c0fff9 	beqzl	a2,9d00f138 <__umoddi3+0x98>
9d00f154:	01601821 	move	v1,t3
9d00f158:	1000fff7 	b	9d00f138 <__umoddi3+0x98>
9d00f15c:	00402821 	move	a1,v0
9d00f160:	000657c2 	srl	t2,a2,0x1f
9d00f164:	000867c2 	srl	t4,t0,0x1f
9d00f168:	000e6840 	sll	t5,t6,0x1
9d00f16c:	00075840 	sll	t3,a3,0x1
9d00f170:	014b3825 	or	a3,t2,t3
9d00f174:	018d5025 	or	t2,t4,t5
9d00f178:	00063040 	sll	a2,a2,0x1
9d00f17c:	00084040 	sll	t0,t0,0x1
9d00f180:	04e0ffd8 	bltz	a3,9d00f0e4 <__umoddi3+0x44>
9d00f184:	01407021 	move	t6,t2
9d00f188:	00067fc2 	srl	t7,a2,0x1f
9d00f18c:	0008cfc2 	srl	t9,t0,0x1f
9d00f190:	000a7040 	sll	t6,t2,0x1
9d00f194:	0007c040 	sll	t8,a3,0x1
9d00f198:	032e5025 	or	t2,t9,t6
9d00f19c:	01f83825 	or	a3,t7,t8
9d00f1a0:	00063040 	sll	a2,a2,0x1
9d00f1a4:	00084040 	sll	t0,t0,0x1
9d00f1a8:	04e0ffce 	bltz	a3,9d00f0e4 <__umoddi3+0x44>
9d00f1ac:	01407021 	move	t6,t2
9d00f1b0:	00064fc2 	srl	t1,a2,0x1f
9d00f1b4:	00081fc2 	srl	v1,t0,0x1f
9d00f1b8:	00073840 	sll	a3,a3,0x1
9d00f1bc:	000a1040 	sll	v0,t2,0x1
9d00f1c0:	00625025 	or	t2,v1,v0
9d00f1c4:	01273825 	or	a3,t1,a3
9d00f1c8:	00063040 	sll	a2,a2,0x1
9d00f1cc:	00084040 	sll	t0,t0,0x1
9d00f1d0:	04e0ffc4 	bltz	a3,9d00f0e4 <__umoddi3+0x44>
9d00f1d4:	01407021 	move	t6,t2
9d00f1d8:	1000ffb9 	b	9d00f0c0 <__umoddi3+0x20>
9d00f1dc:	00064fc2 	srl	t1,a2,0x1f
9d00f1e0:	03e00008 	jr	ra
9d00f1e4:	00a01821 	move	v1,a1

9d00f1e8 <__udivdi3>:
9d00f1e8:	00c71825 	or	v1,a2,a3
9d00f1ec:	14600006 	bnez	v1,9d00f208 <__udivdi3+0x20>
9d00f1f0:	24080001 	li	t0,1
9d00f1f4:	24070001 	li	a3,1
9d00f1f8:	00e3001b 	divu	zero,a3,v1
9d00f1fc:	00001821 	move	v1,zero
9d00f200:	03e00008 	jr	ra
9d00f204:	00001012 	mflo	v0
9d00f208:	04e0000e 	bltz	a3,9d00f244 <__udivdi3+0x5c>
9d00f20c:	00004821 	move	t1,zero
9d00f210:	000657c2 	srl	t2,a2,0x1f
9d00f214:	000817c2 	srl	v0,t0,0x1f
9d00f218:	00094840 	sll	t1,t1,0x1
9d00f21c:	00073840 	sll	a3,a3,0x1
9d00f220:	00495825 	or	t3,v0,t1
9d00f224:	01473825 	or	a3,t2,a3
9d00f228:	00063040 	sll	a2,a2,0x1
9d00f22c:	00084040 	sll	t0,t0,0x1
9d00f230:	04e1002f 	bgez	a3,9d00f2f0 <__udivdi3+0x108>
9d00f234:	01604821 	move	t1,t3
9d00f238:	010b6025 	or	t4,t0,t3
9d00f23c:	1180004c 	beqz	t4,9d00f370 <__udivdi3+0x188>
9d00f240:	00001021 	move	v0,zero
9d00f244:	00001021 	move	v0,zero
9d00f248:	00001821 	move	v1,zero
9d00f24c:	00866023 	subu	t4,a0,a2
9d00f250:	00486821 	addu	t5,v0,t0
9d00f254:	008cc02b 	sltu	t8,a0,t4
9d00f258:	00a7c823 	subu	t9,a1,a3
9d00f25c:	01a2582b 	sltu	t3,t5,v0
9d00f260:	00697021 	addu	t6,v1,t1
9d00f264:	00a7782b 	sltu	t7,a1,a3
9d00f268:	03385023 	subu	t2,t9,t8
9d00f26c:	15e0001d 	bnez	t7,9d00f2e4 <__udivdi3+0xfc>
9d00f270:	016ec021 	addu	t8,t3,t6
9d00f274:	10e50019 	beq	a3,a1,9d00f2dc <__udivdi3+0xf4>
9d00f278:	0086c82b 	sltu	t9,a0,a2
9d00f27c:	55e00006 	bnezl	t7,9d00f298 <__udivdi3+0xb0>
9d00f280:	00092fc0 	sll	a1,t1,0x1f
9d00f284:	10e50011 	beq	a3,a1,9d00f2cc <__udivdi3+0xe4>
9d00f288:	0086202b 	sltu	a0,a0,a2
9d00f28c:	01a01021 	move	v0,t5
9d00f290:	03001821 	move	v1,t8
9d00f294:	00092fc0 	sll	a1,t1,0x1f
9d00f298:	00084042 	srl	t0,t0,0x1
9d00f29c:	00a84025 	or	t0,a1,t0
9d00f2a0:	00094842 	srl	t1,t1,0x1
9d00f2a4:	00076fc0 	sll	t5,a3,0x1f
9d00f2a8:	00063042 	srl	a2,a2,0x1
9d00f2ac:	01095825 	or	t3,t0,t1
9d00f2b0:	01a63025 	or	a2,t5,a2
9d00f2b4:	00073842 	srl	a3,a3,0x1
9d00f2b8:	01802021 	move	a0,t4
9d00f2bc:	1560ffe3 	bnez	t3,9d00f24c <__udivdi3+0x64>
9d00f2c0:	01402821 	move	a1,t2
9d00f2c4:	03e00008 	jr	ra
9d00f2c8:	00000000 	nop
9d00f2cc:	5480fff2 	bnezl	a0,9d00f298 <__udivdi3+0xb0>
9d00f2d0:	00092fc0 	sll	a1,t1,0x1f
9d00f2d4:	1000ffee 	b	9d00f290 <__udivdi3+0xa8>
9d00f2d8:	01a01021 	move	v0,t5
9d00f2dc:	1320ffe7 	beqz	t9,9d00f27c <__udivdi3+0x94>
9d00f2e0:	00000000 	nop
9d00f2e4:	00806021 	move	t4,a0
9d00f2e8:	1000ffe4 	b	9d00f27c <__udivdi3+0x94>
9d00f2ec:	00a05021 	move	t2,a1
9d00f2f0:	00065fc2 	srl	t3,a2,0x1f
9d00f2f4:	00086fc2 	srl	t5,t0,0x1f
9d00f2f8:	00097040 	sll	t6,t1,0x1
9d00f2fc:	00076040 	sll	t4,a3,0x1
9d00f300:	016c3825 	or	a3,t3,t4
9d00f304:	01ae5825 	or	t3,t5,t6
9d00f308:	00063040 	sll	a2,a2,0x1
9d00f30c:	00084040 	sll	t0,t0,0x1
9d00f310:	04e0ffc9 	bltz	a3,9d00f238 <__udivdi3+0x50>
9d00f314:	01604821 	move	t1,t3
9d00f318:	00067fc2 	srl	t7,a2,0x1f
9d00f31c:	0008cfc2 	srl	t9,t0,0x1f
9d00f320:	0007c040 	sll	t8,a3,0x1
9d00f324:	000b1840 	sll	v1,t3,0x1
9d00f328:	03235825 	or	t3,t9,v1
9d00f32c:	01f83825 	or	a3,t7,t8
9d00f330:	00063040 	sll	a2,a2,0x1
9d00f334:	00084040 	sll	t0,t0,0x1
9d00f338:	04e0ffbf 	bltz	a3,9d00f238 <__udivdi3+0x50>
9d00f33c:	01604821 	move	t1,t3
9d00f340:	000657c2 	srl	t2,a2,0x1f
9d00f344:	000817c2 	srl	v0,t0,0x1f
9d00f348:	000b4840 	sll	t1,t3,0x1
9d00f34c:	00073840 	sll	a3,a3,0x1
9d00f350:	00495825 	or	t3,v0,t1
9d00f354:	01473825 	or	a3,t2,a3
9d00f358:	00063040 	sll	a2,a2,0x1
9d00f35c:	00084040 	sll	t0,t0,0x1
9d00f360:	04e0ffb5 	bltz	a3,9d00f238 <__udivdi3+0x50>
9d00f364:	01604821 	move	t1,t3
9d00f368:	1000ffaa 	b	9d00f214 <__udivdi3+0x2c>
9d00f36c:	000657c2 	srl	t2,a2,0x1f
9d00f370:	03e00008 	jr	ra
9d00f374:	00001821 	move	v1,zero

9d00f378 <__moddi3>:
9d00f378:	27bdfff8 	addiu	sp,sp,-8
9d00f37c:	04a1004f 	bgez	a1,9d00f4bc <__moddi3+0x144>
9d00f380:	afb00004 	sw	s0,4(sp)
9d00f384:	00042023 	negu	a0,a0
9d00f388:	0004102b 	sltu	v0,zero,a0
9d00f38c:	00052823 	negu	a1,a1
9d00f390:	00a22823 	subu	a1,a1,v0
9d00f394:	240dffff 	li	t5,-1
9d00f398:	240effff 	li	t6,-1
9d00f39c:	24020001 	li	v0,1
9d00f3a0:	00007821 	move	t7,zero
9d00f3a4:	00006021 	move	t4,zero
9d00f3a8:	00005821 	move	t3,zero
9d00f3ac:	00005021 	move	t2,zero
9d00f3b0:	00001821 	move	v1,zero
9d00f3b4:	04e30036 	bgezl	a3,9d00f490 <__moddi3+0x118>
9d00f3b8:	00c74825 	or	t1,a2,a3
9d00f3bc:	00063023 	negu	a2,a2
9d00f3c0:	0006402b 	sltu	t0,zero,a2
9d00f3c4:	00073823 	negu	a3,a3
9d00f3c8:	00e83823 	subu	a3,a3,t0
9d00f3cc:	01806821 	move	t5,t4
9d00f3d0:	01607021 	move	t6,t3
9d00f3d4:	01401021 	move	v0,t2
9d00f3d8:	00607821 	move	t7,v1
9d00f3dc:	24080001 	li	t0,1
9d00f3e0:	04e0000e 	bltz	a3,9d00f41c <__moddi3+0xa4>
9d00f3e4:	00004821 	move	t1,zero
9d00f3e8:	000687c2 	srl	s0,a2,0x1f
9d00f3ec:	0008cfc2 	srl	t9,t0,0x1f
9d00f3f0:	00096040 	sll	t4,t1,0x1
9d00f3f4:	0007c040 	sll	t8,a3,0x1
9d00f3f8:	032cc825 	or	t9,t9,t4
9d00f3fc:	02183825 	or	a3,s0,t8
9d00f400:	00063040 	sll	a2,a2,0x1
9d00f404:	00084040 	sll	t0,t0,0x1
9d00f408:	04e10039 	bgez	a3,9d00f4f0 <__moddi3+0x178>
9d00f40c:	03204821 	move	t1,t9
9d00f410:	01198025 	or	s0,t0,t9
9d00f414:	52000016 	beqzl	s0,9d00f470 <__moddi3+0xf8>
9d00f418:	01a46826 	xor	t5,t5,a0
9d00f41c:	0009c7c0 	sll	t8,t1,0x1f
9d00f420:	00086042 	srl	t4,t0,0x1
9d00f424:	00865823 	subu	t3,a0,a2
9d00f428:	030c4025 	or	t0,t8,t4
9d00f42c:	00094842 	srl	t1,t1,0x1
9d00f430:	008b802b 	sltu	s0,a0,t3
9d00f434:	00a75023 	subu	t2,a1,a3
9d00f438:	00a7602b 	sltu	t4,a1,a3
9d00f43c:	0007cfc0 	sll	t9,a3,0x1f
9d00f440:	0006c042 	srl	t8,a2,0x1
9d00f444:	01091825 	or	v1,t0,t1
9d00f448:	15800005 	bnez	t4,9d00f460 <__moddi3+0xe8>
9d00f44c:	01508023 	subu	s0,t2,s0
9d00f450:	10e50023 	beq	a3,a1,9d00f4e0 <__moddi3+0x168>
9d00f454:	0086302b 	sltu	a2,a0,a2
9d00f458:	01602021 	move	a0,t3
9d00f45c:	02002821 	move	a1,s0
9d00f460:	03383025 	or	a2,t9,t8
9d00f464:	1460ffed 	bnez	v1,9d00f41c <__moddi3+0xa4>
9d00f468:	00073842 	srl	a3,a3,0x1
9d00f46c:	01a46826 	xor	t5,t5,a0
9d00f470:	01a21021 	addu	v0,t5,v0
9d00f474:	01c57026 	xor	t6,t6,a1
9d00f478:	004d382b 	sltu	a3,v0,t5
9d00f47c:	01cf7821 	addu	t7,t6,t7
9d00f480:	8fb00004 	lw	s0,4(sp)
9d00f484:	00ef1821 	addu	v1,a3,t7
9d00f488:	03e00008 	jr	ra
9d00f48c:	27bd0008 	addiu	sp,sp,8
9d00f490:	1520ffd3 	bnez	t1,9d00f3e0 <__moddi3+0x68>
9d00f494:	24080001 	li	t0,1
9d00f498:	01a46826 	xor	t5,t5,a0
9d00f49c:	01a21021 	addu	v0,t5,v0
9d00f4a0:	01c57026 	xor	t6,t6,a1
9d00f4a4:	004d382b 	sltu	a3,v0,t5
9d00f4a8:	01cf7821 	addu	t7,t6,t7
9d00f4ac:	8fb00004 	lw	s0,4(sp)
9d00f4b0:	00ef1821 	addu	v1,a3,t7
9d00f4b4:	03e00008 	jr	ra
9d00f4b8:	27bd0008 	addiu	sp,sp,8
9d00f4bc:	00006821 	move	t5,zero
9d00f4c0:	00007021 	move	t6,zero
9d00f4c4:	00001021 	move	v0,zero
9d00f4c8:	00007821 	move	t7,zero
9d00f4cc:	240cffff 	li	t4,-1
9d00f4d0:	240bffff 	li	t3,-1
9d00f4d4:	240a0001 	li	t2,1
9d00f4d8:	1000ffb6 	b	9d00f3b4 <__moddi3+0x3c>
9d00f4dc:	00001821 	move	v1,zero
9d00f4e0:	14c0ffe0 	bnez	a2,9d00f464 <__moddi3+0xec>
9d00f4e4:	03383025 	or	a2,t9,t8
9d00f4e8:	1000ffdc 	b	9d00f45c <__moddi3+0xe4>
9d00f4ec:	01602021 	move	a0,t3
9d00f4f0:	00065fc2 	srl	t3,a2,0x1f
9d00f4f4:	000857c2 	srl	t2,t0,0x1f
9d00f4f8:	00194840 	sll	t1,t9,0x1
9d00f4fc:	00071840 	sll	v1,a3,0x1
9d00f500:	0149c825 	or	t9,t2,t1
9d00f504:	01633825 	or	a3,t3,v1
9d00f508:	00063040 	sll	a2,a2,0x1
9d00f50c:	00084040 	sll	t0,t0,0x1
9d00f510:	04e0ffbf 	bltz	a3,9d00f410 <__moddi3+0x98>
9d00f514:	03204821 	move	t1,t9
9d00f518:	000687c2 	srl	s0,a2,0x1f
9d00f51c:	0008c7c2 	srl	t8,t0,0x1f
9d00f520:	00073840 	sll	a3,a3,0x1
9d00f524:	0019c840 	sll	t9,t9,0x1
9d00f528:	0319c825 	or	t9,t8,t9
9d00f52c:	02073825 	or	a3,s0,a3
9d00f530:	00063040 	sll	a2,a2,0x1
9d00f534:	00084040 	sll	t0,t0,0x1
9d00f538:	04e0ffb5 	bltz	a3,9d00f410 <__moddi3+0x98>
9d00f53c:	03204821 	move	t1,t9
9d00f540:	000667c2 	srl	t4,a2,0x1f
9d00f544:	00081fc2 	srl	v1,t0,0x1f
9d00f548:	00075840 	sll	t3,a3,0x1
9d00f54c:	00195040 	sll	t2,t9,0x1
9d00f550:	006ac825 	or	t9,v1,t2
9d00f554:	018b3825 	or	a3,t4,t3
9d00f558:	00063040 	sll	a2,a2,0x1
9d00f55c:	00084040 	sll	t0,t0,0x1
9d00f560:	04e0ffab 	bltz	a3,9d00f410 <__moddi3+0x98>
9d00f564:	03204821 	move	t1,t9
9d00f568:	1000ffa0 	b	9d00f3ec <__moddi3+0x74>
9d00f56c:	000687c2 	srl	s0,a2,0x1f

9d00f570 <__divdi3>:
9d00f570:	27bdfff0 	addiu	sp,sp,-16
9d00f574:	afb2000c 	sw	s2,12(sp)
9d00f578:	afb10008 	sw	s1,8(sp)
9d00f57c:	04a10068 	bgez	a1,9d00f720 <__divdi3+0x1b0>
9d00f580:	afb00004 	sw	s0,4(sp)
9d00f584:	00042023 	negu	a0,a0
9d00f588:	0004102b 	sltu	v0,zero,a0
9d00f58c:	00052823 	negu	a1,a1
9d00f590:	00a22823 	subu	a1,a1,v0
9d00f594:	240fffff 	li	t7,-1
9d00f598:	240effff 	li	t6,-1
9d00f59c:	24020001 	li	v0,1
9d00f5a0:	00001821 	move	v1,zero
9d00f5a4:	00005821 	move	t3,zero
9d00f5a8:	00005021 	move	t2,zero
9d00f5ac:	00004821 	move	t1,zero
9d00f5b0:	00004021 	move	t0,zero
9d00f5b4:	04e1004a 	bgez	a3,9d00f6e0 <__divdi3+0x170>
9d00f5b8:	00c76825 	or	t5,a2,a3
9d00f5bc:	00063023 	negu	a2,a2
9d00f5c0:	0006602b 	sltu	t4,zero,a2
9d00f5c4:	00073823 	negu	a3,a3
9d00f5c8:	00ec3823 	subu	a3,a3,t4
9d00f5cc:	01607821 	move	t7,t3
9d00f5d0:	01407021 	move	t6,t2
9d00f5d4:	01201021 	move	v0,t1
9d00f5d8:	01001821 	move	v1,t0
9d00f5dc:	24080001 	li	t0,1
9d00f5e0:	04e0000e 	bltz	a3,9d00f61c <__divdi3+0xac>
9d00f5e4:	00004821 	move	t1,zero
9d00f5e8:	000687c2 	srl	s0,a2,0x1f
9d00f5ec:	000897c2 	srl	s2,t0,0x1f
9d00f5f0:	0009c040 	sll	t8,t1,0x1
9d00f5f4:	00078840 	sll	s1,a3,0x1
9d00f5f8:	02585825 	or	t3,s2,t8
9d00f5fc:	02113825 	or	a3,s0,s1
9d00f600:	00063040 	sll	a2,a2,0x1
9d00f604:	00084040 	sll	t0,t0,0x1
9d00f608:	04e10058 	bgez	a3,9d00f76c <__divdi3+0x1fc>
9d00f60c:	01604821 	move	t1,t3
9d00f610:	010b5025 	or	t2,t0,t3
9d00f614:	11400075 	beqz	t2,9d00f7ec <__divdi3+0x27c>
9d00f618:	00005021 	move	t2,zero
9d00f61c:	00008821 	move	s1,zero
9d00f620:	00008021 	move	s0,zero
9d00f624:	0086c823 	subu	t9,a0,a2
9d00f628:	01115021 	addu	t2,t0,s1
9d00f62c:	0099902b 	sltu	s2,a0,t9
9d00f630:	00a76823 	subu	t5,a1,a3
9d00f634:	0148602b 	sltu	t4,t2,t0
9d00f638:	01305821 	addu	t3,t1,s0
9d00f63c:	00a7c02b 	sltu	t8,a1,a3
9d00f640:	01b29023 	subu	s2,t5,s2
9d00f644:	1700001f 	bnez	t8,9d00f6c4 <__divdi3+0x154>
9d00f648:	018b5821 	addu	t3,t4,t3
9d00f64c:	10e5003d 	beq	a3,a1,9d00f744 <__divdi3+0x1d4>
9d00f650:	0086682b 	sltu	t5,a0,a2
9d00f654:	1700001f 	bnez	t8,9d00f6d4 <__divdi3+0x164>
9d00f658:	02406021 	move	t4,s2
9d00f65c:	10e5003e 	beq	a3,a1,9d00f758 <__divdi3+0x1e8>
9d00f660:	0086202b 	sltu	a0,a0,a2
9d00f664:	00092fc0 	sll	a1,t1,0x1f
9d00f668:	00088042 	srl	s0,t0,0x1
9d00f66c:	00b04025 	or	t0,a1,s0
9d00f670:	00094842 	srl	t1,t1,0x1
9d00f674:	0007c7c0 	sll	t8,a3,0x1f
9d00f678:	00063042 	srl	a2,a2,0x1
9d00f67c:	01099025 	or	s2,t0,t1
9d00f680:	01408821 	move	s1,t2
9d00f684:	01608021 	move	s0,t3
9d00f688:	03063025 	or	a2,t8,a2
9d00f68c:	00073842 	srl	a3,a3,0x1
9d00f690:	03202021 	move	a0,t9
9d00f694:	12400017 	beqz	s2,9d00f6f4 <__divdi3+0x184>
9d00f698:	01802821 	move	a1,t4
9d00f69c:	0086c823 	subu	t9,a0,a2
9d00f6a0:	01115021 	addu	t2,t0,s1
9d00f6a4:	0099902b 	sltu	s2,a0,t9
9d00f6a8:	00a76823 	subu	t5,a1,a3
9d00f6ac:	0148602b 	sltu	t4,t2,t0
9d00f6b0:	01305821 	addu	t3,t1,s0
9d00f6b4:	00a7c02b 	sltu	t8,a1,a3
9d00f6b8:	01b29023 	subu	s2,t5,s2
9d00f6bc:	1300ffe3 	beqz	t8,9d00f64c <__divdi3+0xdc>
9d00f6c0:	018b5821 	addu	t3,t4,t3
9d00f6c4:	0080c821 	move	t9,a0
9d00f6c8:	00a06021 	move	t4,a1
9d00f6cc:	1300ffe3 	beqz	t8,9d00f65c <__divdi3+0xec>
9d00f6d0:	00000000 	nop
9d00f6d4:	02205021 	move	t2,s1
9d00f6d8:	1000ffe2 	b	9d00f664 <__divdi3+0xf4>
9d00f6dc:	02005821 	move	t3,s0
9d00f6e0:	15a0ffbe 	bnez	t5,9d00f5dc <__divdi3+0x6c>
9d00f6e4:	00005821 	move	t3,zero
9d00f6e8:	24070001 	li	a3,1
9d00f6ec:	00ed001b 	divu	zero,a3,t5
9d00f6f0:	00005012 	mflo	t2
9d00f6f4:	014f7826 	xor	t7,t2,t7
9d00f6f8:	01e21021 	addu	v0,t7,v0
9d00f6fc:	016e7026 	xor	t6,t3,t6
9d00f700:	004f402b 	sltu	t0,v0,t7
9d00f704:	01c31821 	addu	v1,t6,v1
9d00f708:	8fb2000c 	lw	s2,12(sp)
9d00f70c:	8fb10008 	lw	s1,8(sp)
9d00f710:	8fb00004 	lw	s0,4(sp)
9d00f714:	01031821 	addu	v1,t0,v1
9d00f718:	03e00008 	jr	ra
9d00f71c:	27bd0010 	addiu	sp,sp,16
9d00f720:	00007821 	move	t7,zero
9d00f724:	00007021 	move	t6,zero
9d00f728:	00001021 	move	v0,zero
9d00f72c:	00001821 	move	v1,zero
9d00f730:	240bffff 	li	t3,-1
9d00f734:	240affff 	li	t2,-1
9d00f738:	24090001 	li	t1,1
9d00f73c:	1000ff9d 	b	9d00f5b4 <__divdi3+0x44>
9d00f740:	00004021 	move	t0,zero
9d00f744:	11a0ffc3 	beqz	t5,9d00f654 <__divdi3+0xe4>
9d00f748:	00000000 	nop
9d00f74c:	0080c821 	move	t9,a0
9d00f750:	1000ffde 	b	9d00f6cc <__divdi3+0x15c>
9d00f754:	00a06021 	move	t4,a1
9d00f758:	5080ffc3 	beqzl	a0,9d00f668 <__divdi3+0xf8>
9d00f75c:	00092fc0 	sll	a1,t1,0x1f
9d00f760:	02205021 	move	t2,s1
9d00f764:	1000ffbf 	b	9d00f664 <__divdi3+0xf4>
9d00f768:	02005821 	move	t3,s0
9d00f76c:	0006cfc2 	srl	t9,a2,0x1f
9d00f770:	00075840 	sll	t3,a3,0x1
9d00f774:	000857c2 	srl	t2,t0,0x1f
9d00f778:	00094840 	sll	t1,t1,0x1
9d00f77c:	032b3825 	or	a3,t9,t3
9d00f780:	01495825 	or	t3,t2,t1
9d00f784:	00063040 	sll	a2,a2,0x1
9d00f788:	00084040 	sll	t0,t0,0x1
9d00f78c:	04e0ffa0 	bltz	a3,9d00f610 <__divdi3+0xa0>
9d00f790:	01604821 	move	t1,t3
9d00f794:	000667c2 	srl	t4,a2,0x1f
9d00f798:	00086fc2 	srl	t5,t0,0x1f
9d00f79c:	00073840 	sll	a3,a3,0x1
9d00f7a0:	000b8040 	sll	s0,t3,0x1
9d00f7a4:	01b05825 	or	t3,t5,s0
9d00f7a8:	01873825 	or	a3,t4,a3
9d00f7ac:	00063040 	sll	a2,a2,0x1
9d00f7b0:	00084040 	sll	t0,t0,0x1
9d00f7b4:	04e0ff96 	bltz	a3,9d00f610 <__divdi3+0xa0>
9d00f7b8:	01604821 	move	t1,t3
9d00f7bc:	00068fc2 	srl	s1,a2,0x1f
9d00f7c0:	0008c7c2 	srl	t8,t0,0x1f
9d00f7c4:	00079040 	sll	s2,a3,0x1
9d00f7c8:	000bc840 	sll	t9,t3,0x1
9d00f7cc:	03195825 	or	t3,t8,t9
9d00f7d0:	02323825 	or	a3,s1,s2
9d00f7d4:	00063040 	sll	a2,a2,0x1
9d00f7d8:	00084040 	sll	t0,t0,0x1
9d00f7dc:	04e0ff8c 	bltz	a3,9d00f610 <__divdi3+0xa0>
9d00f7e0:	01604821 	move	t1,t3
9d00f7e4:	1000ff81 	b	9d00f5ec <__divdi3+0x7c>
9d00f7e8:	000687c2 	srl	s0,a2,0x1f
9d00f7ec:	1000ffc1 	b	9d00f6f4 <__divdi3+0x184>
9d00f7f0:	00005821 	move	t3,zero

9d00f7f4 <HeapInit>:
9d00f7f4:	3c038000 	lui	v1,0x8000
9d00f7f8:	8c620048 	lw	v0,72(v1)
9d00f7fc:	1040000b 	beqz	v0,9d00f82c <HeapInit+0x38>
9d00f800:	3c0b8000 	lui	t3,0x8000
9d00f804:	3c048000 	lui	a0,0x8000
9d00f808:	2486003c 	addiu	a2,a0,60
9d00f80c:	3c058000 	lui	a1,0x8000
9d00f810:	8ca90044 	lw	t1,68(a1)
9d00f814:	8c87003c 	lw	a3,60(a0)
9d00f818:	8cc80004 	lw	t0,4(a2)
9d00f81c:	ac690048 	sw	t1,72(v1)
9d00f820:	ad270000 	sw	a3,0(t1)
9d00f824:	03e00008 	jr	ra
9d00f828:	ad280004 	sw	t0,4(t1)
9d00f82c:	24aa0007 	addiu	t2,a1,7
9d00f830:	000a60c2 	srl	t4,t2,0x3
9d00f834:	256d003c 	addiu	t5,t3,60
9d00f838:	00804821 	move	t1,a0
9d00f83c:	3c0e8000 	lui	t6,0x8000
9d00f840:	ac8c0004 	sw	t4,4(a0)
9d00f844:	ac840000 	sw	a0,0(a0)
9d00f848:	adc40044 	sw	a0,68(t6)
9d00f84c:	ad64003c 	sw	a0,60(t3)
9d00f850:	adac0004 	sw	t4,4(t5)
9d00f854:	03e00008 	jr	ra
9d00f858:	ac690048 	sw	t1,72(v1)

9d00f85c <malloc>:
9d00f85c:	3c088000 	lui	t0,0x8000
9d00f860:	8d070048 	lw	a3,72(t0)
9d00f864:	24840007 	addiu	a0,a0,7
9d00f868:	000410c2 	srl	v0,a0,0x3
9d00f86c:	10e0000f 	beqz	a3,9d00f8ac <malloc+0x50>
9d00f870:	244b0001 	addiu	t3,v0,1
9d00f874:	8ce30000 	lw	v1,0(a3)
9d00f878:	8c650004 	lw	a1,4(v1)
9d00f87c:	00ab302b 	sltu	a2,a1,t3
9d00f880:	14c00008 	bnez	a2,9d00f8a4 <malloc+0x48>
9d00f884:	00604821 	move	t1,v1
9d00f888:	1000000a 	b	9d00f8b4 <malloc+0x58>
9d00f88c:	00e01821 	move	v1,a3
9d00f890:	8d250004 	lw	a1,4(t1)
9d00f894:	00ab502b 	sltu	t2,a1,t3
9d00f898:	11400006 	beqz	t2,9d00f8b4 <malloc+0x58>
9d00f89c:	00000000 	nop
9d00f8a0:	01201821 	move	v1,t1
9d00f8a4:	54e3fffa 	bnel	a3,v1,9d00f890 <malloc+0x34>
9d00f8a8:	8c690000 	lw	t1,0(v1)
9d00f8ac:	03e00008 	jr	ra
9d00f8b0:	00001021 	move	v0,zero
9d00f8b4:	11650008 	beq	t3,a1,9d00f8d8 <malloc+0x7c>
9d00f8b8:	00ab6023 	subu	t4,a1,t3
9d00f8bc:	000c68c0 	sll	t5,t4,0x3
9d00f8c0:	ad2c0004 	sw	t4,4(t1)
9d00f8c4:	012d4821 	addu	t1,t1,t5
9d00f8c8:	ad2b0004 	sw	t3,4(t1)
9d00f8cc:	ad030048 	sw	v1,72(t0)
9d00f8d0:	03e00008 	jr	ra
9d00f8d4:	25220008 	addiu	v0,t1,8
9d00f8d8:	8d2e0000 	lw	t6,0(t1)
9d00f8dc:	ad030048 	sw	v1,72(t0)
9d00f8e0:	25220008 	addiu	v0,t1,8
9d00f8e4:	03e00008 	jr	ra
9d00f8e8:	ac6e0000 	sw	t6,0(v1)

9d00f8ec <free>:
9d00f8ec:	3c078000 	lui	a3,0x8000
9d00f8f0:	8ce30048 	lw	v1,72(a3)
9d00f8f4:	2485fff8 	addiu	a1,a0,-8
9d00f8f8:	0065102b 	sltu	v0,v1,a1
9d00f8fc:	10400015 	beqz	v0,9d00f954 <free+0x68>
9d00f900:	8c690000 	lw	t1,0(v1)
9d00f904:	00a9302b 	sltu	a2,a1,t1
9d00f908:	14c00003 	bnez	a2,9d00f918 <free+0x2c>
9d00f90c:	0069402b 	sltu	t0,v1,t1
9d00f910:	5500fff9 	bnezl	t0,9d00f8f8 <free+0xc>
9d00f914:	01201821 	move	v1,t1
9d00f918:	8c8ffffc 	lw	t7,-4(a0)
9d00f91c:	000f60c0 	sll	t4,t7,0x3
9d00f920:	00ac6821 	addu	t5,a1,t4
9d00f924:	51a90013 	beql	t5,t1,9d00f974 <free+0x88>
9d00f928:	8d2e0004 	lw	t6,4(t1)
9d00f92c:	8c780004 	lw	t8,4(v1)
9d00f930:	ac89fff8 	sw	t1,-8(a0)
9d00f934:	001820c0 	sll	a0,t8,0x3
9d00f938:	0064c821 	addu	t9,v1,a0
9d00f93c:	10b90017 	beq	a1,t9,9d00f99c <free+0xb0>
9d00f940:	01f81021 	addu	v0,t7,t8
9d00f944:	00a04821 	move	t1,a1
9d00f948:	ac690000 	sw	t1,0(v1)
9d00f94c:	03e00008 	jr	ra
9d00f950:	ace30048 	sw	v1,72(a3)
9d00f954:	0069502b 	sltu	t2,v1,t1
9d00f958:	5540ffe7 	bnezl	t2,9d00f8f8 <free+0xc>
9d00f95c:	01201821 	move	v1,t1
9d00f960:	00a9582b 	sltu	t3,a1,t1
9d00f964:	5560ffed 	bnezl	t3,9d00f91c <free+0x30>
9d00f968:	8c8ffffc 	lw	t7,-4(a0)
9d00f96c:	1000ffe2 	b	9d00f8f8 <free+0xc>
9d00f970:	01201821 	move	v1,t1
9d00f974:	8d290000 	lw	t1,0(t1)
9d00f978:	01ee7821 	addu	t7,t7,t6
9d00f97c:	ac8ffffc 	sw	t7,-4(a0)
9d00f980:	8c780004 	lw	t8,4(v1)
9d00f984:	ac89fff8 	sw	t1,-8(a0)
9d00f988:	001820c0 	sll	a0,t8,0x3
9d00f98c:	0064c821 	addu	t9,v1,a0
9d00f990:	54b9ffed 	bnel	a1,t9,9d00f948 <free+0x5c>
9d00f994:	00a04821 	move	t1,a1
9d00f998:	01f81021 	addu	v0,t7,t8
9d00f99c:	ac620004 	sw	v0,4(v1)
9d00f9a0:	ac690000 	sw	t1,0(v1)
9d00f9a4:	03e00008 	jr	ra
9d00f9a8:	ace30048 	sw	v1,72(a3)

9d00f9ac <calloc>:
9d00f9ac:	70853002 	mul	a2,a0,a1
9d00f9b0:	3c048000 	lui	a0,0x8000
9d00f9b4:	8c8a0048 	lw	t2,72(a0)
9d00f9b8:	27bdffe8 	addiu	sp,sp,-24
9d00f9bc:	afbf0014 	sw	ra,20(sp)
9d00f9c0:	afb00010 	sw	s0,16(sp)
9d00f9c4:	24c90007 	addiu	t1,a2,7
9d00f9c8:	000910c2 	srl	v0,t1,0x3
9d00f9cc:	1140000f 	beqz	t2,9d00fa0c <calloc+0x60>
9d00f9d0:	244c0001 	addiu	t4,v0,1
9d00f9d4:	8d430000 	lw	v1,0(t2)
9d00f9d8:	8c670004 	lw	a3,4(v1)
9d00f9dc:	00ec282b 	sltu	a1,a3,t4
9d00f9e0:	14a00008 	bnez	a1,9d00fa04 <calloc+0x58>
9d00f9e4:	00605821 	move	t3,v1
9d00f9e8:	1000000e 	b	9d00fa24 <calloc+0x78>
9d00f9ec:	01401821 	move	v1,t2
9d00f9f0:	8d670004 	lw	a3,4(t3)
9d00f9f4:	00ec402b 	sltu	t0,a3,t4
9d00f9f8:	1100000a 	beqz	t0,9d00fa24 <calloc+0x78>
9d00f9fc:	00000000 	nop
9d00fa00:	01601821 	move	v1,t3
9d00fa04:	5543fffa 	bnel	t2,v1,9d00f9f0 <calloc+0x44>
9d00fa08:	8c6b0000 	lw	t3,0(v1)
9d00fa0c:	00008021 	move	s0,zero
9d00fa10:	8fbf0014 	lw	ra,20(sp)
9d00fa14:	02001021 	move	v0,s0
9d00fa18:	8fb00010 	lw	s0,16(sp)
9d00fa1c:	03e00008 	jr	ra
9d00fa20:	27bd0018 	addiu	sp,sp,24
9d00fa24:	11870010 	beq	t4,a3,9d00fa68 <calloc+0xbc>
9d00fa28:	00ec6823 	subu	t5,a3,t4
9d00fa2c:	000d70c0 	sll	t6,t5,0x3
9d00fa30:	ad6d0004 	sw	t5,4(t3)
9d00fa34:	016e5821 	addu	t3,t3,t6
9d00fa38:	ad6c0004 	sw	t4,4(t3)
9d00fa3c:	25700008 	addiu	s0,t3,8
9d00fa40:	1200fff3 	beqz	s0,9d00fa10 <calloc+0x64>
9d00fa44:	ac830048 	sw	v1,72(a0)
9d00fa48:	02002021 	move	a0,s0
9d00fa4c:	0f4030b2 	jal	9d00c2c8 <memset>
9d00fa50:	00002821 	move	a1,zero
9d00fa54:	8fbf0014 	lw	ra,20(sp)
9d00fa58:	02001021 	move	v0,s0
9d00fa5c:	8fb00010 	lw	s0,16(sp)
9d00fa60:	03e00008 	jr	ra
9d00fa64:	27bd0018 	addiu	sp,sp,24
9d00fa68:	8d6f0000 	lw	t7,0(t3)
9d00fa6c:	1000fff3 	b	9d00fa3c <calloc+0x90>
9d00fa70:	ac6f0000 	sw	t7,0(v1)

9d00fa74 <realloc>:
9d00fa74:	27bdffe0 	addiu	sp,sp,-32
9d00fa78:	afbf001c 	sw	ra,28(sp)
9d00fa7c:	afb20018 	sw	s2,24(sp)
9d00fa80:	afb10014 	sw	s1,20(sp)
9d00fa84:	10800082 	beqz	a0,9d00fc90 <realloc+0x21c>
9d00fa88:	afb00010 	sw	s0,16(sp)
9d00fa8c:	10a00054 	beqz	a1,9d00fbe0 <realloc+0x16c>
9d00fa90:	3c128000 	lui	s2,0x8000
9d00fa94:	8e4a0048 	lw	t2,72(s2)
9d00fa98:	24a90007 	addiu	t1,a1,7
9d00fa9c:	000910c2 	srl	v0,t1,0x3
9d00faa0:	1140000f 	beqz	t2,9d00fae0 <realloc+0x6c>
9d00faa4:	244c0001 	addiu	t4,v0,1
9d00faa8:	8d430000 	lw	v1,0(t2)
9d00faac:	8c670004 	lw	a3,4(v1)
9d00fab0:	00ec302b 	sltu	a2,a3,t4
9d00fab4:	14c00008 	bnez	a2,9d00fad8 <realloc+0x64>
9d00fab8:	00605821 	move	t3,v1
9d00fabc:	10000010 	b	9d00fb00 <realloc+0x8c>
9d00fac0:	01401821 	move	v1,t2
9d00fac4:	8d670004 	lw	a3,4(t3)
9d00fac8:	00ec402b 	sltu	t0,a3,t4
9d00facc:	1100000c 	beqz	t0,9d00fb00 <realloc+0x8c>
9d00fad0:	00000000 	nop
9d00fad4:	01601821 	move	v1,t3
9d00fad8:	5543fffa 	bnel	t2,v1,9d00fac4 <realloc+0x50>
9d00fadc:	8c6b0000 	lw	t3,0(v1)
9d00fae0:	00008021 	move	s0,zero
9d00fae4:	8fbf001c 	lw	ra,28(sp)
9d00fae8:	02001021 	move	v0,s0
9d00faec:	8fb20018 	lw	s2,24(sp)
9d00faf0:	8fb10014 	lw	s1,20(sp)
9d00faf4:	8fb00010 	lw	s0,16(sp)
9d00faf8:	03e00008 	jr	ra
9d00fafc:	27bd0020 	addiu	sp,sp,32
9d00fb00:	11870034 	beq	t4,a3,9d00fbd4 <realloc+0x160>
9d00fb04:	00ec6823 	subu	t5,a3,t4
9d00fb08:	000d70c0 	sll	t6,t5,0x3
9d00fb0c:	ad6d0004 	sw	t5,4(t3)
9d00fb10:	016e5821 	addu	t3,t3,t6
9d00fb14:	ad6c0004 	sw	t4,4(t3)
9d00fb18:	25700008 	addiu	s0,t3,8
9d00fb1c:	1200fff0 	beqz	s0,9d00fae0 <realloc+0x6c>
9d00fb20:	ae430048 	sw	v1,72(s2)
9d00fb24:	00808821 	move	s1,a0
9d00fb28:	00a03021 	move	a2,a1
9d00fb2c:	02002021 	move	a0,s0
9d00fb30:	0f402e7e 	jal	9d00b9f8 <memcpy>
9d00fb34:	02202821 	move	a1,s1
9d00fb38:	3c048000 	lui	a0,0x8000
9d00fb3c:	8c860048 	lw	a2,72(a0)
9d00fb40:	2629fff8 	addiu	t1,s1,-8
9d00fb44:	00c9282b 	sltu	a1,a2,t1
9d00fb48:	10a0001a 	beqz	a1,9d00fbb4 <realloc+0x140>
9d00fb4c:	8cc30000 	lw	v1,0(a2)
9d00fb50:	0123c02b 	sltu	t8,t1,v1
9d00fb54:	17000003 	bnez	t8,9d00fb64 <realloc+0xf0>
9d00fb58:	00c3c82b 	sltu	t9,a2,v1
9d00fb5c:	5720fff9 	bnezl	t9,9d00fb44 <realloc+0xd0>
9d00fb60:	00603021 	move	a2,v1
9d00fb64:	8e2cfffc 	lw	t4,-4(s1)
9d00fb68:	000c58c0 	sll	t3,t4,0x3
9d00fb6c:	012b3821 	addu	a3,t1,t3
9d00fb70:	50e3003e 	beql	a3,v1,9d00fc6c <realloc+0x1f8>
9d00fb74:	8c680004 	lw	t0,4(v1)
9d00fb78:	8cca0004 	lw	t2,4(a2)
9d00fb7c:	000a68c0 	sll	t5,t2,0x3
9d00fb80:	00cd7021 	addu	t6,a2,t5
9d00fb84:	112e003d 	beq	t1,t6,9d00fc7c <realloc+0x208>
9d00fb88:	ae23fff8 	sw	v1,-8(s1)
9d00fb8c:	01201821 	move	v1,t1
9d00fb90:	acc30000 	sw	v1,0(a2)
9d00fb94:	ae460048 	sw	a2,72(s2)
9d00fb98:	8fbf001c 	lw	ra,28(sp)
9d00fb9c:	02001021 	move	v0,s0
9d00fba0:	8fb20018 	lw	s2,24(sp)
9d00fba4:	8fb10014 	lw	s1,20(sp)
9d00fba8:	8fb00010 	lw	s0,16(sp)
9d00fbac:	03e00008 	jr	ra
9d00fbb0:	27bd0020 	addiu	sp,sp,32
9d00fbb4:	00c3f82b 	sltu	ra,a2,v1
9d00fbb8:	57e0ffe2 	bnezl	ra,9d00fb44 <realloc+0xd0>
9d00fbbc:	00603021 	move	a2,v1
9d00fbc0:	0123102b 	sltu	v0,t1,v1
9d00fbc4:	5440ffe8 	bnezl	v0,9d00fb68 <realloc+0xf4>
9d00fbc8:	8e2cfffc 	lw	t4,-4(s1)
9d00fbcc:	1000ffdd 	b	9d00fb44 <realloc+0xd0>
9d00fbd0:	00603021 	move	a2,v1
9d00fbd4:	8d6f0000 	lw	t7,0(t3)
9d00fbd8:	1000ffcf 	b	9d00fb18 <realloc+0xa4>
9d00fbdc:	ac6f0000 	sw	t7,0(v1)
9d00fbe0:	3c118000 	lui	s1,0x8000
9d00fbe4:	8e220048 	lw	v0,72(s1)
9d00fbe8:	2485fff8 	addiu	a1,a0,-8
9d00fbec:	0045c02b 	sltu	t8,v0,a1
9d00fbf0:	13000016 	beqz	t8,9d00fc4c <realloc+0x1d8>
9d00fbf4:	8c490000 	lw	t1,0(v0)
9d00fbf8:	00a9c82b 	sltu	t9,a1,t1
9d00fbfc:	17200003 	bnez	t9,9d00fc0c <realloc+0x198>
9d00fc00:	0049f82b 	sltu	ra,v0,t1
9d00fc04:	57e0fff9 	bnezl	ra,9d00fbec <realloc+0x178>
9d00fc08:	01201021 	move	v0,t1
9d00fc0c:	8c88fffc 	lw	t0,-4(a0)
9d00fc10:	000830c0 	sll	a2,t0,0x3
9d00fc14:	00a65821 	addu	t3,a1,a2
9d00fc18:	5169003d 	beql	t3,t1,9d00fd10 <realloc+0x29c>
9d00fc1c:	8d270004 	lw	a3,4(t1)
9d00fc20:	8c4c0004 	lw	t4,4(v0)
9d00fc24:	ac89fff8 	sw	t1,-8(a0)
9d00fc28:	000c20c0 	sll	a0,t4,0x3
9d00fc2c:	00445021 	addu	t2,v0,a0
9d00fc30:	10aa003b 	beq	a1,t2,9d00fd20 <realloc+0x2ac>
9d00fc34:	010c6821 	addu	t5,t0,t4
9d00fc38:	00a04821 	move	t1,a1
9d00fc3c:	00008021 	move	s0,zero
9d00fc40:	ac490000 	sw	t1,0(v0)
9d00fc44:	1000ffa7 	b	9d00fae4 <realloc+0x70>
9d00fc48:	ae220048 	sw	v0,72(s1)
9d00fc4c:	0049802b 	sltu	s0,v0,t1
9d00fc50:	5600ffe6 	bnezl	s0,9d00fbec <realloc+0x178>
9d00fc54:	01201021 	move	v0,t1
9d00fc58:	00a9902b 	sltu	s2,a1,t1
9d00fc5c:	5640ffec 	bnezl	s2,9d00fc10 <realloc+0x19c>
9d00fc60:	8c88fffc 	lw	t0,-4(a0)
9d00fc64:	1000ffe1 	b	9d00fbec <realloc+0x178>
9d00fc68:	01201021 	move	v0,t1
9d00fc6c:	8c630000 	lw	v1,0(v1)
9d00fc70:	01886021 	addu	t4,t4,t0
9d00fc74:	1000ffc0 	b	9d00fb78 <realloc+0x104>
9d00fc78:	ae2cfffc 	sw	t4,-4(s1)
9d00fc7c:	018a7821 	addu	t7,t4,t2
9d00fc80:	accf0004 	sw	t7,4(a2)
9d00fc84:	acc30000 	sw	v1,0(a2)
9d00fc88:	1000ffc3 	b	9d00fb98 <realloc+0x124>
9d00fc8c:	ae460048 	sw	a2,72(s2)
9d00fc90:	3c118000 	lui	s1,0x8000
9d00fc94:	8e300048 	lw	s0,72(s1)
9d00fc98:	24ae0007 	addiu	t6,a1,7
9d00fc9c:	000e18c2 	srl	v1,t6,0x3
9d00fca0:	1200ff8f 	beqz	s0,9d00fae0 <realloc+0x6c>
9d00fca4:	24690001 	addiu	t1,v1,1
9d00fca8:	8e120000 	lw	s2,0(s0)
9d00fcac:	8e590004 	lw	t9,4(s2)
9d00fcb0:	0329782b 	sltu	t7,t9,t1
9d00fcb4:	15e00008 	bnez	t7,9d00fcd8 <realloc+0x264>
9d00fcb8:	0240c021 	move	t8,s2
9d00fcbc:	1000000a 	b	9d00fce8 <realloc+0x274>
9d00fcc0:	02009021 	move	s2,s0
9d00fcc4:	8f190004 	lw	t9,4(t8)
9d00fcc8:	0329f82b 	sltu	ra,t9,t1
9d00fccc:	13e00006 	beqz	ra,9d00fce8 <realloc+0x274>
9d00fcd0:	00000000 	nop
9d00fcd4:	03009021 	move	s2,t8
9d00fcd8:	5612fffa 	bnel	s0,s2,9d00fcc4 <realloc+0x250>
9d00fcdc:	8e580000 	lw	t8,0(s2)
9d00fce0:	1000ff80 	b	9d00fae4 <realloc+0x70>
9d00fce4:	00008021 	move	s0,zero
9d00fce8:	5139000f 	beql	t1,t9,9d00fd28 <realloc+0x2b4>
9d00fcec:	8f060000 	lw	a2,0(t8)
9d00fcf0:	03292823 	subu	a1,t9,t1
9d00fcf4:	000510c0 	sll	v0,a1,0x3
9d00fcf8:	af050004 	sw	a1,4(t8)
9d00fcfc:	0302c021 	addu	t8,t8,v0
9d00fd00:	af090004 	sw	t1,4(t8)
9d00fd04:	ae320048 	sw	s2,72(s1)
9d00fd08:	1000ff76 	b	9d00fae4 <realloc+0x70>
9d00fd0c:	27100008 	addiu	s0,t8,8
9d00fd10:	8d290000 	lw	t1,0(t1)
9d00fd14:	01074021 	addu	t0,t0,a3
9d00fd18:	1000ffc1 	b	9d00fc20 <realloc+0x1ac>
9d00fd1c:	ac88fffc 	sw	t0,-4(a0)
9d00fd20:	1000ffc6 	b	9d00fc3c <realloc+0x1c8>
9d00fd24:	ac4d0004 	sw	t5,4(v0)
9d00fd28:	ae320048 	sw	s2,72(s1)
9d00fd2c:	27100008 	addiu	s0,t8,8
9d00fd30:	1000ff6c 	b	9d00fae4 <realloc+0x70>
9d00fd34:	ae460000 	sw	a2,0(s2)

9d00fd38 <init_mem>:
9d00fd38:	3c038000 	lui	v1,0x8000
9d00fd3c:	8c620048 	lw	v0,72(v1)
9d00fd40:	1040000b 	beqz	v0,9d00fd70 <init_mem+0x38>
9d00fd44:	3c048000 	lui	a0,0x8000
9d00fd48:	2486003c 	addiu	a2,a0,60
9d00fd4c:	3c058000 	lui	a1,0x8000
9d00fd50:	8ca90044 	lw	t1,68(a1)
9d00fd54:	8c87003c 	lw	a3,60(a0)
9d00fd58:	8cc80004 	lw	t0,4(a2)
9d00fd5c:	ac690048 	sw	t1,72(v1)
9d00fd60:	ad270000 	sw	a3,0(t1)
9d00fd64:	ad280004 	sw	t0,4(t1)
9d00fd68:	03e00008 	jr	ra
9d00fd6c:	00001021 	move	v0,zero
9d00fd70:	3c0b0002 	lui	t3,0x2
9d00fd74:	240afffc 	li	t2,-4
9d00fd78:	256ce7d8 	addiu	t4,t3,-6184
9d00fd7c:	3c188000 	lui	t8,0x8000
9d00fd80:	018a6824 	and	t5,t4,t2
9d00fd84:	27190824 	addiu	t9,t8,2084
9d00fd88:	032a1024 	and	v0,t9,t2
9d00fd8c:	3c0f8000 	lui	t7,0x8000
9d00fd90:	25ae0007 	addiu	t6,t5,7
9d00fd94:	000e20c2 	srl	a0,t6,0x3
9d00fd98:	00404821 	move	t1,v0
9d00fd9c:	25e6003c 	addiu	a2,t7,60
9d00fda0:	3c058000 	lui	a1,0x8000
9d00fda4:	ac440004 	sw	a0,4(v0)
9d00fda8:	ac420000 	sw	v0,0(v0)
9d00fdac:	aca20044 	sw	v0,68(a1)
9d00fdb0:	ade2003c 	sw	v0,60(t7)
9d00fdb4:	acc40004 	sw	a0,4(a2)
9d00fdb8:	ac690048 	sw	t1,72(v1)
9d00fdbc:	03e00008 	jr	ra
9d00fdc0:	00001021 	move	v0,zero

9d00fdc4 <_irq_handler>:
9d00fdc4:	3c02bf86 	lui	v0,0xbf86
9d00fdc8:	8c430120 	lw	v1,288(v0)
9d00fdcc:	30641000 	andi	a0,v1,0x1000
9d00fdd0:	5080000a 	beqzl	a0,9d00fdfc <_irq_handler+0x38>
9d00fdd4:	27bdffe8 	addiu	sp,sp,-24
9d00fdd8:	40054800 	mfc0	a1,c0_count
9d00fddc:	3c060001 	lui	a2,0x1
9d00fde0:	34c786a0 	ori	a3,a2,0x86a0
9d00fde4:	00a74021 	addu	t0,a1,a3
9d00fde8:	40885800 	mtc0	t0,c0_compare
9d00fdec:	24090001 	li	t1,1
9d00fdf0:	3c0abf81 	lui	t2,0xbf81
9d00fdf4:	03e00008 	jr	ra
9d00fdf8:	ad490044 	sw	t1,68(t2)
9d00fdfc:	afbf0014 	sw	ra,20(sp)
9d00fe00:	0f40353e 	jal	9d00d4f8 <SoftReset>
9d00fe04:	00000000 	nop
9d00fe08:	400b4800 	mfc0	t3,c0_count
9d00fe0c:	3c0c0001 	lui	t4,0x1
9d00fe10:	358d86a0 	ori	t5,t4,0x86a0
9d00fe14:	016d7021 	addu	t6,t3,t5
9d00fe18:	408e5800 	mtc0	t6,c0_compare
9d00fe1c:	8fbf0014 	lw	ra,20(sp)
9d00fe20:	240f0001 	li	t7,1
9d00fe24:	3c18bf81 	lui	t8,0xbf81
9d00fe28:	af0f0044 	sw	t7,68(t8)
9d00fe2c:	03e00008 	jr	ra
9d00fe30:	27bd0018 	addiu	sp,sp,24

9d00fe34 <start_app>:
9d00fe34:	27bdffe8 	addiu	sp,sp,-24
9d00fe38:	afbf0014 	sw	ra,20(sp)
9d00fe3c:	0f403511 	jal	9d00d444 <proc_init>
9d00fe40:	00000000 	nop
9d00fe44:	0f403524 	jal	9d00d490 <start_timer>
9d00fe48:	00000000 	nop
9d00fe4c:	0f403f4e 	jal	9d00fd38 <init_mem>
9d00fe50:	00000000 	nop
9d00fe54:	3c040001 	lui	a0,0x1
9d00fe58:	3c050beb 	lui	a1,0xbeb
9d00fe5c:	3484c200 	ori	a0,a0,0xc200
9d00fe60:	0f403531 	jal	9d00d4c4 <init_uart>
9d00fe64:	34a5c200 	ori	a1,a1,0xc200
9d00fe68:	0f400aaf 	jal	9d002abc <coremain>
9d00fe6c:	00000000 	nop
9d00fe70:	8fbf0014 	lw	ra,20(sp)
9d00fe74:	00001021 	move	v0,zero
9d00fe78:	03e00008 	jr	ra
9d00fe7c:	27bd0018 	addiu	sp,sp,24
